riscv-none-elf-as -g -march=rv32izicsr start.S -o start.o
riscv-none-elf-as -g -march=rv32izicsr uf8_decode.S -o uf8_decode.o
riscv-none-elf-as -g -march=rv32izicsr uf8_encode.S -o uf8_encode.o
riscv-none-elf-as -g -march=rv32izicsr clz.S -o clz.o
riscv-none-elf-gcc -g -march=rv32i_zicsr main.c -o main.o -c
riscv-none-elf-ld -T linker.ld -o test.elf start.o uf8_decode.o uf8_encode.o clz.o main.o
riscv-none-elf-objdump -Ds test.elf | less

test.elf:     file format elf32-littleriscv

Contents of section .text:
 10000 17210000 130101a0 97120000 9382d29e  .!..............
 10010 17130000 1303539e 63d86200 23a00200  ......S.c.b.#...
 10020 93824200 6ff05fff ef001007 9308d005  ..B.o._.........
 10030 13050000 73000000 6f000000 9372f500  ....s...o....r..
 10040 13534500 9303f000 b3836340 130ef007  .SE.......c@....
 10050 131e8e00 136efe0f 335e7e00 131e4e00  .....n..3^~...N.
 10060 33956200 3305c501 67800000 930e0001  3.b.3...g.......
 10070 6348d50b 130181ff 23201100 23228100  cH......# ..#"..
 10080 13040500 ef00000a 93020500 1303f001  ................
 10090 33035340 93030000 130e0000 930e5000  3.S@..........P.
 100a0 6340d305 9303c3ff 930ef000 63d47e00  c@..........c.~.
 100b0 9303f000 930e1000 b39e7e00 938efeff  ..........~.....
 100c0 939e4e00 138e0e00 638c0300 635ac401  ..N.....c...cZ..
 100d0 130e0eff 135e1e00 9383f3ff 6ff0dffe  .....^......o...
 100e0 930ef000 63ded301 931f1e00 938f0f01  ....c...........
 100f0 6348f401 138e0f00 93831300 6ff05ffe  cH..........o._.
 10100 330fc441 335f7f00 13954300 3365e501  3..A3_....C.3e..
 10110 03244100 83200100 13018100 67800000  .$A.. ......g...
 10120 67800000 63060502 93020002 13030001  g...c...........
 10130 b3536500 63860300 b3826240 13850300  .Se.c.....b@....
 10140 13531300 e31603fe 3385a240 67800000  .S......3..@g...
 10150 13051000 97050000 9385057c 13064001  ...........|..@.
 10160 93080004 73000000 1305f0ff 67800000  ....s.......g...
 10170 130101fd 23261102 23248102 13040103  ....#&..#$......
 10180 232ea4fc 232cb4fc 232ac4fc 8327c4fd  #...#,..#*...'..
 10190 2326f4fe 832784fd 2324f4fe 6f004002  #&...'..#$..o.@.
 101a0 032784fe 93071700 2324f4fe 8327c4fe  .'......#$...'..
 101b0 93861700 2326d4fe 03470700 2380e700  ....#&...G..#...
 101c0 832744fd 1387f7ff 232ae4fc e39a07fc  .'D.....#*......
 101d0 8327c4fd 13850700 8320c102 03248102  .'....... ...$..
 101e0 13010103 67800000 130101fd 23261102  ....g.......#&..
 101f0 23248102 13040103 232ea4fc 232cb4fc  #$......#...#,..
 10200 832784fd 63960700 93070000 6f00c008  .'..c.......o...
 10210 232604fe 232404fe 9307f001 2322f4fe  #&..#$......#"..
 10220 6f00c006 832784fe 93971700 2324f4fe  o....'......#$..
 10230 832744fe 0327c4fd b357f700 93f71700  .'D..'...W......
 10240 032784fe b367f700 2324f4fe 032784fe  .'...g..#$...'..
 10250 832784fd 6366f702 032784fe 832784fd  .'..cf...'...'..
 10260 b307f740 2324f4fe 832744fe 13071000  ...@#$...'D.....
 10270 b317f700 0327c4fe b367f700 2326f4fe  .....'...g..#&..
 10280 832744fe 9387f7ff 2322f4fe 832744fe  .'D.....#"...'D.
 10290 e3da07f8 8327c4fe 13850700 8320c102  .....'....... ..
 102a0 03248102 13010103 67800000 130101fd  .$......g.......
 102b0 23261102 23248102 13040103 232ea4fc  #&..#$......#...
 102c0 232cb4fc 832784fd 63960700 93070000  #,...'..c.......
 102d0 6f000007 232604fe 9307f001 2324f4fe  o...#&......#$..
 102e0 6f004005 8327c4fe 93971700 2326f4fe  o.@..'......#&..
 102f0 832784fe 0327c4fd b357f700 93f71700  .'...'...W......
 10300 0327c4fe b367f700 2326f4fe 0327c4fe  .'...g..#&...'..
 10310 832784fd 636af700 0327c4fe 832784fd  .'..cj...'...'..
 10320 b307f740 2326f4fe 832784fe 9387f7ff  ...@#&...'......
 10330 2324f4fe 832784fe e3d607fa 8327c4fe  #$...'.......'..
 10340 13850700 8320c102 03248102 13010103  ..... ...$......
 10350 67800000 130101fd 23261102 23248102  g.......#&..#$..
 10360 13040103 232ea4fc 232cb4fc 232604fe  ....#...#,..#&..
 10370 6f008003 832784fd 93f71700 638a0700  o....'......c...
 10380 0327c4fe 8327c4fd b307f700 2326f4fe  .'...'......#&..
 10390 8327c4fd 93971700 232ef4fc 832784fd  .'......#....'..
 103a0 93d71700 232cf4fc 832784fd e39407fc  ....#,...'......
 103b0 8327c4fe 13850700 8320c102 03248102  .'....... ...$..
 103c0 13010103 67800000 130101fe 232e1100  ....g.......#...
 103d0 232c8100 13040102 2326a4fe 2324b4fe  #,......#&..#$..
 103e0 832584fe 0325c4fe eff0dff6 93070500  .%...%..........
 103f0 13850700 8320c101 03248101 13010102  ..... ...$......
 10400 67800000 130101fc 232e1102 232c8102  g.......#...#,..
 10410 13040104 2326a4fc 930744fd 93874701  ....#&....D...G.
 10420 2326f4fe 8327c4fc 639e0706 8327c4fe  #&...'..c....'..
 10430 9387f7ff 2326f4fe 8327c4fe 13070003  ....#&...'......
 10440 2380e700 6f008006 8327c4fc 93f7f700  #...o....'......
 10450 2324f4fe 032784fe 93079000 63cce700  #$...'......c...
 10460 832784fe 93f7f70f 93870703 93f7f70f  .'..............
 10470 6f004001 832784fe 93f7f70f 93877705  o.@..'........w.
 10480 93f7f70f 0327c4fe 1307f7ff 2326e4fe  .....'......#&..
 10490 0327c4fe 2300f700 8327c4fc 93d74700  .'..#....'....G.
 104a0 2326f4fc 8327c4fc e39007fa 930744fd  #&...'........D.
 104b0 93874701 0327c4fe 3387e740 8327c4fe  ..G..'..3..@.'..
 104c0 93080004 13051000 b305f000 13060700  ................
 104d0 73000000 13000000 8320c103 03248103  s........ ...$..
 104e0 13010104 67800000 130101fc 232e1102  ....g.......#...
 104f0 232c8102 13040104 2326a4fc 930784fd  #,......#&......
 10500 93874701 2326f4fe 8327c4fc 63900706  ..G.#&...'..c...
 10510 8327c4fe 9387f7ff 2326f4fe 8327c4fe  .'......#&...'..
 10520 13070003 2380e700 6f00c004 9305a000  ....#...o.......
 10530 0325c4fc eff09fd7 93070500 93f7f70f  .%..............
 10540 0327c4fe 1307f7ff 2326e4fe 93870703  .'......#&......
 10550 13f7f70f 8327c4fe 2380e700 9305a000  .....'..#.......
 10560 0325c4fc eff05fc8 2326a4fc 8327c4fc  .%...._.#&...'..
 10570 e39e07fa 930784fd 93874701 0327c4fe  ..........G..'..
 10580 3387e740 8327c4fe 93080004 13051000  3..@.'..........
 10590 b305f000 13060700 73000000 13000000  ........s.......
 105a0 8320c103 03248103 13010104 67800000  . ...$......g...
 105b0 130101fd 23261102 23248102 13040103  ....#&..#$......
 105c0 9307f0ff 2326f4fe 93071000 a305f4fe  ....#&..........
 105d0 b7170100 93878792 13071002 93080004  ................
 105e0 13051000 b305f000 13060700 73000000  ............s...
 105f0 232204fe 6f000028 832744fe a301f4fe  #"..o..(.'D.....
 10600 834734fe 13850700 eff05fa3 93070500  .G4......._.....
 10610 232ef4fc 8327c4fd 13850700 eff01fa5  #....'..........
 10620 93070500 a30df4fc b7170100 9387c794  ................
 10630 13075000 93080004 13051000 b305f000  ..P.............
 10640 13060700 73000000 832744fe 13850700  ....s....'D.....
 10650 eff09fe9 b7170100 93874795 13079000  ..........G.....
 10660 93080004 13051000 b305f000 13060700  ................
 10670 73000000 834734fe 13850700 eff09fd8  s....G4.........
 10680 b7170100 93870796 1307c000 93080004  ................
 10690 13051000 b305f000 13060700 73000000  ............s...
 106a0 8327c4fd 13850700 eff01fe4 b7170100  .'..............
 106b0 93870797 1307b000 93080004 13051000  ................
 106c0 b305f000 13060700 73000000 8347b4fd  ........s....G..
 106d0 13850700 eff01fd3 b7170100 93870798  ................
 106e0 13071000 93080004 13051000 b305f000  ................
 106f0 13060700 73000000 034734fe 8347b4fd  ....s....G4..G..
 10700 6306f70a b7170100 93874798 13072000  c.........G... .
 10710 93080004 13051000 b305f000 13060700  ................
 10720 73000000 834734fe 13850700 eff09fcd  s....G4.........
 10730 b7170100 93878798 1307a000 93080004  ................
 10740 13051000 b305f000 13060700 73000000  ............s...
 10750 8327c4fd 13850700 eff01fd9 b7170100  .'..............
 10760 93874799 13077001 93080004 13051000  ..G...p.........
 10770 b305f000 13060700 73000000 8347b4fd  ........s....G..
 10780 13850700 eff01fc8 b7170100 93870798  ................
 10790 13071000 93080004 13051000 b305f000  ................
 107a0 13060700 73000000 a30504fe 0327c4fd  ....s........'..
 107b0 8327c4fe 63c6e70a b7170100 93874798  .'..c.........G.
 107c0 13072000 93080004 13051000 b305f000  .. .............
 107d0 13060700 73000000 834734fe 13850700  ....s....G4.....
 107e0 eff05fc2 b7170100 93878798 1307a000  .._.............
 107f0 93080004 13051000 b305f000 13060700  ................
 10800 73000000 8327c4fd 13850700 eff0dfcd  s....'..........
 10810 b7170100 9387c79a 1307d000 93080004  ................
 10820 13051000 b305f000 13060700 73000000  ............s...
 10830 8327c4fe 13850700 eff01fcb b7170100  .'..............
 10840 93870798 13071000 93080004 13051000  ................
 10850 b305f000 13060700 73000000 a30504fe  ........s.......
 10860 8327c4fd 2326f4fe 832744fe 93871700  .'..#&...'D.....
 10870 2322f4fe 032744fe 9307f00f e3dee7d6  #"...'D.........
 10880 8347b4fe 13850700 8320c102 03248102  .G....... ...$..
 10890 13010103 67800000 130101ff 23261100  ....g.......#&..
 108a0 23248100 13040101 eff09fd0 93070500  #$..............
 108b0 63860702 b7170100 9387c79b 1307b001  c...............
 108c0 93080004 13051000 b305f000 13060700  ................
 108d0 73000000 93070000 6f008002 b7170100  s.......o.......
 108e0 9387879d 1307b001 93080004 13051000  ................
 108f0 b305f000 13060700 73000000 93071000  ........s.......
 10900 13850700 8320c100 03248100 13010101  ..... ...$......
 10910 67800000                             g...            
Contents of section .rodata:
 10914 556e6465 66696e65 64204265 68617669  Undefined Behavi
 10924 6f72210a 3d3d3d3d 20554638 20456e63  or!.==== UF8 Enc
 10934 6f64652f 4465636f 64652054 65737420  ode/Decode Test 
 10944 3d3d3d3d 0a000000 54657374 20000000  ====....Test ...
 10954 207c2055 4638203d 20000000 207c2044   | UF8 = ... | D
 10964 65636f64 65203d20 00000000 207c2045  ecode = .... | E
 10974 6e636f64 65203d20 00000000 0a000000  ncode = ........
 10984 30780000 3a206465 636f6465 643d0000  0x..: decoded=..
 10994 20627574 20656e63 6f646573 20626163   but encodes bac
 109a4 6b20746f 20307800 203c3d20 70726576  k to 0x. <= prev
 109b4 696f7573 20000000 3d3d3d3d 20416c6c  ious ...==== All
 109c4 20746573 74732050 41535345 44203d3d   tests PASSED ==
 109d4 3d3d0a00 3d3d3d3d 20536f6d 65207465  ==..==== Some te
 109e4 73747320 4641494c 4544203d 3d3d3d0a  sts FAILED ====.
 109f4 00                                   .               
Contents of section .riscv.attributes:
 0000 41240000 00726973 63760001 1a000000  A$...riscv......
 0010 04100572 76333269 3270315f 7a696373  ...rv32i2p1_zics
 0020 72327030 00                          r2p0.           
Contents of section .comment:
 0000 4743433a 20287850 61636b20 474e5520  GCC: (xPack GNU 
 0010 52495343 2d562045 6d626564 64656420  RISC-V Embedded 
 0020 47434320 7838365f 36342920 31342e32  GCC x86_64) 14.2
 0030 2e3000                               .0.             
Contents of section .debug_line:
 0000 71000000 02001b00 00000101 fb0e0a00  q...............
 0010 01010101 00000001 00737461 72742e53  .........start.S
 0020 00000000 00000502 00000100 16030309  ................
 0030 08000103 01090800 01030209 08000103  ................
 0040 01090400 01030109 04000103 01090400  ................
 0050 01030409 04000103 03090400 01030109  ................
 0060 04000103 01090400 01030409 04000109  ................
 0070 04000001 01780000 00020020 00000001  .....x..... ....
 0080 01fb0e0a 00010101 01000000 01007566  ..............uf
 0090 385f6465 636f6465 2e530000 00000000  8_decode.S......
 00a0 05023c00 01000309 01030109 04000103  ..<.............
 00b0 01090400 01030109 04000103 02090400  ................
 00c0 01030109 04000103 01090400 01030209  ................
 00d0 04000103 01090400 01030109 04000103  ................
 00e0 01090400 01030109 04000109 04000001  ................
 00f0 01440100 00020020 00000001 01fb0e0a  .D..... ........
 0100 00010101 01000000 01007566 385f656e  ..........uf8_en
 0110 636f6465 2e530000 00000000 05026c00  code.S........l.
 0120 0100030d 01030109 04000103 03090400  ................
 0130 01030109 04000103 01090400 01030109  ................
 0140 04000103 02090400 01030109 04000103  ................
 0150 01090400 01030109 04000103 02090400  ................
 0160 01030109 04000103 01090400 01030309  ................
 0170 04000103 02090400 01030209 04000103  ................
 0180 01090400 01030109 04000103 03090400  ................
 0190 01030109 04000103 01090400 01030109  ................
 01a0 04000103 01090400 01030309 04000103  ................
 01b0 01090400 01030109 04000103 01090400  ................
 01c0 01030109 04000103 01090400 01030309  ................
 01d0 04000103 01090400 01030109 04000103  ................
 01e0 01090400 01030309 04000103 01090400  ................
 01f0 01030109 04000103 01090400 01030309  ................
 0200 04000103 01090400 01030109 04000103  ................
 0210 01090400 01030109 04000103 01090400  ................
 0220 01030109 04000103 01090400 01030309  ................
 0230 04000109 04000001 01950000 00020019  ................
 0240 00000001 01fb0e0a 00010101 01000000  ................
 0250 0100636c 7a2e5300 00000000 00050224  ..clz.S........$
 0260 01010003 11010301 09040001 03010904  ................
 0270 00010302 09040001 03010904 00010301  ................
 0280 09040001 03010904 00010302 09040001  ................
 0290 03010904 00010302 09040001 03010904  ................
 02a0 00010303 09040001 03010904 00010301  ................
 02b0 09080001 03010904 00010301 09040001  ................
 02c0 03020904 00010301 09040001 09040000  ................
 02d0 0101c804 00000500 04004e00 00000101  ..........N.....
 02e0 01fb0e0d 00010101 01000000 01000001  ................
 02f0 01011f05 07000000 51000000 b1000000  ........Q.......
 0300 0d010000 74010000 02011f02 0f060000  ....t...........
 0310 00000000 00000000 cc010000 01dd0100  ................
 0320 0002e701 000003f0 01000004 05010005  ................
 0330 02700101 00031f01 050e0301 091c0001  .p..............
 0340 05140301 09080001 050b0301 09080001  ................
 0350 05120301 09040001 050b0300 090c0001  ................
 0360 05100300 090c0001 050e0300 09040001  ................
 0370 050d037f 09040001 050c0300 090c0001  ................
 0380 03020904 00010501 03010904 00010304  ................
 0390 09140001 05080301 09180001 05100301  ................
 03a0 09080001 05130302 09080001 03010904  ................
 03b0 0001050e 03020904 00010505 03000908  ................
 03c0 00010513 03010904 00010520 0301090c  ........... ....
 03d0 00010526 0300090c 00010513 03000904  ...&............
 03e0 0001050c 0302090c 00010517 0301090c  ................
 03f0 0001051e 03010910 00010516 0300090c  ................
 0400 0001051f 00020402 037a090c 00010518  .........z......
 0410 00020401 0300090c 0001050c 030a0908  ................
 0420 00010501 03010904 00010303 09140001  ................
 0430 05080301 09180001 05100301 09080001  ................
 0440 05130302 09080001 050e0302 09040001  ................
 0450 05050300 09080001 05130301 09040001  ................
 0460 05200301 090c0001 05260300 090c0001  . .......&......
 0470 05130300 09040001 050c0302 090c0001  ................
 0480 05170301 090c0001 051f0002 0402037b  ...............{
 0490 09100001 05180002 04010300 090c0001  ................
 04a0 050c0309 09080001 05010301 09040001  ................
 04b0 03040914 0001050e 03010918 0001050b  ................
 04c0 03010904 0001050f 03010904 0001050c  ................
 04d0 03000908 00010514 03010904 0001050b  ................
 04e0 03010910 00010301 090c0001 050c037c  ...............|
 04f0 090c0001 03060908 00010501 03010904  ................
 0500 00010304 09140001 050c0301 09180001  ................
 0510 05010301 09100001 03040914 0001050b  ................
 0520 03020914 00010508 0302090c 0001050e  ................
 0530 03010908 0001051d 0303091c 00010511  ................
 0540 03000904 00010512 03010908 00010528  ...............(
 0550 00020401 0300090c 00010512 00020401  ................
 0560 03000908 00010540 00020402 0300090c  .......@........
 0570 00010512 00020402 03000908 00010002  ................
 0580 04040603 00090800 01051106 03010914  ................
 0590 00010514 037d090c 00010505 03070908  .....}..........
 05a0 00010501 03010928 00010304 09140001  .......(........
 05b0 050b0302 09140001 05080302 090c0001  ................
 05c0 050e0301 09080001 051a0303 091c0001  ................
 05d0 05180002 04010300 09100001 05120002  ................
 05e0 04010300 09040001 05180002 04010300  ................
 05f0 090c0001 05120002 04010300 09080001  ................
 0600 05130301 09080001 0514037e 09100001  ...........~....
 0610 05050305 09080001 05010301 09280001  .............(..
 0620 05180307 09140001 050d0301 09100001  ................
 0630 050a0301 09080001 05050302 09080001  ................
 0640 050e0302 09200001 05050300 09040001  ..... ..........
 0650 05110301 09040001 05190301 09080001  ................
 0660 05110002 04010300 09100001 05170301  ................
 0670 09040001 05090302 09140001 03010920  ............... 
 0680 00010301 090c0001 03010920 00010301  ........... ....
 0690 090c0001 03010920 00010301 090c0001  ....... ........
 06a0 03010920 00010301 090c0001 050c0302  ... ............
 06b0 09200001 050d0301 090c0001 03010920  . ............. 
 06c0 00010301 090c0001 03010920 00010301  ........... ....
 06d0 090c0001 03010920 00010301 090c0001  ....... ........
 06e0 05140301 09200001 050c0303 09040001  ..... ..........
 06f0 050d0301 090c0001 03010920 00010301  ........... ....
 0700 090c0001 03010920 00010301 090c0001  ....... ........
 0710 03010920 00010301 090c0001 05140301  ... ............
 0720 09200001 05180302 09040001 051f0002  . ..............
 0730 0402035c 09080001 05170002 04010300  ...\............
 0740 090c0001 050c0326 090c0001 05010301  .......&........
 0750 09040001 05100302 09140001 05080301  ................
 0760 09100001 05070002 04010300 09080001  ................
 0770 05090301 09040001 05100301 09200001  ............. ..
 0780 05090302 09080001 05100301 09200001  ............. ..
 0790 05010302 09040001 09140000 0101      ..............  
Contents of section .debug_info:
 0000 31000000 02000000 00000401 00000000  1...............
 0010 00000100 3c000100 00000000 08000000  ....<...........
 0020 52000000 01800260 00000001 00000100  R......`........
 0030 40000100 00220000 00020021 00000004  @....".....!....
 0040 01750000 003c0001 006c0001 00670000  .u...<...l...g..
 0050 00080000 00520000 00018022 00000002  .....R....."....
 0060 00350000 000401f1 0000006c 00010024  .5.........l...$
 0070 01010074 00000008 00000052 00000001  ...t.......R....
 0080 80220000 00020049 00000004 01390200  .".....I.....9..
 0090 00240101 00700101 00810000 00080000  .$...p..........
 00a0 00520000 000180f0 03000005 0001045d  .R.............]
 00b0 0000000c c3000000 1d000000 00070000  ................
 00c0 00700101 00a40700 00d20200 00010106  .p..............
 00d0 0f010000 05870000 00022b18 39000000  ..........+.9...
 00e0 0101080d 01000001 0205b801 00000102  ................
 00f0 07a60000 0005b900 0000024d 185a0000  ...........M.Z..
 0100 00010405 a8010000 053e0100 00024f19  .........>....O.
 0110 6d000000 01040782 01000001 0805a301  m...............
 0120 00000108 077d0100 000d0405 696e7400  .....}......int.
 0130 01040787 01000005 89000000 0318132d  ...............-
 0140 0000000e 90000000 05bb0000 00032c13  ..............,.
 0150 4e000000 05400100 00033014 61000000  N....@....0.a...
 0160 05910000 0004d617 89000000 011004e1  ................
 0170 0100000f 0408d300 00000101 08160100  ................
 0180 0008df00 00001011 75663800 01881190  ........uf8.....
 0190 0000000a 1b010000 8b05e000 00000101  ................
 01a0 00000bad 00000000 0ac20100 008a0aad  ................
 01b0 00000016 0100000b e0000000 00126601  ..............f.
 01c0 000001bc 05820000 00980801 007c0000  .............|..
 01d0 00019c13 72010000 018d0dac 010000b0  ....r...........
 01e0 050100e8 02000001 9cac0100 00034901  ..............I.
 01f0 00008e0d a1000000 02916c03 6b010000  ..........l.k...
 0200 8f0aac01 00000291 6b06f005 01009002  ........k.......
 0210 00000269 00930e82 00000002 916406f8  ...i.........d..
 0220 05010070 02000002 66310094 11900000  ...p....f1......
 0230 00029163 03520100 009511a1 00000002  ...c.R..........
 0240 915c0266 31320096 11900000 0002915b  .\.f12.........[
 0250 00000001 0102ed01 000014cd 01000001  ................
 0260 780de804 0100c800 0000019c f2010000  x...............
 0270 0476616c 0078256d 00000002 914c0262  .val.x%m.....L.b
 0280 7566007a 0af20100 00029158 0270007b  uf.z.......X.p.{
 0290 0bce0000 0002916c 0015d300 00000202  .......l........
 02a0 00001689 00000013 00172f01 00000165  ........../....e
 02b0 0d040401 00e40000 00019c59 02000004  ...........Y....
 02c0 76616c00 65256d00 00000291 4c026275  val.e%m.....L.bu
 02d0 6600670a f2010000 02915402 7000680b  f.g.......T.p.h.
 02e0 ce000000 02916c06 48040100 5c000000  ......l.H...\...
 02f0 03770100 006e1182 00000002 91680000  .w...n.......h..
 0300 18580100 00015f0a ad000000 c8030100  .X...._.........
 0310 3c000000 019c8c02 00000461 005f1cad  <..........a._..
 0320 00000002 916c0462 005f28ad 00000002  .....l.b._(.....
 0330 91680009 61010000 5211ad00 00005403  .h..a...R.....T.
 0340 01007400 0000019c cc020000 04610052  ..t..........a.R
 0350 1fad0000 0002915c 04620052 2bad0000  .......\.b.R+...
 0360 00029158 039c0100 00540ead 00000002  ...X.....T......
 0370 916c0009 98000000 3e166d00 0000ac02  .l......>.m.....
 0380 0100a800 0000019c 26030000 07260100  ........&....&..
 0390 003e296d 00000002 915c0794 0100003e  .>)m.....\.....>
 03a0 416d0000 00029158 03d70100 0043136d  Am.....X.....C.m
 03b0 00000002 916c06d8 02010064 00000002  .....l.....d....
 03c0 6900450e 82000000 02916800 00093901  i.E.......h...9.
 03d0 00002916 6d000000 e8010100 c4000000  ..).m...........
 03e0 019c8e03 00000726 01000029 296d0000  .......&...))m..
 03f0 0002915c 07940100 0029416d 00000002  ...\.....)Am....
 0400 9158039d 0000002e 136d0000 0002916c  .X.......m.....l
 0410 03d70100 002f136d 00000002 91680618  ...../.m.....h..
 0420 0201007c 00000002 6900310e 82000000  ...|....i.1.....
 0430 02916400 0019b101 0000051f 09cc0000  ..d.............
 0440 00700101 00780000 00019ce9 03000007  .p...x..........
 0450 08010000 1f14cc00 00000291 5c047372  ............\.sr
 0460 63001f26 da000000 02915804 6e001f32  c..&......X.n..2
 0470 b9000000 02915402 6400210e e9030000  ......T.d.!.....
 0480 02916c02 73002214 ee030000 02916800  ..l.s.".......h.
 0490 08900000 00089c00 000000             ...........     
Contents of section .debug_abbrev:
 0000 01110110 06110112 01030e1b 0e250e13  .............%..
 0010 05000002 2e00030e 3f0c1101 12010000  ........?.......
 0020 00011100 10061101 1201030e 1b0e250e  ..............%.
 0030 13050000 00011100 10061101 1201030e  ................
 0040 1b0e250e 13050000 00011100 10061101  ..%.............
 0050 1201030e 1b0e250e 13050000 00012400  ......%.......$.
 0060 0b0b3e0b 030e0000 02340003 083a2101  ..>......4...:!.
 0070 3b0b390b 49130218 00000334 00030e3a  ;.9.I......4...:
 0080 21013b0b 390b4913 02180000 04050003  !.;.9.I.........
 0090 083a2101 3b0b390b 49130218 00000516  .:!.;.9.I.......
 00a0 00030e3a 0b3b0b39 0b491300 00060b01  ...:.;.9.I......
 00b0 11011206 00000705 00030e3a 21013b0b  ...........:!.;.
 00c0 390b4913 02180000 080f000b 21044913  9.I.........!.I.
 00d0 0000092e 01030e3a 21013b0b 390b2719  .......:!.;.9.'.
 00e0 49131101 12064018 7a190113 00000a2e  I.....@.z.......
 00f0 013f1903 0e3a2101 3b0b390b 27194913  .?...:!.;.9.'.I.
 0100 3c190113 00000b05 00491300 000c1101  <........I......
 0110 250e130b 031f1b1f 11011206 10170000  %...............
 0120 0d24000b 0b3e0b03 0800000e 26004913  .$...>......&.I.
 0130 00000f0f 000b0b00 00102600 00001116  ..........&.....
 0140 0003083a 0b3b0b39 0b491300 00122e00  ...:.;.9.I......
 0150 3f19030e 3a0b3b0b 390b2719 49131101  ?...:.;.9.'.I...
 0160 12064018 7c190000 132e0103 0e3a0b3b  ..@.|........:.;
 0170 0b390b27 19491311 01120640 187c1901  .9.'.I.....@.|..
 0180 13000014 2e01030e 3a0b3b0b 390b2719  ........:.;.9.'.
 0190 11011206 40187c19 01130000 15010149  ....@.|........I
 01a0 13011300 00162100 49132f0b 0000172e  ......!.I./.....
 01b0 01030e3a 0b3b0b39 0b271911 01120640  ...:.;.9.'.....@
 01c0 187a1901 13000018 2e013f19 030e3a0b  .z........?...:.
 01d0 3b0b390b 27194913 11011206 40187c19  ;.9.'.I.....@.|.
 01e0 01130000 192e013f 19030e3a 0b3b0b39  .......?...:.;.9
 01f0 0b271949 13110112 0640187a 19011300  .'.I.....@.z....
 0200 0000                                 ..              
Contents of section .debug_aranges:
 0000 1c000000 02000000 00000400 00000000  ................
 0010 00000100 3c000000 00000000 00000000  ....<...........
 0020 1c000000 02003500 00000400 00000000  ......5.........
 0030 3c000100 30000000 00000000 00000000  <...0...........
 0040 1c000000 02005b00 00000400 00000000  ......[.........
 0050 6c000100 b8000000 00000000 00000000  l...............
 0060 1c000000 02008100 00000400 00000000  ................
 0070 24010100 4c000000 00000000 00000000  $...L...........
 0080 1c000000 0200a700 00000400 00000000  ................
 0090 70010100 a4070000 00000000 00000000  p...............
Contents of section .debug_str:
 0000 73746172 742e5300 2f686f6d 652f6766  start.S./home/gf
 0010 6667332f 72697363 762d6e6f 6e652d65  fg3/riscv-none-e
 0020 6c662d67 63632f72 76333265 6d753031  lf-gcc/rv32emu01
 0030 30322f72 76333265 6d752f74 65737473  02/rv32emu/tests
 0040 2f737973 74656d2f 686f6d65 776f726b  /system/homework
 0050 3100474e 55204153 20322e34 332e3100  1.GNU AS 2.43.1.
 0060 5f737461 72740075 66385f64 65636f64  _start.uf8_decod
 0070 652e5300 7566385f 656e636f 64652e53  e.S.uf8_encode.S
 0080 00636c7a 2e53005f 5f75696e 74385f74  .clz.S.__uint8_t
 0090 0073697a 655f7400 756d6f64 0071756f  .size_t.umod.quo
 00a0 7469656e 74007368 6f727420 756e7369  tient.short unsi
 00b0 676e6564 20696e74 005f5f69 6e743332  gned int.__int32
 00c0 5f740047 4e552043 31372031 342e322e  _t.GNU C17 14.2.
 00d0 30202d6d 6162693d 696c7033 32202d6d  0 -mabi=ilp32 -m
 00e0 6973612d 73706563 3d323031 39313231  isa-spec=2019121
 00f0 33202d6d 61726368 3d727633 32695f7a  3 -march=rv32i_z
 0100 69637372 202d6700 64657374 00756e73  icsr -g.dest.uns
 0110 69676e65 64206368 61720075 66385f65  igned char.uf8_e
 0120 6e636f64 65006469 76696465 6e640070  ncode.dividend.p
 0130 72696e74 5f686578 00756469 76005f5f  rint_hex.udiv.__
 0140 75696e74 33325f74 00707265 76696f75  uint32_t.previou
 0150 735f7661 6c756500 5f5f6d75 6c736933  s_value.__mulsi3
 0160 00756d75 6c006d61 696e0070 61737365  .umul.main.passe
 0170 64007465 73740064 69676974 006c6f6e  d.test.digit.lon
 0180 67206c6f 6e672075 6e736967 6e656420  g long unsigned 
 0190 696e7400 64697669 736f7200 72657375  int.divisor.resu
 01a0 6c74006c 6f6e6720 6c6f6e67 20696e74  lt.long long int
 01b0 006d656d 63707900 73686f72 7420696e  .memcpy.short in
 01c0 74007566 385f6465 636f6465 00707269  t.uf8_decode.pri
 01d0 6e745f64 65630072 656d6169 6e646572  nt_dec.remainder
 01e0 006c6f6e 6720646f 75626c65 005f426f  .long double._Bo
 01f0 6f6c00                               ol.             
Contents of section .debug_line_str:
 0000 6d61696e 2e63002f 686f6d65 2f676666  main.c./home/gff
 0010 67332f72 69736376 2d6e6f6e 652d656c  g3/riscv-none-el
 0020 662d6763 632f7276 3332656d 75303130  f-gcc/rv32emu010
 0030 322f7276 3332656d 752f7465 7374732f  2/rv32emu/tests/
 0040 73797374 656d2f68 6f6d6577 6f726b31  system/homework1
 0050 002f686f 6d652f67 66666733 2f726973  ./home/gffg3/ris
 0060 63762d6e 6f6e652d 656c662d 6763632f  cv-none-elf-gcc/
 0070 78706163 6b2d7269 7363762d 6e6f6e65  xpack-riscv-none
 0080 2d656c66 2d676363 2d31342e 322e302d  -elf-gcc-14.2.0-
 0090 332f7269 7363762d 6e6f6e65 2d656c66  3/riscv-none-elf
 00a0 2f696e63 6c756465 2f6d6163 68696e65  /include/machine
 00b0 002f686f 6d652f67 66666733 2f726973  ./home/gffg3/ris
 00c0 63762d6e 6f6e652d 656c662d 6763632f  cv-none-elf-gcc/
 00d0 78706163 6b2d7269 7363762d 6e6f6e65  xpack-riscv-none
 00e0 2d656c66 2d676363 2d31342e 322e302d  -elf-gcc-14.2.0-
 00f0 332f7269 7363762d 6e6f6e65 2d656c66  3/riscv-none-elf
 0100 2f696e63 6c756465 2f737973 002f686f  /include/sys./ho
 0110 6d652f67 66666733 2f726973 63762d6e  me/gffg3/riscv-n
 0120 6f6e652d 656c662d 6763632f 78706163  one-elf-gcc/xpac
 0130 6b2d7269 7363762d 6e6f6e65 2d656c66  k-riscv-none-elf
 0140 2d676363 2d31342e 322e302d 332f6c69  -gcc-14.2.0-3/li
 0150 622f6763 632f7269 7363762d 6e6f6e65  b/gcc/riscv-none
 0160 2d656c66 2f31342e 322e302f 696e636c  -elf/14.2.0/incl
 0170 75646500 2f686f6d 652f6766 6667332f  ude./home/gffg3/
 0180 72697363 762d6e6f 6e652d65 6c662d67  riscv-none-elf-g
 0190 63632f78 7061636b 2d726973 63762d6e  cc/xpack-riscv-n
 01a0 6f6e652d 656c662d 6763632d 31342e32  one-elf-gcc-14.2
 01b0 2e302d33 2f726973 63762d6e 6f6e652d  .0-3/riscv-none-
 01c0 656c662f 696e636c 75646500 5f646566  elf/include._def
 01d0 61756c74 5f747970 65732e68 005f7374  ault_types.h._st
 01e0 64696e74 2e680073 74646465 662e6800  dint.h.stddef.h.
 01f0 73747269 6e672e68 00                 string.h.       
Contents of section .debug_frame:
 0000 0c000000 ffffffff 0300017c 010c0200  ...........|....
 0010 24000000 00000000 70010100 78000000  $.......p...x...
 0020 440e3048 81018802 440c0800 025cc144  D.0H....D....\.D
 0030 c80c0230 440e0000 24000000 00000000  ...0D...$.......
 0040 e8010100 c4000000 440e3048 81018802  ........D.0H....
 0050 440c0800 02a8c144 c80c0230 440e0000  D......D...0D...
 0060 24000000 00000000 ac020100 a8000000  $...............
 0070 440e3048 81018802 440c0800 028cc144  D.0H....D......D
 0080 c80c0230 440e0000 24000000 00000000  ...0D...$.......
 0090 54030100 74000000 440e3048 81018802  T...t...D.0H....
 00a0 440c0800 0258c144 c80c0230 440e0000  D....X.D...0D...
 00b0 24000000 00000000 c8030100 3c000000  $...........<...
 00c0 440e2048 81018802 440c0800 60c144c8  D. H....D...`.D.
 00d0 0c022044 0e000000 24000000 00000000  .. D....$.......
 00e0 04040100 e4000000 440e4048 81018802  ........D.@H....
 00f0 440c0800 02c8c144 c80c0240 440e0000  D......D...@D...
 0100 24000000 00000000 e8040100 c8000000  $...............
 0110 440e4048 81018802 440c0800 02acc144  D.@H....D......D
 0120 c80c0240 440e0000 24000000 00000000  ...@D...$.......
 0130 b0050100 e8020000 440e3048 81018802  ........D.0H....
 0140 440c0800 03cc02c1 44c80c02 30440e00  D.......D...0D..
 0150 24000000 00000000 98080100 7c000000  $...........|...
 0160 440e1048 81018802 440c0800 0260c144  D..H....D....`.D
 0170 c80c0210 440e0000                    ....D...        

Disassembly of section .text:

00010000 <_start>:
   10000:	00002117          	auipc	sp,0x2
   10004:	a0010113          	addi	sp,sp,-1536 # 11a00 <__stack_top>
   10008:	00001297          	auipc	t0,0x1
   1000c:	9ed28293          	addi	t0,t0,-1555 # 109f5 <__bss_end>
   10010:	00001317          	auipc	t1,0x1
   10014:	9e530313          	addi	t1,t1,-1563 # 109f5 <__bss_end>
   10018:	0062d863          	bge	t0,t1,10028 <_start+0x28>
   1001c:	0002a023          	sw	zero,0(t0)
   10020:	00428293          	addi	t0,t0,4
   10024:	ff5ff06f          	j	10018 <_start+0x18>
   10028:	071000ef          	jal	10898 <main>
   1002c:	05d00893          	li	a7,93
   10030:	00000513          	li	a0,0
   10034:	00000073          	ecall
   10038:	0000006f          	j	10038 <_start+0x38>

0001003c <uf8_decode>:
   1003c:	00f57293          	andi	t0,a0,15
   10040:	00455313          	srli	t1,a0,0x4
   10044:	00f00393          	li	t2,15
   10048:	406383b3          	sub	t2,t2,t1
   1004c:	07f00e13          	li	t3,127
   10050:	008e1e13          	slli	t3,t3,0x8
   10054:	0ffe6e13          	ori	t3,t3,255
   10058:	007e5e33          	srl	t3,t3,t2
   1005c:	004e1e13          	slli	t3,t3,0x4
   10060:	00629533          	sll	a0,t0,t1
   10064:	01c50533          	add	a0,a0,t3
   10068:	00008067          	ret

0001006c <uf8_encode>:
   1006c:	01000e93          	li	t4,16
   10070:	0bd54863          	blt	a0,t4,10120 <encode_return_lt16>

00010074 <encode_ge16>:
   10074:	ff810113          	addi	sp,sp,-8
   10078:	00112023          	sw	ra,0(sp)
   1007c:	00812223          	sw	s0,4(sp)
   10080:	00050413          	mv	s0,a0
   10084:	0a0000ef          	jal	10124 <clz>
   10088:	00050293          	mv	t0,a0
   1008c:	01f00313          	li	t1,31
   10090:	40530333          	sub	t1,t1,t0
   10094:	00000393          	li	t2,0
   10098:	00000e13          	li	t3,0
   1009c:	00500e93          	li	t4,5

000100a0 <encode_if_1>:
   100a0:	05d34063          	blt	t1,t4,100e0 <encode_while_2>
   100a4:	ffc30393          	addi	t2,t1,-4

000100a8 <encode_if_2>:
   100a8:	00f00e93          	li	t4,15
   100ac:	007ed463          	bge	t4,t2,100b4 <encode_for_1>
   100b0:	00f00393          	li	t2,15

000100b4 <encode_for_1>:
   100b4:	00100e93          	li	t4,1
   100b8:	007e9eb3          	sll	t4,t4,t2
   100bc:	fffe8e93          	addi	t4,t4,-1
   100c0:	004e9e93          	slli	t4,t4,0x4
   100c4:	000e8e13          	mv	t3,t4

000100c8 <encode_while_1>:
   100c8:	00038c63          	beqz	t2,100e0 <encode_while_2>
   100cc:	01c45a63          	bge	s0,t3,100e0 <encode_while_2>
   100d0:	ff0e0e13          	addi	t3,t3,-16
   100d4:	001e5e13          	srli	t3,t3,0x1
   100d8:	fff38393          	addi	t2,t2,-1
   100dc:	fedff06f          	j	100c8 <encode_while_1>

000100e0 <encode_while_2>:
   100e0:	00f00e93          	li	t4,15
   100e4:	01d3de63          	bge	t2,t4,10100 <encode_return>
   100e8:	001e1f93          	slli	t6,t3,0x1
   100ec:	010f8f93          	addi	t6,t6,16

000100f0 <encode_if_3>:
   100f0:	01f44863          	blt	s0,t6,10100 <encode_return>
   100f4:	000f8e13          	mv	t3,t6
   100f8:	00138393          	addi	t2,t2,1
   100fc:	fe5ff06f          	j	100e0 <encode_while_2>

00010100 <encode_return>:
   10100:	41c40f33          	sub	t5,s0,t3
   10104:	007f5f33          	srl	t5,t5,t2
   10108:	00439513          	slli	a0,t2,0x4
   1010c:	01e56533          	or	a0,a0,t5
   10110:	00412403          	lw	s0,4(sp)
   10114:	00012083          	lw	ra,0(sp)
   10118:	00810113          	addi	sp,sp,8
   1011c:	00008067          	ret

00010120 <encode_return_lt16>:
   10120:	00008067          	ret

00010124 <clz>:
   10124:	02050663          	beqz	a0,10150 <clz_equal_zero>
   10128:	02000293          	li	t0,32
   1012c:	01000313          	li	t1,16

00010130 <clz_while>:
   10130:	006553b3          	srl	t2,a0,t1
   10134:	00038663          	beqz	t2,10140 <clz_skip>
   10138:	406282b3          	sub	t0,t0,t1
   1013c:	00038513          	mv	a0,t2

00010140 <clz_skip>:
   10140:	00135313          	srli	t1,t1,0x1
   10144:	fe0316e3          	bnez	t1,10130 <clz_while>

00010148 <clz_ret>:
   10148:	40a28533          	sub	a0,t0,a0
   1014c:	00008067          	ret

00010150 <clz_equal_zero>:
   10150:	00100513          	li	a0,1
   10154:	00000597          	auipc	a1,0x0
   10158:	7c058593          	addi	a1,a1,1984 # 10914 <undefined>
   1015c:	01400613          	li	a2,20
   10160:	04000893          	li	a7,64
   10164:	00000073          	ecall
   10168:	fff00513          	li	a0,-1
   1016c:	00008067          	ret

00010170 <memcpy>:
   10170:	fd010113          	addi	sp,sp,-48
   10174:	02112623          	sw	ra,44(sp)
   10178:	02812423          	sw	s0,40(sp)
   1017c:	03010413          	addi	s0,sp,48
   10180:	fca42e23          	sw	a0,-36(s0)
   10184:	fcb42c23          	sw	a1,-40(s0)
   10188:	fcc42a23          	sw	a2,-44(s0)
   1018c:	fdc42783          	lw	a5,-36(s0)
   10190:	fef42623          	sw	a5,-20(s0)
   10194:	fd842783          	lw	a5,-40(s0)
   10198:	fef42423          	sw	a5,-24(s0)
   1019c:	0240006f          	j	101c0 <memcpy+0x50>
   101a0:	fe842703          	lw	a4,-24(s0)
   101a4:	00170793          	addi	a5,a4,1
   101a8:	fef42423          	sw	a5,-24(s0)
   101ac:	fec42783          	lw	a5,-20(s0)
   101b0:	00178693          	addi	a3,a5,1
   101b4:	fed42623          	sw	a3,-20(s0)
   101b8:	00074703          	lbu	a4,0(a4)
   101bc:	00e78023          	sb	a4,0(a5)
   101c0:	fd442783          	lw	a5,-44(s0)
   101c4:	fff78713          	addi	a4,a5,-1
   101c8:	fce42a23          	sw	a4,-44(s0)
   101cc:	fc079ae3          	bnez	a5,101a0 <memcpy+0x30>
   101d0:	fdc42783          	lw	a5,-36(s0)
   101d4:	00078513          	mv	a0,a5
   101d8:	02c12083          	lw	ra,44(sp)
   101dc:	02812403          	lw	s0,40(sp)
   101e0:	03010113          	addi	sp,sp,48
   101e4:	00008067          	ret

000101e8 <udiv>:
   101e8:	fd010113          	addi	sp,sp,-48
   101ec:	02112623          	sw	ra,44(sp)
   101f0:	02812423          	sw	s0,40(sp)
   101f4:	03010413          	addi	s0,sp,48
   101f8:	fca42e23          	sw	a0,-36(s0)
   101fc:	fcb42c23          	sw	a1,-40(s0)
   10200:	fd842783          	lw	a5,-40(s0)
   10204:	00079663          	bnez	a5,10210 <udiv+0x28>
   10208:	00000793          	li	a5,0
   1020c:	08c0006f          	j	10298 <udiv+0xb0>
   10210:	fe042623          	sw	zero,-20(s0)
   10214:	fe042423          	sw	zero,-24(s0)
   10218:	01f00793          	li	a5,31
   1021c:	fef42223          	sw	a5,-28(s0)
   10220:	06c0006f          	j	1028c <udiv+0xa4>
   10224:	fe842783          	lw	a5,-24(s0)
   10228:	00179793          	slli	a5,a5,0x1
   1022c:	fef42423          	sw	a5,-24(s0)
   10230:	fe442783          	lw	a5,-28(s0)
   10234:	fdc42703          	lw	a4,-36(s0)
   10238:	00f757b3          	srl	a5,a4,a5
   1023c:	0017f793          	andi	a5,a5,1
   10240:	fe842703          	lw	a4,-24(s0)
   10244:	00f767b3          	or	a5,a4,a5
   10248:	fef42423          	sw	a5,-24(s0)
   1024c:	fe842703          	lw	a4,-24(s0)
   10250:	fd842783          	lw	a5,-40(s0)
   10254:	02f76663          	bltu	a4,a5,10280 <udiv+0x98>
   10258:	fe842703          	lw	a4,-24(s0)
   1025c:	fd842783          	lw	a5,-40(s0)
   10260:	40f707b3          	sub	a5,a4,a5
   10264:	fef42423          	sw	a5,-24(s0)
   10268:	fe442783          	lw	a5,-28(s0)
   1026c:	00100713          	li	a4,1
   10270:	00f717b3          	sll	a5,a4,a5
   10274:	fec42703          	lw	a4,-20(s0)
   10278:	00f767b3          	or	a5,a4,a5
   1027c:	fef42623          	sw	a5,-20(s0)
   10280:	fe442783          	lw	a5,-28(s0)
   10284:	fff78793          	addi	a5,a5,-1
   10288:	fef42223          	sw	a5,-28(s0)
   1028c:	fe442783          	lw	a5,-28(s0)
   10290:	f807dae3          	bgez	a5,10224 <udiv+0x3c>
   10294:	fec42783          	lw	a5,-20(s0)
   10298:	00078513          	mv	a0,a5
   1029c:	02c12083          	lw	ra,44(sp)
   102a0:	02812403          	lw	s0,40(sp)
   102a4:	03010113          	addi	sp,sp,48
   102a8:	00008067          	ret

000102ac <umod>:
   102ac:	fd010113          	addi	sp,sp,-48
   102b0:	02112623          	sw	ra,44(sp)
   102b4:	02812423          	sw	s0,40(sp)
   102b8:	03010413          	addi	s0,sp,48
   102bc:	fca42e23          	sw	a0,-36(s0)
   102c0:	fcb42c23          	sw	a1,-40(s0)
   102c4:	fd842783          	lw	a5,-40(s0)
   102c8:	00079663          	bnez	a5,102d4 <umod+0x28>
   102cc:	00000793          	li	a5,0
   102d0:	0700006f          	j	10340 <umod+0x94>
   102d4:	fe042623          	sw	zero,-20(s0)
   102d8:	01f00793          	li	a5,31
   102dc:	fef42423          	sw	a5,-24(s0)
   102e0:	0540006f          	j	10334 <umod+0x88>
   102e4:	fec42783          	lw	a5,-20(s0)
   102e8:	00179793          	slli	a5,a5,0x1
   102ec:	fef42623          	sw	a5,-20(s0)
   102f0:	fe842783          	lw	a5,-24(s0)
   102f4:	fdc42703          	lw	a4,-36(s0)
   102f8:	00f757b3          	srl	a5,a4,a5
   102fc:	0017f793          	andi	a5,a5,1
   10300:	fec42703          	lw	a4,-20(s0)
   10304:	00f767b3          	or	a5,a4,a5
   10308:	fef42623          	sw	a5,-20(s0)
   1030c:	fec42703          	lw	a4,-20(s0)
   10310:	fd842783          	lw	a5,-40(s0)
   10314:	00f76a63          	bltu	a4,a5,10328 <umod+0x7c>
   10318:	fec42703          	lw	a4,-20(s0)
   1031c:	fd842783          	lw	a5,-40(s0)
   10320:	40f707b3          	sub	a5,a4,a5
   10324:	fef42623          	sw	a5,-20(s0)
   10328:	fe842783          	lw	a5,-24(s0)
   1032c:	fff78793          	addi	a5,a5,-1
   10330:	fef42423          	sw	a5,-24(s0)
   10334:	fe842783          	lw	a5,-24(s0)
   10338:	fa07d6e3          	bgez	a5,102e4 <umod+0x38>
   1033c:	fec42783          	lw	a5,-20(s0)
   10340:	00078513          	mv	a0,a5
   10344:	02c12083          	lw	ra,44(sp)
   10348:	02812403          	lw	s0,40(sp)
   1034c:	03010113          	addi	sp,sp,48
   10350:	00008067          	ret

00010354 <umul>:
   10354:	fd010113          	addi	sp,sp,-48
   10358:	02112623          	sw	ra,44(sp)
   1035c:	02812423          	sw	s0,40(sp)
   10360:	03010413          	addi	s0,sp,48
   10364:	fca42e23          	sw	a0,-36(s0)
   10368:	fcb42c23          	sw	a1,-40(s0)
   1036c:	fe042623          	sw	zero,-20(s0)
   10370:	0380006f          	j	103a8 <umul+0x54>
   10374:	fd842783          	lw	a5,-40(s0)
   10378:	0017f793          	andi	a5,a5,1
   1037c:	00078a63          	beqz	a5,10390 <umul+0x3c>
   10380:	fec42703          	lw	a4,-20(s0)
   10384:	fdc42783          	lw	a5,-36(s0)
   10388:	00f707b3          	add	a5,a4,a5
   1038c:	fef42623          	sw	a5,-20(s0)
   10390:	fdc42783          	lw	a5,-36(s0)
   10394:	00179793          	slli	a5,a5,0x1
   10398:	fcf42e23          	sw	a5,-36(s0)
   1039c:	fd842783          	lw	a5,-40(s0)
   103a0:	0017d793          	srli	a5,a5,0x1
   103a4:	fcf42c23          	sw	a5,-40(s0)
   103a8:	fd842783          	lw	a5,-40(s0)
   103ac:	fc0794e3          	bnez	a5,10374 <umul+0x20>
   103b0:	fec42783          	lw	a5,-20(s0)
   103b4:	00078513          	mv	a0,a5
   103b8:	02c12083          	lw	ra,44(sp)
   103bc:	02812403          	lw	s0,40(sp)
   103c0:	03010113          	addi	sp,sp,48
   103c4:	00008067          	ret

000103c8 <__mulsi3>:
   103c8:	fe010113          	addi	sp,sp,-32
   103cc:	00112e23          	sw	ra,28(sp)
   103d0:	00812c23          	sw	s0,24(sp)
   103d4:	02010413          	addi	s0,sp,32
   103d8:	fea42623          	sw	a0,-20(s0)
   103dc:	feb42423          	sw	a1,-24(s0)
   103e0:	fe842583          	lw	a1,-24(s0)
   103e4:	fec42503          	lw	a0,-20(s0)
   103e8:	f6dff0ef          	jal	10354 <umul>
   103ec:	00050793          	mv	a5,a0
   103f0:	00078513          	mv	a0,a5
   103f4:	01c12083          	lw	ra,28(sp)
   103f8:	01812403          	lw	s0,24(sp)
   103fc:	02010113          	addi	sp,sp,32
   10400:	00008067          	ret

00010404 <print_hex>:
   10404:	fc010113          	addi	sp,sp,-64
   10408:	02112e23          	sw	ra,60(sp)
   1040c:	02812c23          	sw	s0,56(sp)
   10410:	04010413          	addi	s0,sp,64
   10414:	fca42623          	sw	a0,-52(s0)
   10418:	fd440793          	addi	a5,s0,-44
   1041c:	01478793          	addi	a5,a5,20
   10420:	fef42623          	sw	a5,-20(s0)
   10424:	fcc42783          	lw	a5,-52(s0)
   10428:	06079e63          	bnez	a5,104a4 <print_hex+0xa0>
   1042c:	fec42783          	lw	a5,-20(s0)
   10430:	fff78793          	addi	a5,a5,-1
   10434:	fef42623          	sw	a5,-20(s0)
   10438:	fec42783          	lw	a5,-20(s0)
   1043c:	03000713          	li	a4,48
   10440:	00e78023          	sb	a4,0(a5)
   10444:	0680006f          	j	104ac <print_hex+0xa8>
   10448:	fcc42783          	lw	a5,-52(s0)
   1044c:	00f7f793          	andi	a5,a5,15
   10450:	fef42423          	sw	a5,-24(s0)
   10454:	fe842703          	lw	a4,-24(s0)
   10458:	00900793          	li	a5,9
   1045c:	00e7cc63          	blt	a5,a4,10474 <print_hex+0x70>
   10460:	fe842783          	lw	a5,-24(s0)
   10464:	0ff7f793          	zext.b	a5,a5
   10468:	03078793          	addi	a5,a5,48
   1046c:	0ff7f793          	zext.b	a5,a5
   10470:	0140006f          	j	10484 <print_hex+0x80>
   10474:	fe842783          	lw	a5,-24(s0)
   10478:	0ff7f793          	zext.b	a5,a5
   1047c:	05778793          	addi	a5,a5,87
   10480:	0ff7f793          	zext.b	a5,a5
   10484:	fec42703          	lw	a4,-20(s0)
   10488:	fff70713          	addi	a4,a4,-1
   1048c:	fee42623          	sw	a4,-20(s0)
   10490:	fec42703          	lw	a4,-20(s0)
   10494:	00f70023          	sb	a5,0(a4)
   10498:	fcc42783          	lw	a5,-52(s0)
   1049c:	0047d793          	srli	a5,a5,0x4
   104a0:	fcf42623          	sw	a5,-52(s0)
   104a4:	fcc42783          	lw	a5,-52(s0)
   104a8:	fa0790e3          	bnez	a5,10448 <print_hex+0x44>
   104ac:	fd440793          	addi	a5,s0,-44
   104b0:	01478793          	addi	a5,a5,20
   104b4:	fec42703          	lw	a4,-20(s0)
   104b8:	40e78733          	sub	a4,a5,a4
   104bc:	fec42783          	lw	a5,-20(s0)
   104c0:	04000893          	li	a7,64
   104c4:	00100513          	li	a0,1
   104c8:	00f005b3          	add	a1,zero,a5
   104cc:	00070613          	mv	a2,a4
   104d0:	00000073          	ecall
   104d4:	00000013          	nop
   104d8:	03c12083          	lw	ra,60(sp)
   104dc:	03812403          	lw	s0,56(sp)
   104e0:	04010113          	addi	sp,sp,64
   104e4:	00008067          	ret

000104e8 <print_dec>:
   104e8:	fc010113          	addi	sp,sp,-64
   104ec:	02112e23          	sw	ra,60(sp)
   104f0:	02812c23          	sw	s0,56(sp)
   104f4:	04010413          	addi	s0,sp,64
   104f8:	fca42623          	sw	a0,-52(s0)
   104fc:	fd840793          	addi	a5,s0,-40
   10500:	01478793          	addi	a5,a5,20
   10504:	fef42623          	sw	a5,-20(s0)
   10508:	fcc42783          	lw	a5,-52(s0)
   1050c:	06079063          	bnez	a5,1056c <print_dec+0x84>
   10510:	fec42783          	lw	a5,-20(s0)
   10514:	fff78793          	addi	a5,a5,-1
   10518:	fef42623          	sw	a5,-20(s0)
   1051c:	fec42783          	lw	a5,-20(s0)
   10520:	03000713          	li	a4,48
   10524:	00e78023          	sb	a4,0(a5)
   10528:	04c0006f          	j	10574 <print_dec+0x8c>
   1052c:	00a00593          	li	a1,10
   10530:	fcc42503          	lw	a0,-52(s0)
   10534:	d79ff0ef          	jal	102ac <umod>
   10538:	00050793          	mv	a5,a0
   1053c:	0ff7f793          	zext.b	a5,a5
   10540:	fec42703          	lw	a4,-20(s0)
   10544:	fff70713          	addi	a4,a4,-1
   10548:	fee42623          	sw	a4,-20(s0)
   1054c:	03078793          	addi	a5,a5,48
   10550:	0ff7f713          	zext.b	a4,a5
   10554:	fec42783          	lw	a5,-20(s0)
   10558:	00e78023          	sb	a4,0(a5)
   1055c:	00a00593          	li	a1,10
   10560:	fcc42503          	lw	a0,-52(s0)
   10564:	c85ff0ef          	jal	101e8 <udiv>
   10568:	fca42623          	sw	a0,-52(s0)
   1056c:	fcc42783          	lw	a5,-52(s0)
   10570:	fa079ee3          	bnez	a5,1052c <print_dec+0x44>
   10574:	fd840793          	addi	a5,s0,-40
   10578:	01478793          	addi	a5,a5,20
   1057c:	fec42703          	lw	a4,-20(s0)
   10580:	40e78733          	sub	a4,a5,a4
   10584:	fec42783          	lw	a5,-20(s0)
   10588:	04000893          	li	a7,64
   1058c:	00100513          	li	a0,1
   10590:	00f005b3          	add	a1,zero,a5
   10594:	00070613          	mv	a2,a4
   10598:	00000073          	ecall
   1059c:	00000013          	nop
   105a0:	03c12083          	lw	ra,60(sp)
   105a4:	03812403          	lw	s0,56(sp)
   105a8:	04010113          	addi	sp,sp,64
   105ac:	00008067          	ret

000105b0 <test>:
   105b0:	fd010113          	addi	sp,sp,-48
   105b4:	02112623          	sw	ra,44(sp)
   105b8:	02812423          	sw	s0,40(sp)
   105bc:	03010413          	addi	s0,sp,48
   105c0:	fff00793          	li	a5,-1
   105c4:	fef42623          	sw	a5,-20(s0)
   105c8:	00100793          	li	a5,1
   105cc:	fef405a3          	sb	a5,-21(s0)
   105d0:	000117b7          	lui	a5,0x11
   105d4:	92878793          	addi	a5,a5,-1752 # 10928 <undefined+0x14>
   105d8:	02100713          	li	a4,33
   105dc:	04000893          	li	a7,64
   105e0:	00100513          	li	a0,1
   105e4:	00f005b3          	add	a1,zero,a5
   105e8:	00070613          	mv	a2,a4
   105ec:	00000073          	ecall
   105f0:	fe042223          	sw	zero,-28(s0)
   105f4:	2800006f          	j	10874 <test+0x2c4>
   105f8:	fe442783          	lw	a5,-28(s0)
   105fc:	fef401a3          	sb	a5,-29(s0)
   10600:	fe344783          	lbu	a5,-29(s0)
   10604:	00078513          	mv	a0,a5
   10608:	a35ff0ef          	jal	1003c <uf8_decode>
   1060c:	00050793          	mv	a5,a0
   10610:	fcf42e23          	sw	a5,-36(s0)
   10614:	fdc42783          	lw	a5,-36(s0)
   10618:	00078513          	mv	a0,a5
   1061c:	a51ff0ef          	jal	1006c <uf8_encode>
   10620:	00050793          	mv	a5,a0
   10624:	fcf40da3          	sb	a5,-37(s0)
   10628:	000117b7          	lui	a5,0x11
   1062c:	94c78793          	addi	a5,a5,-1716 # 1094c <undefined+0x38>
   10630:	00500713          	li	a4,5
   10634:	04000893          	li	a7,64
   10638:	00100513          	li	a0,1
   1063c:	00f005b3          	add	a1,zero,a5
   10640:	00070613          	mv	a2,a4
   10644:	00000073          	ecall
   10648:	fe442783          	lw	a5,-28(s0)
   1064c:	00078513          	mv	a0,a5
   10650:	e99ff0ef          	jal	104e8 <print_dec>
   10654:	000117b7          	lui	a5,0x11
   10658:	95478793          	addi	a5,a5,-1708 # 10954 <undefined+0x40>
   1065c:	00900713          	li	a4,9
   10660:	04000893          	li	a7,64
   10664:	00100513          	li	a0,1
   10668:	00f005b3          	add	a1,zero,a5
   1066c:	00070613          	mv	a2,a4
   10670:	00000073          	ecall
   10674:	fe344783          	lbu	a5,-29(s0)
   10678:	00078513          	mv	a0,a5
   1067c:	d89ff0ef          	jal	10404 <print_hex>
   10680:	000117b7          	lui	a5,0x11
   10684:	96078793          	addi	a5,a5,-1696 # 10960 <undefined+0x4c>
   10688:	00c00713          	li	a4,12
   1068c:	04000893          	li	a7,64
   10690:	00100513          	li	a0,1
   10694:	00f005b3          	add	a1,zero,a5
   10698:	00070613          	mv	a2,a4
   1069c:	00000073          	ecall
   106a0:	fdc42783          	lw	a5,-36(s0)
   106a4:	00078513          	mv	a0,a5
   106a8:	e41ff0ef          	jal	104e8 <print_dec>
   106ac:	000117b7          	lui	a5,0x11
   106b0:	97078793          	addi	a5,a5,-1680 # 10970 <undefined+0x5c>
   106b4:	00b00713          	li	a4,11
   106b8:	04000893          	li	a7,64
   106bc:	00100513          	li	a0,1
   106c0:	00f005b3          	add	a1,zero,a5
   106c4:	00070613          	mv	a2,a4
   106c8:	00000073          	ecall
   106cc:	fdb44783          	lbu	a5,-37(s0)
   106d0:	00078513          	mv	a0,a5
   106d4:	d31ff0ef          	jal	10404 <print_hex>
   106d8:	000117b7          	lui	a5,0x11
   106dc:	98078793          	addi	a5,a5,-1664 # 10980 <undefined+0x6c>
   106e0:	00100713          	li	a4,1
   106e4:	04000893          	li	a7,64
   106e8:	00100513          	li	a0,1
   106ec:	00f005b3          	add	a1,zero,a5
   106f0:	00070613          	mv	a2,a4
   106f4:	00000073          	ecall
   106f8:	fe344703          	lbu	a4,-29(s0)
   106fc:	fdb44783          	lbu	a5,-37(s0)
   10700:	0af70663          	beq	a4,a5,107ac <test+0x1fc>
   10704:	000117b7          	lui	a5,0x11
   10708:	98478793          	addi	a5,a5,-1660 # 10984 <undefined+0x70>
   1070c:	00200713          	li	a4,2
   10710:	04000893          	li	a7,64
   10714:	00100513          	li	a0,1
   10718:	00f005b3          	add	a1,zero,a5
   1071c:	00070613          	mv	a2,a4
   10720:	00000073          	ecall
   10724:	fe344783          	lbu	a5,-29(s0)
   10728:	00078513          	mv	a0,a5
   1072c:	cd9ff0ef          	jal	10404 <print_hex>
   10730:	000117b7          	lui	a5,0x11
   10734:	98878793          	addi	a5,a5,-1656 # 10988 <undefined+0x74>
   10738:	00a00713          	li	a4,10
   1073c:	04000893          	li	a7,64
   10740:	00100513          	li	a0,1
   10744:	00f005b3          	add	a1,zero,a5
   10748:	00070613          	mv	a2,a4
   1074c:	00000073          	ecall
   10750:	fdc42783          	lw	a5,-36(s0)
   10754:	00078513          	mv	a0,a5
   10758:	d91ff0ef          	jal	104e8 <print_dec>
   1075c:	000117b7          	lui	a5,0x11
   10760:	99478793          	addi	a5,a5,-1644 # 10994 <undefined+0x80>
   10764:	01700713          	li	a4,23
   10768:	04000893          	li	a7,64
   1076c:	00100513          	li	a0,1
   10770:	00f005b3          	add	a1,zero,a5
   10774:	00070613          	mv	a2,a4
   10778:	00000073          	ecall
   1077c:	fdb44783          	lbu	a5,-37(s0)
   10780:	00078513          	mv	a0,a5
   10784:	c81ff0ef          	jal	10404 <print_hex>
   10788:	000117b7          	lui	a5,0x11
   1078c:	98078793          	addi	a5,a5,-1664 # 10980 <undefined+0x6c>
   10790:	00100713          	li	a4,1
   10794:	04000893          	li	a7,64
   10798:	00100513          	li	a0,1
   1079c:	00f005b3          	add	a1,zero,a5
   107a0:	00070613          	mv	a2,a4
   107a4:	00000073          	ecall
   107a8:	fe0405a3          	sb	zero,-21(s0)
   107ac:	fdc42703          	lw	a4,-36(s0)
   107b0:	fec42783          	lw	a5,-20(s0)
   107b4:	0ae7c663          	blt	a5,a4,10860 <test+0x2b0>
   107b8:	000117b7          	lui	a5,0x11
   107bc:	98478793          	addi	a5,a5,-1660 # 10984 <undefined+0x70>
   107c0:	00200713          	li	a4,2
   107c4:	04000893          	li	a7,64
   107c8:	00100513          	li	a0,1
   107cc:	00f005b3          	add	a1,zero,a5
   107d0:	00070613          	mv	a2,a4
   107d4:	00000073          	ecall
   107d8:	fe344783          	lbu	a5,-29(s0)
   107dc:	00078513          	mv	a0,a5
   107e0:	c25ff0ef          	jal	10404 <print_hex>
   107e4:	000117b7          	lui	a5,0x11
   107e8:	98878793          	addi	a5,a5,-1656 # 10988 <undefined+0x74>
   107ec:	00a00713          	li	a4,10
   107f0:	04000893          	li	a7,64
   107f4:	00100513          	li	a0,1
   107f8:	00f005b3          	add	a1,zero,a5
   107fc:	00070613          	mv	a2,a4
   10800:	00000073          	ecall
   10804:	fdc42783          	lw	a5,-36(s0)
   10808:	00078513          	mv	a0,a5
   1080c:	cddff0ef          	jal	104e8 <print_dec>
   10810:	000117b7          	lui	a5,0x11
   10814:	9ac78793          	addi	a5,a5,-1620 # 109ac <undefined+0x98>
   10818:	00d00713          	li	a4,13
   1081c:	04000893          	li	a7,64
   10820:	00100513          	li	a0,1
   10824:	00f005b3          	add	a1,zero,a5
   10828:	00070613          	mv	a2,a4
   1082c:	00000073          	ecall
   10830:	fec42783          	lw	a5,-20(s0)
   10834:	00078513          	mv	a0,a5
   10838:	cb1ff0ef          	jal	104e8 <print_dec>
   1083c:	000117b7          	lui	a5,0x11
   10840:	98078793          	addi	a5,a5,-1664 # 10980 <undefined+0x6c>
   10844:	00100713          	li	a4,1
   10848:	04000893          	li	a7,64
   1084c:	00100513          	li	a0,1
   10850:	00f005b3          	add	a1,zero,a5
   10854:	00070613          	mv	a2,a4
   10858:	00000073          	ecall
   1085c:	fe0405a3          	sb	zero,-21(s0)
   10860:	fdc42783          	lw	a5,-36(s0)
   10864:	fef42623          	sw	a5,-20(s0)
   10868:	fe442783          	lw	a5,-28(s0)
   1086c:	00178793          	addi	a5,a5,1
   10870:	fef42223          	sw	a5,-28(s0)
   10874:	fe442703          	lw	a4,-28(s0)
   10878:	0ff00793          	li	a5,255
   1087c:	d6e7dee3          	bge	a5,a4,105f8 <test+0x48>
   10880:	feb44783          	lbu	a5,-21(s0)
   10884:	00078513          	mv	a0,a5
   10888:	02c12083          	lw	ra,44(sp)
   1088c:	02812403          	lw	s0,40(sp)
   10890:	03010113          	addi	sp,sp,48
   10894:	00008067          	ret

00010898 <main>:
   10898:	ff010113          	addi	sp,sp,-16
   1089c:	00112623          	sw	ra,12(sp)
   108a0:	00812423          	sw	s0,8(sp)
   108a4:	01010413          	addi	s0,sp,16
   108a8:	d09ff0ef          	jal	105b0 <test>
   108ac:	00050793          	mv	a5,a0
   108b0:	02078663          	beqz	a5,108dc <main+0x44>
   108b4:	000117b7          	lui	a5,0x11
   108b8:	9bc78793          	addi	a5,a5,-1604 # 109bc <undefined+0xa8>
   108bc:	01b00713          	li	a4,27
   108c0:	04000893          	li	a7,64
   108c4:	00100513          	li	a0,1
   108c8:	00f005b3          	add	a1,zero,a5
   108cc:	00070613          	mv	a2,a4
   108d0:	00000073          	ecall
   108d4:	00000793          	li	a5,0
   108d8:	0280006f          	j	10900 <main+0x68>
   108dc:	000117b7          	lui	a5,0x11
   108e0:	9d878793          	addi	a5,a5,-1576 # 109d8 <undefined+0xc4>
   108e4:	01b00713          	li	a4,27
   108e8:	04000893          	li	a7,64
   108ec:	00100513          	li	a0,1
   108f0:	00f005b3          	add	a1,zero,a5
   108f4:	00070613          	mv	a2,a4
   108f8:	00000073          	ecall
   108fc:	00100793          	li	a5,1
   10900:	00078513          	mv	a0,a5
   10904:	00c12083          	lw	ra,12(sp)
   10908:	00812403          	lw	s0,8(sp)
   1090c:	01010113          	addi	sp,sp,16
   10910:	00008067          	ret
