riscv-none-elf-objdump -Ds test.elf | less

test.elf:     file format elf32-littleriscv

Contents of section .text:
 10000 17210000 13010122 97120000 93828221  .!.....".......!
 10010 17130000 13030321 63d86200 23a00200  .......!c.b.#...
 10020 93824200 6ff05fff ef00d048 9308d005  ..B.o._....H....
 10030 13050000 73000000 6f000000 130101fd  ....s...o.......
 10040 23261102 23248102 13040103 232ea4fc  #&..#$......#...
 10050 232cb4fc 232ac4fc 8327c4fd 2326f4fe  #,..#*...'..#&..
 10060 832784fd 2324f4fe 6f004002 032784fe  .'..#$..o.@..'..
 10070 93071700 2324f4fe 8327c4fe 93861700  ....#$...'......
 10080 2326d4fe 03470700 2380e700 832744fd  #&...G..#....'D.
 10090 1387f7ff 232ae4fc e39a07fc 8327c4fd  ....#*.......'..
 100a0 13850700 8320c102 03248102 13010103  ..... ...$......
 100b0 67800000 130101fd 23261102 23248102  g.......#&..#$..
 100c0 13040103 232ea4fc 232cb4fc 832784fd  ....#...#,...'..
 100d0 63960700 93070000 6f00c008 232604fe  c.......o...#&..
 100e0 232404fe 9307f001 2322f4fe 6f00c006  #$......#"..o...
 100f0 832784fe 93971700 2324f4fe 832744fe  .'......#$...'D.
 10100 0327c4fd b357f700 93f71700 032784fe  .'...W.......'..
 10110 b367f700 2324f4fe 032784fe 832784fd  .g..#$...'...'..
 10120 6366f702 032784fe 832784fd b307f740  cf...'...'.....@
 10130 2324f4fe 832744fe 13071000 b317f700  #$...'D.........
 10140 0327c4fe b367f700 2326f4fe 832744fe  .'...g..#&...'D.
 10150 9387f7ff 2322f4fe 832744fe e3da07f8  ....#"...'D.....
 10160 8327c4fe 13850700 8320c102 03248102  .'....... ...$..
 10170 13010103 67800000 130101fd 23261102  ....g.......#&..
 10180 23248102 13040103 232ea4fc 232cb4fc  #$......#...#,..
 10190 832784fd 63960700 93070000 6f000007  .'..c.......o...
 101a0 232604fe 9307f001 2324f4fe 6f004005  #&......#$..o.@.
 101b0 8327c4fe 93971700 2326f4fe 832784fe  .'......#&...'..
 101c0 0327c4fd b357f700 93f71700 0327c4fe  .'...W.......'..
 101d0 b367f700 2326f4fe 0327c4fe 832784fd  .g..#&...'...'..
 101e0 636af700 0327c4fe 832784fd b307f740  cj...'...'.....@
 101f0 2326f4fe 832784fe 9387f7ff 2324f4fe  #&...'......#$..
 10200 832784fe e3d607fa 8327c4fe 13850700  .'.......'......
 10210 8320c102 03248102 13010103 67800000  . ...$......g...
 10220 130101fd 23261102 23248102 13040103  ....#&..#$......
 10230 232ea4fc 232cb4fc 232604fe 6f008003  #...#,..#&..o...
 10240 832784fd 93f71700 638a0700 0327c4fe  .'......c....'..
 10250 8327c4fd b307f700 2326f4fe 8327c4fd  .'......#&...'..
 10260 93971700 232ef4fc 832784fd 93d71700  ....#....'......
 10270 232cf4fc 832784fd e39407fc 8327c4fe  #,...'.......'..
 10280 13850700 8320c102 03248102 13010103  ..... ...$......
 10290 67800000 130101fe 232e1100 232c8100  g.......#...#,..
 102a0 13040102 2326a4fe 2324b4fe 832584fe  ....#&..#$...%..
 102b0 0325c4fe eff0dff6 93070500 13850700  .%..............
 102c0 8320c101 03248101 13010102 67800000  . ...$......g...
 102d0 130101fc 232e1102 232c8102 13040104  ....#...#,......
 102e0 2326a4fc 930744fd 93873701 2326f4fe  #&....D...7.#&..
 102f0 8327c4fe 1307a000 2380e700 8327c4fe  .'......#....'..
 10300 9387f7ff 2326f4fe 8327c4fc 639e0706  ....#&...'..c...
 10310 8327c4fe 13070003 2380e700 8327c4fe  .'......#....'..
 10320 9387f7ff 2326f4fe 6f008006 8327c4fc  ....#&..o....'..
 10330 93f7f700 2324f4fe 032784fe 93079000  ....#$...'......
 10340 63cce700 832784fe 93f7f70f 93870703  c....'..........
 10350 93f7f70f 6f004001 832784fe 93f7f70f  ....o.@..'......
 10360 93877705 93f7f70f 0327c4fe 2300f700  ..w......'..#...
 10370 8327c4fe 9387f7ff 2326f4fe 8327c4fc  .'......#&...'..
 10380 93d74700 2326f4fc 8327c4fc e39007fa  ..G.#&...'......
 10390 8327c4fe 93871700 2326f4fe 930744fd  .'......#&....D.
 103a0 93874701 0327c4fe 3387e740 8327c4fe  ..G..'..3..@.'..
 103b0 93080004 13051000 b305f000 13060700  ................
 103c0 73000000 13000000 8320c103 03248103  s........ ...$..
 103d0 13010104 67800000 130101fc 232e1102  ....g.......#...
 103e0 232c8102 13040104 2326a4fc 930784fd  #,......#&......
 103f0 93873701 2326f4fe 8327c4fe 1307a000  ..7.#&...'......
 10400 2380e700 8327c4fe 9387f7ff 2326f4fe  #....'......#&..
 10410 8327c4fc 63900706 8327c4fe 13070003  .'..c....'......
 10420 2380e700 8327c4fe 9387f7ff 2326f4fe  #....'......#&..
 10430 6f00c004 9305a000 0325c4fc eff0dfd3  o........%......
 10440 93070500 93f7f70f 93870703 13f7f70f  ................
 10450 8327c4fe 2380e700 8327c4fe 9387f7ff  .'..#....'......
 10460 2326f4fe 9305a000 0325c4fc eff09fc4  #&.......%......
 10470 2326a4fc 8327c4fc e39e07fa 8327c4fe  #&...'.......'..
 10480 93871700 2326f4fe 930784fd 93874701  ....#&........G.
 10490 0327c4fe 3387e740 8327c4fe 93080004  .'..3..@.'......
 104a0 13051000 b305f000 13060700 73000000  ............s...
 104b0 13000000 8320c103 03248103 13010104  ..... ...$......
 104c0 67800000 130101fb 23261104 23248104  g.......#&..#$..
 104d0 23222105 23203105 232e4103 232c5103  #"!.# 1.#.A.#,Q.
 104e0 232a6103 23287103 23268103 23249103  #*a.#(q.#&..#$..
 104f0 2322a103 2320b103 13040105 232ea4fa  #"..# ......#...
 10500 232cb4fa 8325c4fb 83a50500 2326b4fc  #,...%......#&..
 10510 8325c4fc 13870500 93070000 8325c4fc  .%...........%..
 10520 13860500 93060000 13050700 93850700  ................
 10530 ef001037 13070500 93870500 13da0700  ...7............
 10540 930a0000 232444fd 832784fb 138c0700  ....#$D..'......
 10550 930c0000 832784fc 138d0700 930d0000  .....'..........
 10560 13060d00 93860d00 13050c00 93850c00  ................
 10570 ef001033 13070500 93870500 13050700  ...3............
 10580 93850700 13060000 93063000 3307a640  ..........0.3..@
 10590 13080700 33380601 b387b640 b3860741  ....38.....@...A
 105a0 93870600 2320e4fc 2322f4fc 832744fc  ....# ..#"...'D.
 105b0 9397e701 032704fc 13592700 33e92701  .....'...Y'.3.'.
 105c0 832744fc 93d92700 232024fd 232234fd  .'D...'.# $.#"4.
 105d0 8327c4fc 138b0700 930b0000 032604fc  .'...........&..
 105e0 832644fc 13050b00 93850b00 ef00502b  .&D...........P+
 105f0 13070500 93870500 93961700 1356f701  .............V..
 10600 b366d600 2320d4fc 93d7f701 2322f4fc  .f..# ......#"..
 10610 032704fc 8327c4fb 23a0e700 13000000  .'...'..#.......
 10620 8320c104 03248104 03294104 83290104  . ...$...)A..)..
 10630 032ac103 832a8103 032b4103 832b0103  .*...*...+A..+..
 10640 032cc102 832c8102 032d4102 832d0102  .,...,...-A..-..
 10650 13010105 67800000 130101fa 232e1104  ....g.......#...
 10660 232c8104 232a2105 23283105 23264105  #,..#*!.#(1.#&A.
 10670 23245105 23226105 23207105 232e8103  #$Q.#"a.# q.#...
 10680 232c9103 232aa103 2328b103 13040106  #,..#*..#(......
 10690 2326a4fa 8327c4fa 63960700 9307f0ff  #&...'..c.......
 106a0 6f00401f 0327c4fa 93071000 6316f700  o.@..'......c...
 106b0 b7070100 6f00001e 0325c4fa ef008030  ....o....%.....0
 106c0 13070500 9307f001 b387e740 2322f4fc  ...........@#"..
 106d0 b7170100 13870713 832744fc 93971700  .........'D.....
 106e0 b307f700 83d70700 2326f4fc 832744fc  ........#&...'D.
 106f0 13071000 b317f700 0327c4fa 63f0e710  .........'..c...
 10700 032744fc 9307e001 63c2e702 832744fc  .'D.....c....'D.
 10710 93871700 37170100 13070713 93971700  ....7...........
 10720 b307f700 83d70700 6f008000 93070000  ........o.......
 10730 2320f4fc 0327c4fc 832704fc b307f740  # ...'...'.....@
 10740 232ef4fa 8327c4fa 138d0700 930d0000  #....'..........
 10750 832744fc 13071000 b317f700 2320f4fa  .'D.........# ..
 10760 232204fa 832504fa 032644fa 93860500  #"...%...&D.....
 10770 3307dd40 93060700 b336dd00 b387cd40  3..@.....6.....@
 10780 b386d740 93870600 93560701 93990701  ...@.....V......
 10790 b3e93601 13190701 832744fc 938707fe  ..6......'D.....
 107a0 63c80700 33daf900 930a0000 6f00c002  c...3.......o...
 107b0 13971900 9306f001 832744fc b387f640  .........'D....@
 107c0 b317f700 032744fc 335ae900 33ea4701  .....'D.3Z..3.G.
 107d0 832744fc b3daf900 232c44fb 832584fb  .'D.....#,D..%..
 107e0 0325c4fb eff01fab 93070500 93d70701  .%..............
 107f0 0327c4fc b307f740 2326f4fc 232404fc  .'.....@#&..#$..
 10800 6f004008 8325c4fc 0325c4fc ef00400c  o.@..%...%....@.
 10810 13070500 93870500 232ae4fa 832544fb  ........#*...%D.
 10820 0325c4fa ef00c00a 13070500 93870500  .%..............
 10830 93960701 135b0701 33eb6601 93db0701  .....[..3.f.....
 10840 232864fb 37070300 832704fb b307f740  #(d.7....'.....@
 10850 93850700 0325c4fc ef008007 13070500  .....%..........
 10860 93870500 9396f700 135c1701 33ec8601  .........\..3...
 10870 93dc1701 232684fd 832784fc 93871700  ....#&...'......
 10880 2324f4fc 032784fc 93071000 e3dce7f6  #$...'..........
 10890 8327c4fc 13850700 8320c105 03248105  .'....... ...$..
 108a0 03294105 83290105 032ac104 832a8104  .)A..)...*...*..
 108b0 032b4104 832b0104 032cc103 832c8103  .+A..+...,...,..
 108c0 032d4103 832d0103 13010106 67800000  .-A..-......g...
 108d0 130101fd 23261102 23248102 13040103  ....#&..#$......
 108e0 232ea4fc 232cb4fc 13050000 93050000  #...#,..........
 108f0 2324a4fe 2326b4fe 232204fe 6f00c009  #$..#&..#"..o...
 10900 832544fe 13051000 3315b500 832584fd  .%D.....3....%..
 10910 b375b500 638c0506 8325c4fd 13860500  .u..c....%......
 10920 93060000 832544fe 938505fe 63c80500  .....%D.....c...
 10930 b317b600 13070000 6f00c002 13551600  ........o....U..
 10940 1308f001 832544fe b305b840 b355b500  .....%D....@.U..
 10950 032544fe b397a600 b3e7f500 832544fe  .%D..........%D.
 10960 3317b600 032884fe 8328c4fe 3305e800  3....(...(..3...
 10970 13030500 33330301 b385f800 3308b300  ....33......3...
 10980 93050800 2324a4fe 2326b4fe 832544fe  ....#$..#&...%D.
 10990 93851500 2322b4fe 032544fe 9305f001  ....#"...%D.....
 109a0 e3d0a5f6 032784fe 8327c4fe 13050700  .....'...'......
 109b0 93850700 8320c102 03248102 13010103  ..... ...$......
 109c0 67800000 130101fd 23261102 23248102  g.......#&..#$..
 109d0 13040103 232ea4fc 8327c4fd 63960700  ....#....'..c...
 109e0 93070002 6f00000b 232604fe 0327c4fd  ....o...#&...'..
 109f0 b7070100 637ef700 8327c4fe 93870701  ....c~...'......
 10a00 2326f4fe 8327c4fd 93970701 232ef4fc  #&...'......#...
 10a10 0327c4fd b7070001 637ef700 8327c4fe  .'......c~...'..
 10a20 93878700 2326f4fe 8327c4fd 93978700  ....#&...'......
 10a30 232ef4fc 0327c4fd b7070010 637ef700  #....'......c~..
 10a40 8327c4fe 93874700 2326f4fe 8327c4fd  .'....G.#&...'..
 10a50 93974700 232ef4fc 0327c4fd b7070040  ..G.#....'.....@
 10a60 637ef700 8327c4fe 93872700 2326f4fe  c~...'....'.#&..
 10a70 8327c4fd 93972700 232ef4fc 8327c4fd  .'....'.#....'..
 10a80 63c80700 8327c4fe 93871700 2326f4fe  c....'......#&..
 10a90 8327c4fe 13850700 8320c102 03248102  .'....... ...$..
 10aa0 13010103 67800000 130101f9 23261106  ....g.......#&..
 10ab0 23248106 23222107 23203107 232e4105  #$..#"!.# 1.#.A.
 10ac0 232c5105 232a6105 23287105 23268105  #,Q.#*a.#(q.#&..
 10ad0 23249105 2322a105 2320b105 13040107  #$..#"..# ......
 10ae0 2326a4fa 2324b4fa 2322c4fa 8327c4fa  #&..#$..#"...'..
 10af0 13880700 93d7f741 93880700 8327c4fa  .......A.....'..
 10b00 13830700 93d7f741 93830700 13060300  .......A........
 10b10 93860300 13050800 93850800 ef004058  ..............@X
 10b20 13070500 93870500 130a0700 938a0700  ................
 10b30 832784fa 232cf4f8 93d7f741 232ef4f8  .'..#,.....A#...
 10b40 832784fa 2328f4f8 93d7f741 232af4f8  .'..#(.....A#*..
 10b50 032604f9 832644f9 032584f9 8325c4f9  .&...&D..%...%..
 10b60 ef000054 13070500 93870500 13060700  ...T............
 10b70 93860700 3307ca00 93050700 b3b54501  ....3.........E.
 10b80 b387da00 b386f500 93870600 130a0700  ................
 10b90 938a0700 832744fa 138c0700 93d7f741  .....'D........A
 10ba0 938c0700 832744fa 138d0700 93d7f741  .....'D........A
 10bb0 938d0700 13060d00 93860d00 13050c00  ................
 10bc0 93850c00 ef00c04d 13070500 93870500  .......M........
 10bd0 13060700 93860700 3307ca00 93050700  ........3.......
 10be0 b3b54501 b387da00 b386f500 93870600  ..E.............
 10bf0 2324e4fc 2326f4fc 8327c4fc 63840702  #$..#&...'..c...
 10c00 8327c4fc 93970701 032784fc 13590701  .'.......'...Y..
 10c10 33e92701 8327c4fc 93d90701 232424fd  3.'..'......#$$.
 10c20 232634fd 832784fc 13850700 eff0dfa2  #&4..'..........
 10c30 2322a4fc 832744fc 138b0700 930b0000  #"...'D.........
 10c40 032684fc 8326c4fc 13050b00 93850b00  .&...&..........
 10c50 ef000045 13070500 93870500 93960701  ...E............
 10c60 13560701 b366d600 232cd4fa 93d70701  .V...f..#,......
 10c70 232ef4fa 832784fb 13850700 8320c106  #....'....... ..
 10c80 03248106 03294106 83290106 032ac105  .$...)A..)...*..
 10c90 832a8105 032b4105 832b0105 032cc104  .*...+A..+...,..
 10ca0 832c8104 032d4104 832d0104 13010107  .,...-A..-......
 10cb0 67800000 130101f0 232e110e 232c810e  g.......#...#,..
 10cc0 13040110 b7170100 93870717 03a30700  ................
 10cd0 83a84700 03a88700 03a5c700 83a50701  ..G.............
 10ce0 03a64701 83a68701 03a7c701 83a70702  ..G.............
 10cf0 232064f0 232214f1 232404f1 2326a4f0  # d.#"..#$..#&..
 10d00 2328b4f0 232ac4f0 232cd4f0 232ee4f0  #(..#*..#,..#...
 10d10 2320f4f2 930704f0 13073002 93080004  # ........0.....
 10d20 13051000 b305f000 13060700 73000000  ............s...
 10d30 b7170100 93874719 03a80700 03a54700  ......G.......G.
 10d40 83a58700 03a6c700 83a60701 03a74701  ..............G.
 10d50 232804fd 232aa4fc 232cb4fc 232ec4fc  #(..#*..#,..#...
 10d60 2320d4fe 2322e4fe 83c78701 2304f4fe  # ..#"......#...
 10d70 930704fd 13078001 93080004 13051000  ................
 10d80 b305f000 13060700 73000000 13051000  ........s.......
 10d90 eff09f8c 2326a4fe b7677375 93872755  ....#&...gsu..'U
 10da0 2322f4fc b7773a20 9387c746 2324f4fc  #"...w: ...F#$..
 10db0 230604fc 930744fc 13078000 93080004  #.....D.........
 10dc0 13051000 b305f000 13060700 73000000  ............s...
 10dd0 0325c4fe eff04fe0 b7170100 9387071b  .%....O.........
 10de0 03a80700 03a54700 83a58700 03a6c700  ......G.........
 10df0 83a60701 03a74701 232404fb 2326a4fa  ......G.#$..#&..
 10e00 2328b4fa 232ac4fa 232cd4fa 232ee4fa  #(..#*..#,..#...
 10e10 83c78701 2300f4fc 930784fa 13078001  ....#...........
 10e20 93080004 13051000 b305f000 13060700  ................
 10e30 73000000 13054000 eff01f82 2326a4fe  s.....@.....#&..
 10e40 b7677375 93872755 232ef4f8 b7773a20  .gsu..'U#....w: 
 10e50 9387c746 2320f4fa 230204fa 9307c4f9  ...F# ..#.......
 10e60 13078000 93080004 13051000 b305f000  ................
 10e70 13060700 73000000 0325c4fe eff0cfd5  ....s....%......
 10e80 b7170100 9387c71c 03a80700 03a54700  ..............G.
 10e90 83a58700 03a6c700 83a60701 03a74701  ..............G.
 10ea0 232004f9 2322a4f8 2324b4f8 2326c4f8  # ..#"..#$..#&..
 10eb0 2328d4f8 232ae4f8 03d78701 231ce4f8  #(..#*......#...
 10ec0 83c7a701 230df4f8 930704f8 1307a001  ....#...........
 10ed0 93080004 13051000 b305f000 13060700  ................
 10ee0 73000000 13050001 eff00ff7 2326a4fe  s...........#&..
 10ef0 b7677375 93872755 232af4f6 b7773a20  .gsu..'U#*...w: 
 10f00 9387c746 232cf4f6 230e04f6 930744f7  ...F#,..#.....D.
 10f10 13078000 93080004 13051000 b305f000  ................
 10f20 13060700 73000000 0325c4fe eff0cfca  ....s....%......
 10f30 b7170100 9387871e 03a80700 03a54700  ..............G.
 10f40 83a58700 03a6c700 83a60701 03a74701  ..............G.
 10f50 232c04f5 232ea4f4 2320b4f6 2322c4f6  #,..#...# ..#"..
 10f60 2324d4f6 2326e4f6 03d78701 2318e4f6  #$..#&......#...
 10f70 83c7a701 2309f4f6 930784f5 1307a001  ....#...........
 10f80 93080004 13051000 b305f000 13060700  ................
 10f90 73000000 13054006 eff00fec 2326a4fe  s.....@.....#&..
 10fa0 b7677375 93872755 2326f4f4 b7773a20  .gsu..'U#&...w: 
 10fb0 9387c746 2328f4f4 230a04f4 9307c4f4  ...F#(..#.......
 10fc0 13078000 93080004 13051000 b305f000  ................
 10fd0 13060700 73000000 0325c4fe eff0cfbf  ....s....%......
 10fe0 b7170100 93874720 03a80700 03a54700  ......G ......G.
 10ff0 83a58700 03a6c700 83a60701 03a74701  ..............G.
 11000 83a78701 232804f3 232aa4f2 232cb4f2  ....#(..#*..#,..
 11010 232ec4f2 2320d4f4 2322e4f4 2324f4f4  #...# ..#"..#$..
 11020 930704f3 1307b001 93080004 13051000  ................
 11030 b305f000 13060700 73000000 37150000  ........s...7...
 11040 eff08fe1 2326a4fe b7677375 93872755  ....#&...gsu..'U
 11050 2322f4f2 b7773a20 9387c746 2324f4f2  #"...w: ...F#$..
 11060 230604f2 930744f2 13078000 93080004  #.....D.........
 11070 13051000 b305f000 13060700 73000000  ............s...
 11080 0325c4fe eff04fb5 93070000 13850700  .%....O.........
 11090 8320c10f 0324810f 13010110 67800000  . ...$......g...
Contents of section .text.__muldi3:
 110a0 aa822a87 32888147 01430145 b308a700  ..*.2..G.C.E....
 110b0 937e1800 330ff300 135ef701 13581800  .~..3....^...X..
 110c0 b3bfe800 86076385 0e004685 3383ef01  ......c...F.3...
 110d0 0607b3e7 c701e31b 08fc81c5 b385c502  ................
 110e0 2e939a85 89c6b386 5602b385 66008280  ........V...f...
Contents of section .rodata:
 110f0 ffffffff ffffffff 34f304b5 2d3acd93  ........4...-:..
 11100 ffffff7f 17977c72 c0f58268 9b47c260  ......|r...h.G.`
 11110 9a79825a 55555555 8a4df450 f4d82f4d  .y.ZUUUU.M.P../M
 11120 179de649 816a0047 963b6b44 8c521942  ...I.j.G.;kD.R.B
 11130 ffff05b5 0080825a 0040412d 0020a116  .......Z.@A-. ..
 11140 0010500b 0008a805 0004d402 00026a01  ..P...........j.
 11150 0001b500 80005a00 40002d00 20001700  ......Z.@.-. ...
 11160 10000b00 08000600 04000300 02000100  ................
 11170 3d3d3d20 52563332 20426172 652d6d65  === RV32 Bare-me
 11180 74616c20 72737172 74207465 7374203d  tal rsqrt test =
 11190 3d3d0a00 496e7075 743a2031 20284578  ==..Input: 1 (Ex
 111a0 70656374 20363535 3336290a 00000000  pect 65536).....
 111b0 496e7075 743a2034 20284578 70656374  Input: 4 (Expect
 111c0 20333237 3638290a 00000000 496e7075   32768).....Inpu
 111d0 743a2031 36202845 78706563 74207e31  t: 16 (Expect ~1
 111e0 36333834 290a0000 496e7075 743a2031  6384)...Input: 1
 111f0 30302028 45787065 6374207e 36353533  00 (Expect ~6553
 11200 290a0000 496e7075 743a2034 30393620  )...Input: 4096 
 11210 28457870 65637420 7e313032 34290a00  (Expect ~1024)..
Contents of section .riscv.attributes:
 0000 414f0000 00726973 63760001 45000000  AO...riscv..E...
 0010 04100572 76333269 3270315f 6d327030  ...rv32i2p1_m2p0
 0020 5f613270 315f6332 70305f7a 69637372  _a2p1_c2p0_zicsr
 0030 3270305f 7a6d6d75 6c317030 5f7a6161  2p0_zmmul1p0_zaa
 0040 6d6f3170 305f7a61 6c727363 31703000  mo1p0_zalrsc1p0.
Contents of section .comment:
 0000 4743433a 20287850 61636b20 474e5520  GCC: (xPack GNU 
 0010 52495343 2d562045 6d626564 64656420  RISC-V Embedded 
 0020 47434320 7838365f 36342920 31342e32  GCC x86_64) 14.2
 0030 2e3000                               .0.             
Contents of section .debug_line:
 0000 71000000 02001b00 00000101 fb0e0a00  q...............
 0010 01010101 00000001 00737461 72742e53  .........start.S
 0020 00000000 00000502 00000100 16030309  ................
 0030 08000103 01090800 01030209 08000103  ................
 0040 01090400 01030109 04000103 01090400  ................
 0050 01030409 04000103 03090400 01030109  ................
 0060 04000103 01090400 01030409 04000109  ................
 0070 04000001 01fc0700 00050004 004e0000  .............N..
 0080 00010101 fb0e0d00 01010101 00000001  ................
 0090 00000101 011f0500 00000057 000000b7  ...........W....
 00a0 00000013 0100007a 01000002 011f020f  .......z........
 00b0 06500000 00005000 000000d2 01000001  .P....P.........
 00c0 e3010000 02ed0100 0003f601 00000405  ................
 00d0 01000502 3c000100 031e0105 0e030109  ....<...........
 00e0 1c000105 14030109 08000105 0b030109  ................
 00f0 08000105 12030109 04000105 0b030009  ................
 0100 0c000105 10030009 0c000105 0e030009  ................
 0110 04000105 0d037f09 04000105 0c030009  ................
 0120 0c000103 02090400 01050103 01090400  ................
 0130 01030409 14000105 08030109 18000105  ................
 0140 10030109 08000105 13030209 08000103  ................
 0150 01090400 01050e03 02090400 01050503  ................
 0160 00090800 01051303 01090400 01052003  .............. .
 0170 01090c00 01052603 00090c00 01051303  ......&.........
 0180 00090400 01050c03 02090c00 01051703  ................
 0190 01090c00 01051e03 01091000 01051603  ................
 01a0 00090c00 01051f00 02040203 7a090c00  ............z...
 01b0 01051800 02040103 00090c00 01050c03  ................
 01c0 0a090800 01050103 01090400 01030309  ................
 01d0 14000105 08030109 18000105 10030109  ................
 01e0 08000105 13030209 08000105 0e030209  ................
 01f0 04000105 05030009 08000105 13030109  ................
 0200 04000105 20030109 0c000105 26030009  .... .......&...
 0210 0c000105 13030009 04000105 0c030209  ................
 0220 0c000105 17030109 0c000105 1f000204  ................
 0230 02037b09 10000105 18000204 01030009  ..{.............
 0240 0c000105 0c030909 08000105 01030109  ................
 0250 04000103 04091400 01050e03 01091800  ................
 0260 01050b03 01090400 01050f03 01090400  ................
 0270 01050c03 00090800 01051403 01090400  ................
 0280 01050b03 01091000 01030109 0c000105  ................
 0290 0c037c09 0c000103 06090800 01050103  ..|.............
 02a0 01090400 01030409 14000105 0c030109  ................
 02b0 18000105 01030109 10000103 04091400  ................
 02c0 01050b03 02091400 01050803 01090c00  ................
 02d0 01050603 01090c00 01050803 02090c00  ................
 02e0 01050c03 01090800 01050a03 01090c00  ................
 02f0 01051d03 03091000 01051103 00090400  ................
 0300 01051003 01090800 01052600 02040103  ..........&.....
 0310 00090c00 01051000 02040103 00090800  ................
 0320 01053e00 02040203 00090c00 01051000  ..>.............
 0330 02040203 00090800 01000204 04060300  ................
 0340 09080001 050e0603 01090800 01051103  ................
 0350 01090c00 01051403 7c090c00 01050603  ........|.......
 0360 08090800 01050503 01090c00 01050103  ................
 0370 01092800 01030409 14000105 0b030209  ..(.............
 0380 14000105 08030109 0c000105 06030109  ................
 0390 0c000105 08030209 0c000105 0c030109  ................
 03a0 08000105 0a030109 0c000105 18030309  ................
 03b0 10000105 16000204 01030009 10000105  ................
 03c0 10000204 01030009 0c000105 0e030109  ................
 03d0 08000105 13030109 0c000105 14037d09  ..............}.
 03e0 10000105 06030709 08000105 05030109  ................
 03f0 0c000105 01030109 28000103 15091400  ........(.......
 0400 01050d03 04094000 01051103 01090c00  ......@.........
 0410 01052303 00090c00 01052e03 00092000  ..#........... .
 0420 01050e03 00090800 01051a03 01090400  ................
 0430 01052603 00090c00 01050903 00093000  ..&...........0.
 0440 01030209 28000105 10030109 24000105  ....(.......$...
 0450 09030009 28000105 15030209 18000105  ....(...........
 0460 13030009 04000105 01030109 08000105  ................
 0470 21030d09 3c000105 08030109 3c000105  !...<.......<...
 0480 18000204 01030009 08000106 03000904  ................
 0490 00010508 06030109 04000105 18000204  ................
 04a0 01030009 0c000106 03000904 00010514  ................
 04b0 06030209 04000105 09000204 01030009  ................
 04c0 0c000105 1d030209 0c000105 0e030009  ................
 04d0 18000105 10030209 04000105 07030009  ................
 04e0 0c000105 3d030109 08000105 38000204  ....=.......8...
 04f0 01030009 0c000105 33000204 01030009  ........3.......
 0500 08000105 3d000204 02030009 18000105  ....=...........
 0510 12000204 04030009 04000103 01090400  ................
 0520 01052703 01091000 01053a03 00090c00  ..'.......:.....
 0530 01053303 00091400 01054303 00092400  ..3.......C...$.
 0540 01054a03 00091000 01051203 00094000  ..J...........@.
 0550 01052103 01090400 01052903 00091000  ..!.......).....
 0560 01050b03 00090400 01050d03 03090c00  ................
 0570 01050503 00090400 01052103 01090400  ..........!.....
 0580 01051200 02040103 00091400 01052303  ..............#.
 0590 01090400 01053000 02040103 00091400  ......0.........
 05a0 01051200 02040103 00091000 01051803  ................
 05b0 01090400 01053300 02040103 00092000  ......3....... .
 05c0 01050b00 02040103 00091000 01052500  ..............%.
 05d0 02040303 7d090400 01051c00 02040103  ....}...........
 05e0 00090c00 01050c03 06090c00 01050103  ................
 05f0 01090400 01052f03 02093c00 01050e03  ....../...<.....
 0600 01091800 01050d03 01091000 01050503  ................
 0610 00090400 01051403 01090400 01050e03  ................
 0620 00090c00 01050b03 00090800 01051203  ................
 0630 01090400 01051e03 00090c00 01050f03  ................
 0640 00094000 01051d00 02040203 7e092800  ..@.........~.(.
 0650 01051600 02040103 00090c00 01050c03  ................
 0660 04090c00 01050103 01090800 01051c03  ................
 0670 02091800 01050703 01091400 01051300  ................
 0680 02040103 00090800 01060300 09040001  ................
 0690 05090603 01090400 01050703 01090400  ................
 06a0 01051f00 02040103 00090c00 01052800  ..............(.
 06b0 02040103 00090c00 01050703 01090c00  ................
 06c0 01051f00 02040103 00090c00 01052800  ..............(.
 06d0 02040103 00090c00 01050703 01090c00  ................
 06e0 01051f00 02040103 00090c00 01052800  ..............(.
 06f0 02040103 00090c00 01050703 01090c00  ................
 0700 01051f00 02040103 00090c00 01052800  ..............(.
 0710 02040103 00090c00 01050803 01090c00  ................
 0720 01050703 00090400 01051f00 02040103  ................
 0730 00090400 01050c03 01090c00 01050103  ................
 0740 01090400 01030809 14000105 18030109  ................
 0750 44000105 25030009 10000105 18030109  D...%...........
 0760 34000105 25030009 10000105 2a037f09  4...%.......*...
 0770 34000105 18030209 20000105 25030009  4....... ...%...
 0780 10000105 0e037e09 34000105 08030409  ......~.4.......
 0790 20000105 11030109 08000105 19030209   ...............
 07a0 24000105 28030309 10000105 0e030009  $...(...........
 07b0 28000105 0c030209 18000105 01030109  (...............
 07c0 04000105 0c030309 3c000105 05030109  ........<.......
 07d0 10000103 04096c00 01051403 01095c00  ......l.......\.
 07e0 01050503 01090c00 01030109 38000103  ............8...
 07f0 05090800 01050b03 01095c00 01050503  ..........\.....
 0800 01090c00 01030109 38000103 05090800  ........8.......
 0810 01050b03 01096400 01050503 01090c00  ......d.........
 0820 01030109 38000103 04090800 01050b03  ....8...........
 0830 01096400 01050503 01090c00 01030109  ..d.............
 0840 38000103 04090800 01050b03 01095c00  8.............\.
 0850 01050503 01090c00 01030109 38000105  ............8...
 0860 0c030209 08000105 01030109 04000109  ................
 0870 14000001 01                          .....           
Contents of section .debug_info:
 0000 31000000 02000000 00000401 00000000  1...............
 0010 00000100 3c000100 00000000 08000000  ....<...........
 0020 58000000 01800266 00000001 00000100  X......f........
 0030 40000100 00620700 00050001 04210000  @....b.......!..
 0040 0011df01 00001d50 00000000 0000003c  .......P.......<
 0050 00010064 10000075 00000004 01068701  ...d...u........
 0060 00000574 00000002 2b183900 00000401  ...t....+.9.....
 0070 08850100 00040205 93010000 05b70100  ................
 0080 00023919 53000000 0402072f 01000005  ..9.S....../....
 0090 c2010000 024d1866 00000004 0405b300  .....M.f........
 00a0 000005de 00000002 4f197900 00000404  ........O.y.....
 00b0 07960000 00040805 ae000000 05750100  .............u..
 00c0 00026919 93000000 04080791 00000012  ..i.............
 00d0 0405696e 74000404 079b0000 00057600  ..int.........v.
 00e0 00000318 132d0000 000ca800 000005b9  .....-..........
 00f0 01000003 24144700 00000cb9 00000005  ....$.G.........
 0100 c4010000 032c135a 00000005 e0000000  .....,.Z........
 0110 0330146d 0000000c d6000000 05770100  .0.m.........w..
 0120 00033c14 87000000 056d0000 0004d617  ..<......m......
 0130 a1000000 04100454 01000013 040d0d01  .......T........
 0140 00000401 088e0100 00080d01 00002401  ..............$.
 0150 000009a1 00000018 0008e200 00003401  ..............4.
 0160 000009a1 0000000f 000c2401 00000124  ..........$....$
 0170 02000099 17340100 000503f0 10010008  .....4..........
 0180 c5000000 5a010000 09a10000 001f000c  ....Z...........
 0190 4a010000 01140100 00b4175a 01000005  J..........Z....
 01a0 03301101 00143302 00000101 01059a00  .0....3.........
 01b0 0000b40c 0100ec03 0000019c d5020000  ................
 01c0 15726573 00010701 0ed60000 0002916c  .res...........l
 01d0 06c40c01 006c0000 00b80100 00072001  .....l........ .
 01e0 00000201 d5020000 0391807e 0006300d  ...........~..0.
 01f0 01005c00 0000d401 00000720 01000006  ..\........ ....
 0200 01140100 00029150 0006980d 01003800  .......P......8.
 0210 0000f001 00000720 01000008 01e50200  ....... ........
 0220 00029144 0006d80d 01005c00 00000d02  ...D......\.....
 0230 00000720 0100000e 01140100 000391a8  ... ............
 0240 7f000640 0e010038 0000002a 02000007  ...@...8...*....
 0250 20010000 1001e502 00000391 9c7f0006   ...............
 0260 800e0100 64000000 47020000 07200100  ....d...G.... ..
 0270 001601f5 02000003 91807f00 06f00e01  ................
 0280 00380000 00640200 00072001 00001801  .8...d.... .....
 0290 e5020000 0391f47e 0006300f 01006400  .......~..0...d.
 02a0 00008102 00000720 0100001d 01f50200  ....... ........
 02b0 000391d8 7e0006a0 0f010038 0000009e  ....~......8....
 02c0 02000007 20010000 1f01e502 00000391  .... ...........
 02d0 cc7e0006 e00f0100 5c000000 bb020000  .~......\.......
 02e0 07200100 00240105 03000003 91b07e00  . ...$........~.
 02f0 0a481001 00380000 00072001 00002601  .H...8.... ...&.
 0300 e5020000 0391a47e 0000080d 010000e5  .......~........
 0310 02000009 a1000000 2300080d 010000f5  ........#.......
 0320 02000009 a1000000 0800080d 01000005  ................
 0330 03000009 a1000000 1a00080d 01000015  ................
 0340 03000009 a1000000 1b000fe9 000000ef  ................
 0350 d6000000 a80a0100 0c020000 019c8303  ................
 0360 00000264 7800ef23 ca000000 0391ac7f  ...dx..#........
 0370 02647900 ef2fca00 00000391 a87f0264  .dy../.........d
 0380 7a00ef3b ca000000 0391a47f 016d0100  z..;.........m..
 0390 00f10ee7 00000002 914801fa 000000f8  .........H......
 03a0 0ed60000 00029144 01fe0000 00fb0ee7  .......D........
 03b0 00000003 91b87f00 16636c7a 0001df0c  .........clz....
 03c0 9a000000 c4090100 e4000000 019cb603  ................
 03d0 00000278 00df19d6 00000002 915c036e  ...x.........\.n
 03e0 00e1099a 00000002 916c000e 0e010000  .........l......
 03f0 d611e700 0000d008 0100f400 0000019c  ................
 0400 0a040000 026100d6 20d60000 0002915c  .....a.. ......\
 0410 026200d6 2cd60000 00029158 037200d7  .b..,......X.r..
 0420 0ee70000 00029168 0af80801 00ac0000  .......h........
 0430 00036900 d80d9a00 00000291 6400000f  ..i.........d...
 0440 03010000 bed60000 00580601 00780200  .........X...x..
 0450 00019cc3 04000002 7800be1e d6000000  ........x.......
 0460 0391ac7f 03657870 00c2099a 00000002  .....exp........
 0470 91440379 00c40ed6 00000002 914c0600  .D.y.........L..
 0480 070100fc 00000083 04000001 9d010000  ................
 0490 c712d600 00000291 4001a800 0000c812  ........@.......
 04a0 d6000000 0391bc7f 01800100 00c912d6  ................
 04b0 00000003 91b87f00 0afc0701 00940000  ................
 04c0 00014f01 0000cd0d 9a000000 0291480a  ..O...........H.
 04d0 04080100 74000000 03793200 ce12d600  ....t....y2.....
 04e0 00000391 b47f0378 793200cf 12d60000  .......xy2......
 04f0 000391b0 7f000000 10c90000 00a4c404  ................
 0500 01009401 0000019c 1e050000 0b420100  .............B..
 0510 00a4231e 05000003 91bc7f02 7800a43a  ..#.........x..:
 0520 d6000000 0391b87f 01380200 00a60ed6  .........8......
 0530 00000002 914c01d1 010000a6 17d60000  .....L..........
 0540 00029148 0376616c 00a70ee7 00000002  ...H.val........
 0550 9140000d d6000000 10870000 007cd803  .@...........|..
 0560 0100ec00 0000019c 60050000 0276616c  ........`....val
 0570 007c2579 00000002 914c0362 7566007e  .|%y.....L.buf.~
 0580 0a600500 00029158 0370007f 0b080100  .`.....X.p......
 0590 0002916c 00080d01 00007005 000009a1  ...l......p.....
 05a0 00000013 00172501 00000164 0dd00201  ......%....d....
 05b0 00080100 00019cc7 05000002 76616c00  ............val.
 05c0 64257900 00000291 4c036275 6600660a  d%y.....L.buf.f.
 05d0 60050000 02915403 7000670b 08010000  `.....T.p.g.....
 05e0 02916c0a 2c030100 5c000000 01bc0000  ..l.,...\.......
 05f0 0070119a 00000002 91680000 0fa40100  .p.......h......
 0600 005ed600 00009402 01003c00 0000019c  .^........<.....
 0610 f8050000 0261005e 1cd60000 0002916c  .....a.^.......l
 0620 0262005e 28d60000 00029168 000ecc01  .b.^(......h....
 0630 00005111 d6000000 20020100 74000000  ..Q..... ...t...
 0640 019c3806 00000261 00511fd6 00000002  ..8....a.Q......
 0650 915c0262 00512bd6 00000002 91580140  .\.b.Q+......X.@
 0660 02000053 0ed60000 0002916c 000e4702  ...S.......l..G.
 0670 00003d16 79000000 78010100 a8000000  ..=.y...x.......
 0680 019c9206 00000bd5 0000003d 29790000  ...........=)y..
 0690 0002915c 0b600100 003d4179 00000002  ...\.`...=Ay....
 06a0 915801ad 01000042 13790000 0002916c  .X.....B.y.....l
 06b0 0aa40101 00640000 00036900 440e9a00  .....d....i.D...
 06c0 00000291 6800000e da010000 28167900  ....h.......(.y.
 06d0 0000b400 0100c400 0000019c fa060000  ................
 06e0 0bd50000 00282979 00000002 915c0b60  .....()y.....\.`
 06f0 01000028 41790000 00029158 017e0000  ...(Ay.....X.~..
 0700 002d1379 00000002 916c01ad 0100002e  .-.y.....l......
 0710 13790000 00029168 0ae40001 007c0000  .y.....h.....|..
 0720 00036900 300e9a00 00000291 64000018  ..i.0.......d...
 0730 c2000000 051f0906 0100003c 00010078  ...........<...x
 0740 00000001 9c550700 000b6801 00001e14  .....U....h.....
 0750 06010000 02915c02 73726300 1e265507  ......\.src..&U.
 0760 00000291 58026e00 1e32f300 00000291  ....X.n..2......
 0770 54036400 200e5b07 00000291 6c037300  T.d. .[.....l.s.
 0780 21146007 00000291 68000d5a 07000019  !.`.....h..Z....
 0790 0da80000 000db400 000000             ...........     
Contents of section .debug_abbrev:
 0000 01110110 06110112 01030e1b 0e250e13  .............%..
 0010 05000002 2e00030e 3f0c1101 12010000  ........?.......
 0020 00013400 030e3a21 013b0b39 0b491302  ..4...:!.;.9.I..
 0030 18000002 05000308 3a21013b 0b390b49  ........:!.;.9.I
 0040 13021800 00033400 03083a21 013b0b39  ......4...:!.;.9
 0050 0b491302 18000004 24000b0b 3e0b030e  .I......$...>...
 0060 00000516 00030e3a 0b3b0b39 0b491300  .......:.;.9.I..
 0070 00060b01 11011206 01130000 07340003  .............4..
 0080 0e3a2101 3b053921 05491302 18000008  .:!.;.9!.I......
 0090 01014913 01130000 09210049 132f0b00  ..I......!.I./..
 00a0 000a0b01 11011206 00000b05 00030e3a  ...............:
 00b0 21013b0b 390b4913 02180000 0c260049  !.;.9.I......&.I
 00c0 1300000d 0f000b21 04491300 000e2e01  .......!.I......
 00d0 030e3a21 013b0b39 0b271949 13110112  ..:!.;.9.'.I....
 00e0 0640187a 19011300 000f2e01 3f19030e  .@.z........?...
 00f0 3a21013b 0b39210a 27194913 11011206  :!.;.9!.'.I.....
 0100 40187c19 01130000 102e0103 0e3a2101  @.|..........:!.
 0110 3b0b3921 0d271911 01120640 187c1901  ;.9!.'.....@.|..
 0120 13000011 1101250e 130b031f 1b1f1101  ......%.........
 0130 12061017 00001224 000b0b3e 0b030800  .......$...>....
 0140 00130f00 0b0b0000 142e013f 19030e3a  ...........?...:
 0150 0b3b0539 0b491311 01120640 187c1901  .;.9.I.....@.|..
 0160 13000015 34000308 3a0b3b05 390b4913  ....4...:.;.9.I.
 0170 02180000 162e0103 083a0b3b 0b390b27  .........:.;.9.'
 0180 19491311 01120640 187a1901 13000017  .I.....@.z......
 0190 2e01030e 3a0b3b0b 390b2719 11011206  ....:.;.9.'.....
 01a0 40187a19 01130000 182e013f 19030e3a  @.z........?...:
 01b0 0b3b0b39 0b271949 13110112 0640187a  .;.9.'.I.....@.z
 01c0 19011300 00192600 000000             ......&....     
Contents of section .debug_aranges:
 0000 1c000000 02000000 00000400 00000000  ................
 0010 00000100 3c000000 00000000 00000000  ....<...........
 0020 1c000000 02003500 00000400 00000000  ......5.........
 0030 3c000100 64100000 00000000 00000000  <...d...........
Contents of section .debug_str:
 0000 73746172 742e5300 2f686f6d 652f6766  start.S./home/gf
 0010 6667332f 72697363 762d6e6f 6e652d65  fg3/riscv-none-e
 0020 6c662d67 63632f72 76333265 6d753031  lf-gcc/rv32emu01
 0030 30322f72 76333265 6d752f74 65737473  02/rv32emu/tests
 0040 2f737973 74656d2f 7175697a 335f7072  /system/quiz3_pr
 0050 6f626c65 6d5f6300 474e5520 41532032  oblem_c.GNU AS 2
 0060 2e34332e 31005f73 74617274 0073697a  .43.1._start.siz
 0070 655f7400 5f5f7569 6e74385f 74007175  e_t.__uint8_t.qu
 0080 6f746965 6e740070 72696e74 5f646563  otient.print_dec
 0090 006c6f6e 67206c6f 6e672075 6e736967  .long long unsig
 00a0 6e656420 696e7400 64656c74 61006c6f  ned int.delta.lo
 00b0 6e67206c 6f6e6720 696e7400 64696769  ng long int.digi
 00c0 74006d65 6d637079 006e6577 746f6e5f  t.memcpy.newton_
 00d0 73746570 00646976 6964656e 64005f5f  step.dividend.__
 00e0 75696e74 33325f74 00666173 745f6469  uint32_t.fast_di
 00f0 7374616e 63655f33 6400696e 765f6469  stance_3d.inv_di
 0100 73740066 6173745f 72737172 74006d75  st.fast_rsqrt.mu
 0110 6c333200 72737172 745f7461 626c6500  l32.rsqrt_table.
 0120 5f6d7367 00707269 6e745f68 65780073  _msg.print_hex.s
 0130 686f7274 20756e73 69676e65 6420696e  hort unsigned in
 0140 74007265 635f696e 765f7371 72740069  t.rec_inv_sqrt.i
 0150 74657200 6c6f6e67 20646f75 626c6500  ter.long double.
 0160 64697669 736f7200 64657374 00646973  divisor.dest.dis
 0170 745f7371 005f5f75 696e7436 345f7400  t_sq.__uint64_t.
 0180 66726163 00756e73 69676e65 64206368  frac.unsigned ch
 0190 61720073 686f7274 20696e74 00795f6e  ar.short int.y_n
 01a0 65787400 5f5f6d75 6c736933 0072656d  ext.__mulsi3.rem
 01b0 61696e64 6572005f 5f75696e 7431365f  ainder.__uint16_
 01c0 74005f5f 696e7433 325f7400 756d756c  t.__int32_t.umul
 01d0 00696e76 73717274 32007564 69760047  .invsqrt2.udiv.G
 01e0 4e552043 31372031 342e322e 30202d6d  NU C17 14.2.0 -m
 01f0 6162693d 696c7033 32202d6d 6973612d  abi=ilp32 -misa-
 0200 73706563 3d323031 39313231 33202d6d  spec=20191213 -m
 0210 61726368 3d727633 32695f7a 69637372  arch=rv32i_zicsr
 0220 202d6700 696e765f 73717274 5f636163   -g.inv_sqrt_cac
 0230 6865006d 61696e00 696e7673 71727400  he.main.invsqrt.
 0240 72657375 6c740075 6d6f6400           result.umod.    
Contents of section .debug_line_str:
 0000 2f686f6d 652f6766 6667332f 72697363  /home/gffg3/risc
 0010 762d6e6f 6e652d65 6c662d67 63632f72  v-none-elf-gcc/r
 0020 76333265 6d753031 30322f72 76333265  v32emu0102/rv32e
 0030 6d752f74 65737473 2f737973 74656d2f  mu/tests/system/
 0040 7175697a 335f7072 6f626c65 6d5f6300  quiz3_problem_c.
 0050 6d61696e 2e63002f 686f6d65 2f676666  main.c./home/gff
 0060 67332f72 69736376 2d6e6f6e 652d656c  g3/riscv-none-el
 0070 662d6763 632f7870 61636b2d 72697363  f-gcc/xpack-risc
 0080 762d6e6f 6e652d65 6c662d67 63632d31  v-none-elf-gcc-1
 0090 342e322e 302d332f 72697363 762d6e6f  4.2.0-3/riscv-no
 00a0 6e652d65 6c662f69 6e636c75 64652f6d  ne-elf/include/m
 00b0 61636869 6e65002f 686f6d65 2f676666  achine./home/gff
 00c0 67332f72 69736376 2d6e6f6e 652d656c  g3/riscv-none-el
 00d0 662d6763 632f7870 61636b2d 72697363  f-gcc/xpack-risc
 00e0 762d6e6f 6e652d65 6c662d67 63632d31  v-none-elf-gcc-1
 00f0 342e322e 302d332f 72697363 762d6e6f  4.2.0-3/riscv-no
 0100 6e652d65 6c662f69 6e636c75 64652f73  ne-elf/include/s
 0110 7973002f 686f6d65 2f676666 67332f72  ys./home/gffg3/r
 0120 69736376 2d6e6f6e 652d656c 662d6763  iscv-none-elf-gc
 0130 632f7870 61636b2d 72697363 762d6e6f  c/xpack-riscv-no
 0140 6e652d65 6c662d67 63632d31 342e322e  ne-elf-gcc-14.2.
 0150 302d332f 6c69622f 6763632f 72697363  0-3/lib/gcc/risc
 0160 762d6e6f 6e652d65 6c662f31 342e322e  v-none-elf/14.2.
 0170 302f696e 636c7564 65002f68 6f6d652f  0/include./home/
 0180 67666667 332f7269 7363762d 6e6f6e65  gffg3/riscv-none
 0190 2d656c66 2d676363 2f787061 636b2d72  -elf-gcc/xpack-r
 01a0 69736376 2d6e6f6e 652d656c 662d6763  iscv-none-elf-gc
 01b0 632d3134 2e322e30 2d332f72 69736376  c-14.2.0-3/riscv
 01c0 2d6e6f6e 652d656c 662f696e 636c7564  -none-elf/includ
 01d0 65005f64 65666175 6c745f74 79706573  e._default_types
 01e0 2e68005f 73746469 6e742e68 00737464  .h._stdint.h.std
 01f0 6465662e 68007374 72696e67 2e6800    def.h.string.h. 
Contents of section .debug_frame:
 0000 0c000000 ffffffff 0300017c 010c0200  ...........|....
 0010 24000000 00000000 3c000100 78000000  $.......<...x...
 0020 440e3048 81018802 440c0800 025cc144  D.0H....D....\.D
 0030 c80c0230 440e0000 24000000 00000000  ...0D...$.......
 0040 b4000100 c4000000 440e3048 81018802  ........D.0H....
 0050 440c0800 02a8c144 c80c0230 440e0000  D......D...0D...
 0060 24000000 00000000 78010100 a8000000  $.......x.......
 0070 440e3048 81018802 440c0800 028cc144  D.0H....D......D
 0080 c80c0230 440e0000 24000000 00000000  ...0D...$.......
 0090 20020100 74000000 440e3048 81018802   ...t...D.0H....
 00a0 440c0800 0258c144 c80c0230 440e0000  D....X.D...0D...
 00b0 24000000 00000000 94020100 3c000000  $...........<...
 00c0 440e2048 81018802 440c0800 60c144c8  D. H....D...`.D.
 00d0 0c022044 0e000000 24000000 00000000  .. D....$.......
 00e0 d0020100 08010000 440e4048 81018802  ........D.@H....
 00f0 440c0800 02ecc144 c80c0240 440e0000  D......D...@D...
 0100 24000000 00000000 d8030100 ec000000  $...............
 0110 440e4048 81018802 440c0800 02d0c144  D.@H....D......D
 0120 c80c0240 440e0000 4c000000 00000000  ...@D...L.......
 0130 c4040100 94010000 440e5070 81018802  ........D.Pp....
 0140 92039304 94059506 96079708 9809990a  ................
 0150 9a0b9b0c 440c0800 032801c1 44c80c02  ....D....(..D...
 0160 5044d244 d344d444 d544d644 d744d844  PD.D.D.D.D.D.D.D
 0170 d944da44 db440e00 4c000000 00000000  .D.D.D..L.......
 0180 58060100 78020000 440e6070 81018802  X...x...D.`p....
 0190 92039304 94059506 96079708 9809990a  ................
 01a0 9a0b9b0c 440c0800 030c02c1 44c80c02  ....D.......D...
 01b0 6044d244 d344d444 d544d644 d744d844  `D.D.D.D.D.D.D.D
 01c0 d944da44 db440e00 24000000 00000000  .D.D.D..$.......
 01d0 d0080100 f4000000 440e3048 81018802  ........D.0H....
 01e0 440c0800 02d8c144 c80c0230 440e0000  D......D...0D...
 01f0 24000000 00000000 c4090100 e4000000  $...............
 0200 440e3048 81018802 440c0800 02c8c144  D.0H....D......D
 0210 c80c0230 440e0000 4c000000 00000000  ...0D...L.......
 0220 a80a0100 0c020000 440e7070 81018802  ........D.pp....
 0230 92039304 94059506 96079708 9809990a  ................
 0240 9a0b9b0c 440c0800 03a001c1 44c80c02  ....D.......D...
 0250 7044d244 d344d444 d544d644 d744d844  pD.D.D.D.D.D.D.D
 0260 d944da44 db440e00 28000000 00000000  .D.D.D..(.......
 0270 b40c0100 ec030000 440e8002 48810188  ........D...H...
 0280 02440c08 0003d003 c144c80c 02800244  .D.......D.....D
 0290 0e000000                             ....            

Disassembly of section .text:

00010000 <_start>:
   10000:	00002117          	auipc	sp,0x2
   10004:	22010113          	addi	sp,sp,544 # 12220 <__stack_top>
   10008:	00001297          	auipc	t0,0x1
   1000c:	21828293          	addi	t0,t0,536 # 11220 <__bss_end>
   10010:	00001317          	auipc	t1,0x1
   10014:	21030313          	addi	t1,t1,528 # 11220 <__bss_end>
   10018:	0062d863          	bge	t0,t1,10028 <_start+0x28>
   1001c:	0002a023          	sw	zero,0(t0)
   10020:	00428293          	addi	t0,t0,4
   10024:	ff5ff06f          	j	10018 <_start+0x18>
   10028:	48d000ef          	jal	10cb4 <main>
   1002c:	05d00893          	li	a7,93
   10030:	00000513          	li	a0,0
   10034:	00000073          	ecall
   10038:	0000006f          	j	10038 <_start+0x38>

0001003c <memcpy>:
   1003c:	fd010113          	addi	sp,sp,-48
   10040:	02112623          	sw	ra,44(sp)
   10044:	02812423          	sw	s0,40(sp)
   10048:	03010413          	addi	s0,sp,48
   1004c:	fca42e23          	sw	a0,-36(s0)
   10050:	fcb42c23          	sw	a1,-40(s0)
   10054:	fcc42a23          	sw	a2,-44(s0)
   10058:	fdc42783          	lw	a5,-36(s0)
   1005c:	fef42623          	sw	a5,-20(s0)
   10060:	fd842783          	lw	a5,-40(s0)
   10064:	fef42423          	sw	a5,-24(s0)
   10068:	0240006f          	j	1008c <memcpy+0x50>
   1006c:	fe842703          	lw	a4,-24(s0)
   10070:	00170793          	addi	a5,a4,1
   10074:	fef42423          	sw	a5,-24(s0)
   10078:	fec42783          	lw	a5,-20(s0)
   1007c:	00178693          	addi	a3,a5,1
   10080:	fed42623          	sw	a3,-20(s0)
   10084:	00074703          	lbu	a4,0(a4)
   10088:	00e78023          	sb	a4,0(a5)
   1008c:	fd442783          	lw	a5,-44(s0)
   10090:	fff78713          	addi	a4,a5,-1
   10094:	fce42a23          	sw	a4,-44(s0)
   10098:	fc079ae3          	bnez	a5,1006c <memcpy+0x30>
   1009c:	fdc42783          	lw	a5,-36(s0)
   100a0:	00078513          	mv	a0,a5
   100a4:	02c12083          	lw	ra,44(sp)
   100a8:	02812403          	lw	s0,40(sp)
   100ac:	03010113          	addi	sp,sp,48
   100b0:	00008067          	ret

000100b4 <udiv>:
   100b4:	fd010113          	addi	sp,sp,-48
   100b8:	02112623          	sw	ra,44(sp)
   100bc:	02812423          	sw	s0,40(sp)
   100c0:	03010413          	addi	s0,sp,48
   100c4:	fca42e23          	sw	a0,-36(s0)
   100c8:	fcb42c23          	sw	a1,-40(s0)
   100cc:	fd842783          	lw	a5,-40(s0)
   100d0:	00079663          	bnez	a5,100dc <udiv+0x28>
   100d4:	00000793          	li	a5,0
   100d8:	08c0006f          	j	10164 <udiv+0xb0>
   100dc:	fe042623          	sw	zero,-20(s0)
   100e0:	fe042423          	sw	zero,-24(s0)
   100e4:	01f00793          	li	a5,31
   100e8:	fef42223          	sw	a5,-28(s0)
   100ec:	06c0006f          	j	10158 <udiv+0xa4>
   100f0:	fe842783          	lw	a5,-24(s0)
   100f4:	00179793          	slli	a5,a5,0x1
   100f8:	fef42423          	sw	a5,-24(s0)
   100fc:	fe442783          	lw	a5,-28(s0)
   10100:	fdc42703          	lw	a4,-36(s0)
   10104:	00f757b3          	srl	a5,a4,a5
   10108:	0017f793          	andi	a5,a5,1
   1010c:	fe842703          	lw	a4,-24(s0)
   10110:	00f767b3          	or	a5,a4,a5
   10114:	fef42423          	sw	a5,-24(s0)
   10118:	fe842703          	lw	a4,-24(s0)
   1011c:	fd842783          	lw	a5,-40(s0)
   10120:	02f76663          	bltu	a4,a5,1014c <udiv+0x98>
   10124:	fe842703          	lw	a4,-24(s0)
   10128:	fd842783          	lw	a5,-40(s0)
   1012c:	40f707b3          	sub	a5,a4,a5
   10130:	fef42423          	sw	a5,-24(s0)
   10134:	fe442783          	lw	a5,-28(s0)
   10138:	00100713          	li	a4,1
   1013c:	00f717b3          	sll	a5,a4,a5
   10140:	fec42703          	lw	a4,-20(s0)
   10144:	00f767b3          	or	a5,a4,a5
   10148:	fef42623          	sw	a5,-20(s0)
   1014c:	fe442783          	lw	a5,-28(s0)
   10150:	fff78793          	addi	a5,a5,-1
   10154:	fef42223          	sw	a5,-28(s0)
   10158:	fe442783          	lw	a5,-28(s0)
   1015c:	f807dae3          	bgez	a5,100f0 <udiv+0x3c>
   10160:	fec42783          	lw	a5,-20(s0)
   10164:	00078513          	mv	a0,a5
   10168:	02c12083          	lw	ra,44(sp)
   1016c:	02812403          	lw	s0,40(sp)
   10170:	03010113          	addi	sp,sp,48
   10174:	00008067          	ret

00010178 <umod>:
   10178:	fd010113          	addi	sp,sp,-48
   1017c:	02112623          	sw	ra,44(sp)
   10180:	02812423          	sw	s0,40(sp)
   10184:	03010413          	addi	s0,sp,48
   10188:	fca42e23          	sw	a0,-36(s0)
   1018c:	fcb42c23          	sw	a1,-40(s0)
   10190:	fd842783          	lw	a5,-40(s0)
   10194:	00079663          	bnez	a5,101a0 <umod+0x28>
   10198:	00000793          	li	a5,0
   1019c:	0700006f          	j	1020c <umod+0x94>
   101a0:	fe042623          	sw	zero,-20(s0)
   101a4:	01f00793          	li	a5,31
   101a8:	fef42423          	sw	a5,-24(s0)
   101ac:	0540006f          	j	10200 <umod+0x88>
   101b0:	fec42783          	lw	a5,-20(s0)
   101b4:	00179793          	slli	a5,a5,0x1
   101b8:	fef42623          	sw	a5,-20(s0)
   101bc:	fe842783          	lw	a5,-24(s0)
   101c0:	fdc42703          	lw	a4,-36(s0)
   101c4:	00f757b3          	srl	a5,a4,a5
   101c8:	0017f793          	andi	a5,a5,1
   101cc:	fec42703          	lw	a4,-20(s0)
   101d0:	00f767b3          	or	a5,a4,a5
   101d4:	fef42623          	sw	a5,-20(s0)
   101d8:	fec42703          	lw	a4,-20(s0)
   101dc:	fd842783          	lw	a5,-40(s0)
   101e0:	00f76a63          	bltu	a4,a5,101f4 <umod+0x7c>
   101e4:	fec42703          	lw	a4,-20(s0)
   101e8:	fd842783          	lw	a5,-40(s0)
   101ec:	40f707b3          	sub	a5,a4,a5
   101f0:	fef42623          	sw	a5,-20(s0)
   101f4:	fe842783          	lw	a5,-24(s0)
   101f8:	fff78793          	addi	a5,a5,-1
   101fc:	fef42423          	sw	a5,-24(s0)
   10200:	fe842783          	lw	a5,-24(s0)
   10204:	fa07d6e3          	bgez	a5,101b0 <umod+0x38>
   10208:	fec42783          	lw	a5,-20(s0)
   1020c:	00078513          	mv	a0,a5
   10210:	02c12083          	lw	ra,44(sp)
   10214:	02812403          	lw	s0,40(sp)
   10218:	03010113          	addi	sp,sp,48
   1021c:	00008067          	ret

00010220 <umul>:
   10220:	fd010113          	addi	sp,sp,-48
   10224:	02112623          	sw	ra,44(sp)
   10228:	02812423          	sw	s0,40(sp)
   1022c:	03010413          	addi	s0,sp,48
   10230:	fca42e23          	sw	a0,-36(s0)
   10234:	fcb42c23          	sw	a1,-40(s0)
   10238:	fe042623          	sw	zero,-20(s0)
   1023c:	0380006f          	j	10274 <umul+0x54>
   10240:	fd842783          	lw	a5,-40(s0)
   10244:	0017f793          	andi	a5,a5,1
   10248:	00078a63          	beqz	a5,1025c <umul+0x3c>
   1024c:	fec42703          	lw	a4,-20(s0)
   10250:	fdc42783          	lw	a5,-36(s0)
   10254:	00f707b3          	add	a5,a4,a5
   10258:	fef42623          	sw	a5,-20(s0)
   1025c:	fdc42783          	lw	a5,-36(s0)
   10260:	00179793          	slli	a5,a5,0x1
   10264:	fcf42e23          	sw	a5,-36(s0)
   10268:	fd842783          	lw	a5,-40(s0)
   1026c:	0017d793          	srli	a5,a5,0x1
   10270:	fcf42c23          	sw	a5,-40(s0)
   10274:	fd842783          	lw	a5,-40(s0)
   10278:	fc0794e3          	bnez	a5,10240 <umul+0x20>
   1027c:	fec42783          	lw	a5,-20(s0)
   10280:	00078513          	mv	a0,a5
   10284:	02c12083          	lw	ra,44(sp)
   10288:	02812403          	lw	s0,40(sp)
   1028c:	03010113          	addi	sp,sp,48
   10290:	00008067          	ret

00010294 <__mulsi3>:
   10294:	fe010113          	addi	sp,sp,-32
   10298:	00112e23          	sw	ra,28(sp)
   1029c:	00812c23          	sw	s0,24(sp)
   102a0:	02010413          	addi	s0,sp,32
   102a4:	fea42623          	sw	a0,-20(s0)
   102a8:	feb42423          	sw	a1,-24(s0)
   102ac:	fe842583          	lw	a1,-24(s0)
   102b0:	fec42503          	lw	a0,-20(s0)
   102b4:	f6dff0ef          	jal	10220 <umul>
   102b8:	00050793          	mv	a5,a0
   102bc:	00078513          	mv	a0,a5
   102c0:	01c12083          	lw	ra,28(sp)
   102c4:	01812403          	lw	s0,24(sp)
   102c8:	02010113          	addi	sp,sp,32
   102cc:	00008067          	ret

000102d0 <print_hex>:
   102d0:	fc010113          	addi	sp,sp,-64
   102d4:	02112e23          	sw	ra,60(sp)
   102d8:	02812c23          	sw	s0,56(sp)
   102dc:	04010413          	addi	s0,sp,64
   102e0:	fca42623          	sw	a0,-52(s0)
   102e4:	fd440793          	addi	a5,s0,-44
   102e8:	01378793          	addi	a5,a5,19
   102ec:	fef42623          	sw	a5,-20(s0)
   102f0:	fec42783          	lw	a5,-20(s0)
   102f4:	00a00713          	li	a4,10
   102f8:	00e78023          	sb	a4,0(a5)
   102fc:	fec42783          	lw	a5,-20(s0)
   10300:	fff78793          	addi	a5,a5,-1
   10304:	fef42623          	sw	a5,-20(s0)
   10308:	fcc42783          	lw	a5,-52(s0)
   1030c:	06079e63          	bnez	a5,10388 <print_hex+0xb8>
   10310:	fec42783          	lw	a5,-20(s0)
   10314:	03000713          	li	a4,48
   10318:	00e78023          	sb	a4,0(a5)
   1031c:	fec42783          	lw	a5,-20(s0)
   10320:	fff78793          	addi	a5,a5,-1
   10324:	fef42623          	sw	a5,-20(s0)
   10328:	0680006f          	j	10390 <print_hex+0xc0>
   1032c:	fcc42783          	lw	a5,-52(s0)
   10330:	00f7f793          	andi	a5,a5,15
   10334:	fef42423          	sw	a5,-24(s0)
   10338:	fe842703          	lw	a4,-24(s0)
   1033c:	00900793          	li	a5,9
   10340:	00e7cc63          	blt	a5,a4,10358 <print_hex+0x88>
   10344:	fe842783          	lw	a5,-24(s0)
   10348:	0ff7f793          	zext.b	a5,a5
   1034c:	03078793          	addi	a5,a5,48
   10350:	0ff7f793          	zext.b	a5,a5
   10354:	0140006f          	j	10368 <print_hex+0x98>
   10358:	fe842783          	lw	a5,-24(s0)
   1035c:	0ff7f793          	zext.b	a5,a5
   10360:	05778793          	addi	a5,a5,87
   10364:	0ff7f793          	zext.b	a5,a5
   10368:	fec42703          	lw	a4,-20(s0)
   1036c:	00f70023          	sb	a5,0(a4)
   10370:	fec42783          	lw	a5,-20(s0)
   10374:	fff78793          	addi	a5,a5,-1
   10378:	fef42623          	sw	a5,-20(s0)
   1037c:	fcc42783          	lw	a5,-52(s0)
   10380:	0047d793          	srli	a5,a5,0x4
   10384:	fcf42623          	sw	a5,-52(s0)
   10388:	fcc42783          	lw	a5,-52(s0)
   1038c:	fa0790e3          	bnez	a5,1032c <print_hex+0x5c>
   10390:	fec42783          	lw	a5,-20(s0)
   10394:	00178793          	addi	a5,a5,1
   10398:	fef42623          	sw	a5,-20(s0)
   1039c:	fd440793          	addi	a5,s0,-44
   103a0:	01478793          	addi	a5,a5,20
   103a4:	fec42703          	lw	a4,-20(s0)
   103a8:	40e78733          	sub	a4,a5,a4
   103ac:	fec42783          	lw	a5,-20(s0)
   103b0:	04000893          	li	a7,64
   103b4:	00100513          	li	a0,1
   103b8:	00f005b3          	add	a1,zero,a5
   103bc:	00070613          	mv	a2,a4
   103c0:	00000073          	ecall
   103c4:	00000013          	nop
   103c8:	03c12083          	lw	ra,60(sp)
   103cc:	03812403          	lw	s0,56(sp)
   103d0:	04010113          	addi	sp,sp,64
   103d4:	00008067          	ret

000103d8 <print_dec>:
   103d8:	fc010113          	addi	sp,sp,-64
   103dc:	02112e23          	sw	ra,60(sp)
   103e0:	02812c23          	sw	s0,56(sp)
   103e4:	04010413          	addi	s0,sp,64
   103e8:	fca42623          	sw	a0,-52(s0)
   103ec:	fd840793          	addi	a5,s0,-40
   103f0:	01378793          	addi	a5,a5,19
   103f4:	fef42623          	sw	a5,-20(s0)
   103f8:	fec42783          	lw	a5,-20(s0)
   103fc:	00a00713          	li	a4,10
   10400:	00e78023          	sb	a4,0(a5)
   10404:	fec42783          	lw	a5,-20(s0)
   10408:	fff78793          	addi	a5,a5,-1
   1040c:	fef42623          	sw	a5,-20(s0)
   10410:	fcc42783          	lw	a5,-52(s0)
   10414:	06079063          	bnez	a5,10474 <print_dec+0x9c>
   10418:	fec42783          	lw	a5,-20(s0)
   1041c:	03000713          	li	a4,48
   10420:	00e78023          	sb	a4,0(a5)
   10424:	fec42783          	lw	a5,-20(s0)
   10428:	fff78793          	addi	a5,a5,-1
   1042c:	fef42623          	sw	a5,-20(s0)
   10430:	04c0006f          	j	1047c <print_dec+0xa4>
   10434:	00a00593          	li	a1,10
   10438:	fcc42503          	lw	a0,-52(s0)
   1043c:	d3dff0ef          	jal	10178 <umod>
   10440:	00050793          	mv	a5,a0
   10444:	0ff7f793          	zext.b	a5,a5
   10448:	03078793          	addi	a5,a5,48
   1044c:	0ff7f713          	zext.b	a4,a5
   10450:	fec42783          	lw	a5,-20(s0)
   10454:	00e78023          	sb	a4,0(a5)
   10458:	fec42783          	lw	a5,-20(s0)
   1045c:	fff78793          	addi	a5,a5,-1
   10460:	fef42623          	sw	a5,-20(s0)
   10464:	00a00593          	li	a1,10
   10468:	fcc42503          	lw	a0,-52(s0)
   1046c:	c49ff0ef          	jal	100b4 <udiv>
   10470:	fca42623          	sw	a0,-52(s0)
   10474:	fcc42783          	lw	a5,-52(s0)
   10478:	fa079ee3          	bnez	a5,10434 <print_dec+0x5c>
   1047c:	fec42783          	lw	a5,-20(s0)
   10480:	00178793          	addi	a5,a5,1
   10484:	fef42623          	sw	a5,-20(s0)
   10488:	fd840793          	addi	a5,s0,-40
   1048c:	01478793          	addi	a5,a5,20
   10490:	fec42703          	lw	a4,-20(s0)
   10494:	40e78733          	sub	a4,a5,a4
   10498:	fec42783          	lw	a5,-20(s0)
   1049c:	04000893          	li	a7,64
   104a0:	00100513          	li	a0,1
   104a4:	00f005b3          	add	a1,zero,a5
   104a8:	00070613          	mv	a2,a4
   104ac:	00000073          	ecall
   104b0:	00000013          	nop
   104b4:	03c12083          	lw	ra,60(sp)
   104b8:	03812403          	lw	s0,56(sp)
   104bc:	04010113          	addi	sp,sp,64
   104c0:	00008067          	ret

000104c4 <newton_step>:
   104c4:	fb010113          	addi	sp,sp,-80
   104c8:	04112623          	sw	ra,76(sp)
   104cc:	04812423          	sw	s0,72(sp)
   104d0:	05212223          	sw	s2,68(sp)
   104d4:	05312023          	sw	s3,64(sp)
   104d8:	03412e23          	sw	s4,60(sp)
   104dc:	03512c23          	sw	s5,56(sp)
   104e0:	03612a23          	sw	s6,52(sp)
   104e4:	03712823          	sw	s7,48(sp)
   104e8:	03812623          	sw	s8,44(sp)
   104ec:	03912423          	sw	s9,40(sp)
   104f0:	03a12223          	sw	s10,36(sp)
   104f4:	03b12023          	sw	s11,32(sp)
   104f8:	05010413          	addi	s0,sp,80
   104fc:	faa42e23          	sw	a0,-68(s0)
   10500:	fab42c23          	sw	a1,-72(s0)
   10504:	fbc42583          	lw	a1,-68(s0)
   10508:	0005a583          	lw	a1,0(a1)
   1050c:	fcb42623          	sw	a1,-52(s0)
   10510:	fcc42583          	lw	a1,-52(s0)
   10514:	00058713          	mv	a4,a1
   10518:	00000793          	li	a5,0
   1051c:	fcc42583          	lw	a1,-52(s0)
   10520:	00058613          	mv	a2,a1
   10524:	00000693          	li	a3,0
   10528:	00070513          	mv	a0,a4
   1052c:	00078593          	mv	a1,a5
   10530:	371000ef          	jal	110a0 <__muldi3>
   10534:	00050713          	mv	a4,a0
   10538:	00058793          	mv	a5,a1
   1053c:	0007da13          	srli	s4,a5,0x0
   10540:	00000a93          	li	s5,0
   10544:	fd442423          	sw	s4,-56(s0)
   10548:	fb842783          	lw	a5,-72(s0)
   1054c:	00078c13          	mv	s8,a5
   10550:	00000c93          	li	s9,0
   10554:	fc842783          	lw	a5,-56(s0)
   10558:	00078d13          	mv	s10,a5
   1055c:	00000d93          	li	s11,0
   10560:	000d0613          	mv	a2,s10
   10564:	000d8693          	mv	a3,s11
   10568:	000c0513          	mv	a0,s8
   1056c:	000c8593          	mv	a1,s9
   10570:	331000ef          	jal	110a0 <__muldi3>
   10574:	00050713          	mv	a4,a0
   10578:	00058793          	mv	a5,a1
   1057c:	00070513          	mv	a0,a4
   10580:	00078593          	mv	a1,a5
   10584:	00000613          	li	a2,0
   10588:	00300693          	li	a3,3
   1058c:	40a60733          	sub	a4,a2,a0
   10590:	00070813          	mv	a6,a4
   10594:	01063833          	sltu	a6,a2,a6
   10598:	40b687b3          	sub	a5,a3,a1
   1059c:	410786b3          	sub	a3,a5,a6
   105a0:	00068793          	mv	a5,a3
   105a4:	fce42023          	sw	a4,-64(s0)
   105a8:	fcf42223          	sw	a5,-60(s0)
   105ac:	fc442783          	lw	a5,-60(s0)
   105b0:	01e79793          	slli	a5,a5,0x1e
   105b4:	fc042703          	lw	a4,-64(s0)
   105b8:	00275913          	srli	s2,a4,0x2
   105bc:	0127e933          	or	s2,a5,s2
   105c0:	fc442783          	lw	a5,-60(s0)
   105c4:	0027d993          	srli	s3,a5,0x2
   105c8:	fd242023          	sw	s2,-64(s0)
   105cc:	fd342223          	sw	s3,-60(s0)
   105d0:	fcc42783          	lw	a5,-52(s0)
   105d4:	00078b13          	mv	s6,a5
   105d8:	00000b93          	li	s7,0
   105dc:	fc042603          	lw	a2,-64(s0)
   105e0:	fc442683          	lw	a3,-60(s0)
   105e4:	000b0513          	mv	a0,s6
   105e8:	000b8593          	mv	a1,s7
   105ec:	2b5000ef          	jal	110a0 <__muldi3>
   105f0:	00050713          	mv	a4,a0
   105f4:	00058793          	mv	a5,a1
   105f8:	00179693          	slli	a3,a5,0x1
   105fc:	01f75613          	srli	a2,a4,0x1f
   10600:	00d666b3          	or	a3,a2,a3
   10604:	fcd42023          	sw	a3,-64(s0)
   10608:	01f7d793          	srli	a5,a5,0x1f
   1060c:	fcf42223          	sw	a5,-60(s0)
   10610:	fc042703          	lw	a4,-64(s0)
   10614:	fbc42783          	lw	a5,-68(s0)
   10618:	00e7a023          	sw	a4,0(a5)
   1061c:	00000013          	nop
   10620:	04c12083          	lw	ra,76(sp)
   10624:	04812403          	lw	s0,72(sp)
   10628:	04412903          	lw	s2,68(sp)
   1062c:	04012983          	lw	s3,64(sp)
   10630:	03c12a03          	lw	s4,60(sp)
   10634:	03812a83          	lw	s5,56(sp)
   10638:	03412b03          	lw	s6,52(sp)
   1063c:	03012b83          	lw	s7,48(sp)
   10640:	02c12c03          	lw	s8,44(sp)
   10644:	02812c83          	lw	s9,40(sp)
   10648:	02412d03          	lw	s10,36(sp)
   1064c:	02012d83          	lw	s11,32(sp)
   10650:	05010113          	addi	sp,sp,80
   10654:	00008067          	ret

00010658 <fast_rsqrt>:
   10658:	fa010113          	addi	sp,sp,-96
   1065c:	04112e23          	sw	ra,92(sp)
   10660:	04812c23          	sw	s0,88(sp)
   10664:	05212a23          	sw	s2,84(sp)
   10668:	05312823          	sw	s3,80(sp)
   1066c:	05412623          	sw	s4,76(sp)
   10670:	05512423          	sw	s5,72(sp)
   10674:	05612223          	sw	s6,68(sp)
   10678:	05712023          	sw	s7,64(sp)
   1067c:	03812e23          	sw	s8,60(sp)
   10680:	03912c23          	sw	s9,56(sp)
   10684:	03a12a23          	sw	s10,52(sp)
   10688:	03b12823          	sw	s11,48(sp)
   1068c:	06010413          	addi	s0,sp,96
   10690:	faa42623          	sw	a0,-84(s0)
   10694:	fac42783          	lw	a5,-84(s0)
   10698:	00079663          	bnez	a5,106a4 <fast_rsqrt+0x4c>
   1069c:	fff00793          	li	a5,-1
   106a0:	1f40006f          	j	10894 <fast_rsqrt+0x23c>
   106a4:	fac42703          	lw	a4,-84(s0)
   106a8:	00100793          	li	a5,1
   106ac:	00f71663          	bne	a4,a5,106b8 <fast_rsqrt+0x60>
   106b0:	000107b7          	lui	a5,0x10
   106b4:	1e00006f          	j	10894 <fast_rsqrt+0x23c>
   106b8:	fac42503          	lw	a0,-84(s0)
   106bc:	308000ef          	jal	109c4 <clz>
   106c0:	00050713          	mv	a4,a0
   106c4:	01f00793          	li	a5,31
   106c8:	40e787b3          	sub	a5,a5,a4
   106cc:	fcf42223          	sw	a5,-60(s0)
   106d0:	000117b7          	lui	a5,0x11
   106d4:	13078713          	addi	a4,a5,304 # 11130 <rsqrt_table>
   106d8:	fc442783          	lw	a5,-60(s0)
   106dc:	00179793          	slli	a5,a5,0x1
   106e0:	00f707b3          	add	a5,a4,a5
   106e4:	0007d783          	lhu	a5,0(a5)
   106e8:	fcf42623          	sw	a5,-52(s0)
   106ec:	fc442783          	lw	a5,-60(s0)
   106f0:	00100713          	li	a4,1
   106f4:	00f717b3          	sll	a5,a4,a5
   106f8:	fac42703          	lw	a4,-84(s0)
   106fc:	10e7f063          	bgeu	a5,a4,107fc <fast_rsqrt+0x1a4>
   10700:	fc442703          	lw	a4,-60(s0)
   10704:	01e00793          	li	a5,30
   10708:	02e7c263          	blt	a5,a4,1072c <fast_rsqrt+0xd4>
   1070c:	fc442783          	lw	a5,-60(s0)
   10710:	00178793          	addi	a5,a5,1
   10714:	00011737          	lui	a4,0x11
   10718:	13070713          	addi	a4,a4,304 # 11130 <rsqrt_table>
   1071c:	00179793          	slli	a5,a5,0x1
   10720:	00f707b3          	add	a5,a4,a5
   10724:	0007d783          	lhu	a5,0(a5)
   10728:	0080006f          	j	10730 <fast_rsqrt+0xd8>
   1072c:	00000793          	li	a5,0
   10730:	fcf42023          	sw	a5,-64(s0)
   10734:	fcc42703          	lw	a4,-52(s0)
   10738:	fc042783          	lw	a5,-64(s0)
   1073c:	40f707b3          	sub	a5,a4,a5
   10740:	faf42e23          	sw	a5,-68(s0)
   10744:	fac42783          	lw	a5,-84(s0)
   10748:	00078d13          	mv	s10,a5
   1074c:	00000d93          	li	s11,0
   10750:	fc442783          	lw	a5,-60(s0)
   10754:	00100713          	li	a4,1
   10758:	00f717b3          	sll	a5,a4,a5
   1075c:	faf42023          	sw	a5,-96(s0)
   10760:	fa042223          	sw	zero,-92(s0)
   10764:	fa042583          	lw	a1,-96(s0)
   10768:	fa442603          	lw	a2,-92(s0)
   1076c:	00058693          	mv	a3,a1
   10770:	40dd0733          	sub	a4,s10,a3
   10774:	00070693          	mv	a3,a4
   10778:	00dd36b3          	sltu	a3,s10,a3
   1077c:	40cd87b3          	sub	a5,s11,a2
   10780:	40d786b3          	sub	a3,a5,a3
   10784:	00068793          	mv	a5,a3
   10788:	01075693          	srli	a3,a4,0x10
   1078c:	01079993          	slli	s3,a5,0x10
   10790:	0136e9b3          	or	s3,a3,s3
   10794:	01071913          	slli	s2,a4,0x10
   10798:	fc442783          	lw	a5,-60(s0)
   1079c:	fe078793          	addi	a5,a5,-32
   107a0:	0007c863          	bltz	a5,107b0 <fast_rsqrt+0x158>
   107a4:	00f9da33          	srl	s4,s3,a5
   107a8:	00000a93          	li	s5,0
   107ac:	02c0006f          	j	107d8 <fast_rsqrt+0x180>
   107b0:	00199713          	slli	a4,s3,0x1
   107b4:	01f00693          	li	a3,31
   107b8:	fc442783          	lw	a5,-60(s0)
   107bc:	40f687b3          	sub	a5,a3,a5
   107c0:	00f717b3          	sll	a5,a4,a5
   107c4:	fc442703          	lw	a4,-60(s0)
   107c8:	00e95a33          	srl	s4,s2,a4
   107cc:	0147ea33          	or	s4,a5,s4
   107d0:	fc442783          	lw	a5,-60(s0)
   107d4:	00f9dab3          	srl	s5,s3,a5
   107d8:	fb442c23          	sw	s4,-72(s0)
   107dc:	fb842583          	lw	a1,-72(s0)
   107e0:	fbc42503          	lw	a0,-68(s0)
   107e4:	ab1ff0ef          	jal	10294 <__mulsi3>
   107e8:	00050793          	mv	a5,a0
   107ec:	0107d793          	srli	a5,a5,0x10
   107f0:	fcc42703          	lw	a4,-52(s0)
   107f4:	40f707b3          	sub	a5,a4,a5
   107f8:	fcf42623          	sw	a5,-52(s0)
   107fc:	fc042423          	sw	zero,-56(s0)
   10800:	0840006f          	j	10884 <fast_rsqrt+0x22c>
   10804:	fcc42583          	lw	a1,-52(s0)
   10808:	fcc42503          	lw	a0,-52(s0)
   1080c:	0c4000ef          	jal	108d0 <mul32>
   10810:	00050713          	mv	a4,a0
   10814:	00058793          	mv	a5,a1
   10818:	fae42a23          	sw	a4,-76(s0)
   1081c:	fb442583          	lw	a1,-76(s0)
   10820:	fac42503          	lw	a0,-84(s0)
   10824:	0ac000ef          	jal	108d0 <mul32>
   10828:	00050713          	mv	a4,a0
   1082c:	00058793          	mv	a5,a1
   10830:	01079693          	slli	a3,a5,0x10
   10834:	01075b13          	srli	s6,a4,0x10
   10838:	0166eb33          	or	s6,a3,s6
   1083c:	0107db93          	srli	s7,a5,0x10
   10840:	fb642823          	sw	s6,-80(s0)
   10844:	00030737          	lui	a4,0x30
   10848:	fb042783          	lw	a5,-80(s0)
   1084c:	40f707b3          	sub	a5,a4,a5
   10850:	00078593          	mv	a1,a5
   10854:	fcc42503          	lw	a0,-52(s0)
   10858:	078000ef          	jal	108d0 <mul32>
   1085c:	00050713          	mv	a4,a0
   10860:	00058793          	mv	a5,a1
   10864:	00f79693          	slli	a3,a5,0xf
   10868:	01175c13          	srli	s8,a4,0x11
   1086c:	0186ec33          	or	s8,a3,s8
   10870:	0117dc93          	srli	s9,a5,0x11
   10874:	fd842623          	sw	s8,-52(s0)
   10878:	fc842783          	lw	a5,-56(s0)
   1087c:	00178793          	addi	a5,a5,1
   10880:	fcf42423          	sw	a5,-56(s0)
   10884:	fc842703          	lw	a4,-56(s0)
   10888:	00100793          	li	a5,1
   1088c:	f6e7dce3          	bge	a5,a4,10804 <fast_rsqrt+0x1ac>
   10890:	fcc42783          	lw	a5,-52(s0)
   10894:	00078513          	mv	a0,a5
   10898:	05c12083          	lw	ra,92(sp)
   1089c:	05812403          	lw	s0,88(sp)
   108a0:	05412903          	lw	s2,84(sp)
   108a4:	05012983          	lw	s3,80(sp)
   108a8:	04c12a03          	lw	s4,76(sp)
   108ac:	04812a83          	lw	s5,72(sp)
   108b0:	04412b03          	lw	s6,68(sp)
   108b4:	04012b83          	lw	s7,64(sp)
   108b8:	03c12c03          	lw	s8,60(sp)
   108bc:	03812c83          	lw	s9,56(sp)
   108c0:	03412d03          	lw	s10,52(sp)
   108c4:	03012d83          	lw	s11,48(sp)
   108c8:	06010113          	addi	sp,sp,96
   108cc:	00008067          	ret

000108d0 <mul32>:
   108d0:	fd010113          	addi	sp,sp,-48
   108d4:	02112623          	sw	ra,44(sp)
   108d8:	02812423          	sw	s0,40(sp)
   108dc:	03010413          	addi	s0,sp,48
   108e0:	fca42e23          	sw	a0,-36(s0)
   108e4:	fcb42c23          	sw	a1,-40(s0)
   108e8:	00000513          	li	a0,0
   108ec:	00000593          	li	a1,0
   108f0:	fea42423          	sw	a0,-24(s0)
   108f4:	feb42623          	sw	a1,-20(s0)
   108f8:	fe042223          	sw	zero,-28(s0)
   108fc:	09c0006f          	j	10998 <mul32+0xc8>
   10900:	fe442583          	lw	a1,-28(s0)
   10904:	00100513          	li	a0,1
   10908:	00b51533          	sll	a0,a0,a1
   1090c:	fd842583          	lw	a1,-40(s0)
   10910:	00b575b3          	and	a1,a0,a1
   10914:	06058c63          	beqz	a1,1098c <mul32+0xbc>
   10918:	fdc42583          	lw	a1,-36(s0)
   1091c:	00058613          	mv	a2,a1
   10920:	00000693          	li	a3,0
   10924:	fe442583          	lw	a1,-28(s0)
   10928:	fe058593          	addi	a1,a1,-32
   1092c:	0005c863          	bltz	a1,1093c <mul32+0x6c>
   10930:	00b617b3          	sll	a5,a2,a1
   10934:	00000713          	li	a4,0
   10938:	02c0006f          	j	10964 <mul32+0x94>
   1093c:	00165513          	srli	a0,a2,0x1
   10940:	01f00813          	li	a6,31
   10944:	fe442583          	lw	a1,-28(s0)
   10948:	40b805b3          	sub	a1,a6,a1
   1094c:	00b555b3          	srl	a1,a0,a1
   10950:	fe442503          	lw	a0,-28(s0)
   10954:	00a697b3          	sll	a5,a3,a0
   10958:	00f5e7b3          	or	a5,a1,a5
   1095c:	fe442583          	lw	a1,-28(s0)
   10960:	00b61733          	sll	a4,a2,a1
   10964:	fe842803          	lw	a6,-24(s0)
   10968:	fec42883          	lw	a7,-20(s0)
   1096c:	00e80533          	add	a0,a6,a4
   10970:	00050313          	mv	t1,a0
   10974:	01033333          	sltu	t1,t1,a6
   10978:	00f885b3          	add	a1,a7,a5
   1097c:	00b30833          	add	a6,t1,a1
   10980:	00080593          	mv	a1,a6
   10984:	fea42423          	sw	a0,-24(s0)
   10988:	feb42623          	sw	a1,-20(s0)
   1098c:	fe442583          	lw	a1,-28(s0)
   10990:	00158593          	addi	a1,a1,1
   10994:	feb42223          	sw	a1,-28(s0)
   10998:	fe442503          	lw	a0,-28(s0)
   1099c:	01f00593          	li	a1,31
   109a0:	f6a5d0e3          	bge	a1,a0,10900 <mul32+0x30>
   109a4:	fe842703          	lw	a4,-24(s0)
   109a8:	fec42783          	lw	a5,-20(s0)
   109ac:	00070513          	mv	a0,a4
   109b0:	00078593          	mv	a1,a5
   109b4:	02c12083          	lw	ra,44(sp)
   109b8:	02812403          	lw	s0,40(sp)
   109bc:	03010113          	addi	sp,sp,48
   109c0:	00008067          	ret

000109c4 <clz>:
   109c4:	fd010113          	addi	sp,sp,-48
   109c8:	02112623          	sw	ra,44(sp)
   109cc:	02812423          	sw	s0,40(sp)
   109d0:	03010413          	addi	s0,sp,48
   109d4:	fca42e23          	sw	a0,-36(s0)
   109d8:	fdc42783          	lw	a5,-36(s0)
   109dc:	00079663          	bnez	a5,109e8 <clz+0x24>
   109e0:	02000793          	li	a5,32
   109e4:	0b00006f          	j	10a94 <clz+0xd0>
   109e8:	fe042623          	sw	zero,-20(s0)
   109ec:	fdc42703          	lw	a4,-36(s0)
   109f0:	000107b7          	lui	a5,0x10
   109f4:	00f77e63          	bgeu	a4,a5,10a10 <clz+0x4c>
   109f8:	fec42783          	lw	a5,-20(s0)
   109fc:	01078793          	addi	a5,a5,16 # 10010 <_start+0x10>
   10a00:	fef42623          	sw	a5,-20(s0)
   10a04:	fdc42783          	lw	a5,-36(s0)
   10a08:	01079793          	slli	a5,a5,0x10
   10a0c:	fcf42e23          	sw	a5,-36(s0)
   10a10:	fdc42703          	lw	a4,-36(s0)
   10a14:	010007b7          	lui	a5,0x1000
   10a18:	00f77e63          	bgeu	a4,a5,10a34 <clz+0x70>
   10a1c:	fec42783          	lw	a5,-20(s0)
   10a20:	00878793          	addi	a5,a5,8 # 1000008 <__stack_top+0xfedde8>
   10a24:	fef42623          	sw	a5,-20(s0)
   10a28:	fdc42783          	lw	a5,-36(s0)
   10a2c:	00879793          	slli	a5,a5,0x8
   10a30:	fcf42e23          	sw	a5,-36(s0)
   10a34:	fdc42703          	lw	a4,-36(s0)
   10a38:	100007b7          	lui	a5,0x10000
   10a3c:	00f77e63          	bgeu	a4,a5,10a58 <clz+0x94>
   10a40:	fec42783          	lw	a5,-20(s0)
   10a44:	00478793          	addi	a5,a5,4 # 10000004 <__stack_top+0xffedde4>
   10a48:	fef42623          	sw	a5,-20(s0)
   10a4c:	fdc42783          	lw	a5,-36(s0)
   10a50:	00479793          	slli	a5,a5,0x4
   10a54:	fcf42e23          	sw	a5,-36(s0)
   10a58:	fdc42703          	lw	a4,-36(s0)
   10a5c:	400007b7          	lui	a5,0x40000
   10a60:	00f77e63          	bgeu	a4,a5,10a7c <clz+0xb8>
   10a64:	fec42783          	lw	a5,-20(s0)
   10a68:	00278793          	addi	a5,a5,2 # 40000002 <__stack_top+0x3ffedde2>
   10a6c:	fef42623          	sw	a5,-20(s0)
   10a70:	fdc42783          	lw	a5,-36(s0)
   10a74:	00279793          	slli	a5,a5,0x2
   10a78:	fcf42e23          	sw	a5,-36(s0)
   10a7c:	fdc42783          	lw	a5,-36(s0)
   10a80:	0007c863          	bltz	a5,10a90 <clz+0xcc>
   10a84:	fec42783          	lw	a5,-20(s0)
   10a88:	00178793          	addi	a5,a5,1
   10a8c:	fef42623          	sw	a5,-20(s0)
   10a90:	fec42783          	lw	a5,-20(s0)
   10a94:	00078513          	mv	a0,a5
   10a98:	02c12083          	lw	ra,44(sp)
   10a9c:	02812403          	lw	s0,40(sp)
   10aa0:	03010113          	addi	sp,sp,48
   10aa4:	00008067          	ret

00010aa8 <fast_distance_3d>:
   10aa8:	f9010113          	addi	sp,sp,-112
   10aac:	06112623          	sw	ra,108(sp)
   10ab0:	06812423          	sw	s0,104(sp)
   10ab4:	07212223          	sw	s2,100(sp)
   10ab8:	07312023          	sw	s3,96(sp)
   10abc:	05412e23          	sw	s4,92(sp)
   10ac0:	05512c23          	sw	s5,88(sp)
   10ac4:	05612a23          	sw	s6,84(sp)
   10ac8:	05712823          	sw	s7,80(sp)
   10acc:	05812623          	sw	s8,76(sp)
   10ad0:	05912423          	sw	s9,72(sp)
   10ad4:	05a12223          	sw	s10,68(sp)
   10ad8:	05b12023          	sw	s11,64(sp)
   10adc:	07010413          	addi	s0,sp,112
   10ae0:	faa42623          	sw	a0,-84(s0)
   10ae4:	fab42423          	sw	a1,-88(s0)
   10ae8:	fac42223          	sw	a2,-92(s0)
   10aec:	fac42783          	lw	a5,-84(s0)
   10af0:	00078813          	mv	a6,a5
   10af4:	41f7d793          	srai	a5,a5,0x1f
   10af8:	00078893          	mv	a7,a5
   10afc:	fac42783          	lw	a5,-84(s0)
   10b00:	00078313          	mv	t1,a5
   10b04:	41f7d793          	srai	a5,a5,0x1f
   10b08:	00078393          	mv	t2,a5
   10b0c:	00030613          	mv	a2,t1
   10b10:	00038693          	mv	a3,t2
   10b14:	00080513          	mv	a0,a6
   10b18:	00088593          	mv	a1,a7
   10b1c:	584000ef          	jal	110a0 <__muldi3>
   10b20:	00050713          	mv	a4,a0
   10b24:	00058793          	mv	a5,a1
   10b28:	00070a13          	mv	s4,a4
   10b2c:	00078a93          	mv	s5,a5
   10b30:	fa842783          	lw	a5,-88(s0)
   10b34:	f8f42c23          	sw	a5,-104(s0)
   10b38:	41f7d793          	srai	a5,a5,0x1f
   10b3c:	f8f42e23          	sw	a5,-100(s0)
   10b40:	fa842783          	lw	a5,-88(s0)
   10b44:	f8f42823          	sw	a5,-112(s0)
   10b48:	41f7d793          	srai	a5,a5,0x1f
   10b4c:	f8f42a23          	sw	a5,-108(s0)
   10b50:	f9042603          	lw	a2,-112(s0)
   10b54:	f9442683          	lw	a3,-108(s0)
   10b58:	f9842503          	lw	a0,-104(s0)
   10b5c:	f9c42583          	lw	a1,-100(s0)
   10b60:	540000ef          	jal	110a0 <__muldi3>
   10b64:	00050713          	mv	a4,a0
   10b68:	00058793          	mv	a5,a1
   10b6c:	00070613          	mv	a2,a4
   10b70:	00078693          	mv	a3,a5
   10b74:	00ca0733          	add	a4,s4,a2
   10b78:	00070593          	mv	a1,a4
   10b7c:	0145b5b3          	sltu	a1,a1,s4
   10b80:	00da87b3          	add	a5,s5,a3
   10b84:	00f586b3          	add	a3,a1,a5
   10b88:	00068793          	mv	a5,a3
   10b8c:	00070a13          	mv	s4,a4
   10b90:	00078a93          	mv	s5,a5
   10b94:	fa442783          	lw	a5,-92(s0)
   10b98:	00078c13          	mv	s8,a5
   10b9c:	41f7d793          	srai	a5,a5,0x1f
   10ba0:	00078c93          	mv	s9,a5
   10ba4:	fa442783          	lw	a5,-92(s0)
   10ba8:	00078d13          	mv	s10,a5
   10bac:	41f7d793          	srai	a5,a5,0x1f
   10bb0:	00078d93          	mv	s11,a5
   10bb4:	000d0613          	mv	a2,s10
   10bb8:	000d8693          	mv	a3,s11
   10bbc:	000c0513          	mv	a0,s8
   10bc0:	000c8593          	mv	a1,s9
   10bc4:	4dc000ef          	jal	110a0 <__muldi3>
   10bc8:	00050713          	mv	a4,a0
   10bcc:	00058793          	mv	a5,a1
   10bd0:	00070613          	mv	a2,a4
   10bd4:	00078693          	mv	a3,a5
   10bd8:	00ca0733          	add	a4,s4,a2
   10bdc:	00070593          	mv	a1,a4
   10be0:	0145b5b3          	sltu	a1,a1,s4
   10be4:	00da87b3          	add	a5,s5,a3
   10be8:	00f586b3          	add	a3,a1,a5
   10bec:	00068793          	mv	a5,a3
   10bf0:	fce42423          	sw	a4,-56(s0)
   10bf4:	fcf42623          	sw	a5,-52(s0)
   10bf8:	fcc42783          	lw	a5,-52(s0)
   10bfc:	02078463          	beqz	a5,10c24 <fast_distance_3d+0x17c>
   10c00:	fcc42783          	lw	a5,-52(s0)
   10c04:	01079793          	slli	a5,a5,0x10
   10c08:	fc842703          	lw	a4,-56(s0)
   10c0c:	01075913          	srli	s2,a4,0x10
   10c10:	0127e933          	or	s2,a5,s2
   10c14:	fcc42783          	lw	a5,-52(s0)
   10c18:	0107d993          	srli	s3,a5,0x10
   10c1c:	fd242423          	sw	s2,-56(s0)
   10c20:	fd342623          	sw	s3,-52(s0)
   10c24:	fc842783          	lw	a5,-56(s0)
   10c28:	00078513          	mv	a0,a5
   10c2c:	a2dff0ef          	jal	10658 <fast_rsqrt>
   10c30:	fca42223          	sw	a0,-60(s0)
   10c34:	fc442783          	lw	a5,-60(s0)
   10c38:	00078b13          	mv	s6,a5
   10c3c:	00000b93          	li	s7,0
   10c40:	fc842603          	lw	a2,-56(s0)
   10c44:	fcc42683          	lw	a3,-52(s0)
   10c48:	000b0513          	mv	a0,s6
   10c4c:	000b8593          	mv	a1,s7
   10c50:	450000ef          	jal	110a0 <__muldi3>
   10c54:	00050713          	mv	a4,a0
   10c58:	00058793          	mv	a5,a1
   10c5c:	01079693          	slli	a3,a5,0x10
   10c60:	01075613          	srli	a2,a4,0x10
   10c64:	00d666b3          	or	a3,a2,a3
   10c68:	fad42c23          	sw	a3,-72(s0)
   10c6c:	0107d793          	srli	a5,a5,0x10
   10c70:	faf42e23          	sw	a5,-68(s0)
   10c74:	fb842783          	lw	a5,-72(s0)
   10c78:	00078513          	mv	a0,a5
   10c7c:	06c12083          	lw	ra,108(sp)
   10c80:	06812403          	lw	s0,104(sp)
   10c84:	06412903          	lw	s2,100(sp)
   10c88:	06012983          	lw	s3,96(sp)
   10c8c:	05c12a03          	lw	s4,92(sp)
   10c90:	05812a83          	lw	s5,88(sp)
   10c94:	05412b03          	lw	s6,84(sp)
   10c98:	05012b83          	lw	s7,80(sp)
   10c9c:	04c12c03          	lw	s8,76(sp)
   10ca0:	04812c83          	lw	s9,72(sp)
   10ca4:	04412d03          	lw	s10,68(sp)
   10ca8:	04012d83          	lw	s11,64(sp)
   10cac:	07010113          	addi	sp,sp,112
   10cb0:	00008067          	ret

00010cb4 <main>:
   10cb4:	f0010113          	addi	sp,sp,-256
   10cb8:	0e112e23          	sw	ra,252(sp)
   10cbc:	0e812c23          	sw	s0,248(sp)
   10cc0:	10010413          	addi	s0,sp,256
   10cc4:	000117b7          	lui	a5,0x11
   10cc8:	17078793          	addi	a5,a5,368 # 11170 <rsqrt_table+0x40>
   10ccc:	0007a303          	lw	t1,0(a5)
   10cd0:	0047a883          	lw	a7,4(a5)
   10cd4:	0087a803          	lw	a6,8(a5)
   10cd8:	00c7a503          	lw	a0,12(a5)
   10cdc:	0107a583          	lw	a1,16(a5)
   10ce0:	0147a603          	lw	a2,20(a5)
   10ce4:	0187a683          	lw	a3,24(a5)
   10ce8:	01c7a703          	lw	a4,28(a5)
   10cec:	0207a783          	lw	a5,32(a5)
   10cf0:	f0642023          	sw	t1,-256(s0)
   10cf4:	f1142223          	sw	a7,-252(s0)
   10cf8:	f1042423          	sw	a6,-248(s0)
   10cfc:	f0a42623          	sw	a0,-244(s0)
   10d00:	f0b42823          	sw	a1,-240(s0)
   10d04:	f0c42a23          	sw	a2,-236(s0)
   10d08:	f0d42c23          	sw	a3,-232(s0)
   10d0c:	f0e42e23          	sw	a4,-228(s0)
   10d10:	f2f42023          	sw	a5,-224(s0)
   10d14:	f0040793          	addi	a5,s0,-256
   10d18:	02300713          	li	a4,35
   10d1c:	04000893          	li	a7,64
   10d20:	00100513          	li	a0,1
   10d24:	00f005b3          	add	a1,zero,a5
   10d28:	00070613          	mv	a2,a4
   10d2c:	00000073          	ecall
   10d30:	000117b7          	lui	a5,0x11
   10d34:	19478793          	addi	a5,a5,404 # 11194 <rsqrt_table+0x64>
   10d38:	0007a803          	lw	a6,0(a5)
   10d3c:	0047a503          	lw	a0,4(a5)
   10d40:	0087a583          	lw	a1,8(a5)
   10d44:	00c7a603          	lw	a2,12(a5)
   10d48:	0107a683          	lw	a3,16(a5)
   10d4c:	0147a703          	lw	a4,20(a5)
   10d50:	fd042823          	sw	a6,-48(s0)
   10d54:	fca42a23          	sw	a0,-44(s0)
   10d58:	fcb42c23          	sw	a1,-40(s0)
   10d5c:	fcc42e23          	sw	a2,-36(s0)
   10d60:	fed42023          	sw	a3,-32(s0)
   10d64:	fee42223          	sw	a4,-28(s0)
   10d68:	0187c783          	lbu	a5,24(a5)
   10d6c:	fef40423          	sb	a5,-24(s0)
   10d70:	fd040793          	addi	a5,s0,-48
   10d74:	01800713          	li	a4,24
   10d78:	04000893          	li	a7,64
   10d7c:	00100513          	li	a0,1
   10d80:	00f005b3          	add	a1,zero,a5
   10d84:	00070613          	mv	a2,a4
   10d88:	00000073          	ecall
   10d8c:	00100513          	li	a0,1
   10d90:	8c9ff0ef          	jal	10658 <fast_rsqrt>
   10d94:	fea42623          	sw	a0,-20(s0)
   10d98:	757367b7          	lui	a5,0x75736
   10d9c:	55278793          	addi	a5,a5,1362 # 75736552 <__stack_top+0x75724332>
   10da0:	fcf42223          	sw	a5,-60(s0)
   10da4:	203a77b7          	lui	a5,0x203a7
   10da8:	46c78793          	addi	a5,a5,1132 # 203a746c <__stack_top+0x2039524c>
   10dac:	fcf42423          	sw	a5,-56(s0)
   10db0:	fc040623          	sb	zero,-52(s0)
   10db4:	fc440793          	addi	a5,s0,-60
   10db8:	00800713          	li	a4,8
   10dbc:	04000893          	li	a7,64
   10dc0:	00100513          	li	a0,1
   10dc4:	00f005b3          	add	a1,zero,a5
   10dc8:	00070613          	mv	a2,a4
   10dcc:	00000073          	ecall
   10dd0:	fec42503          	lw	a0,-20(s0)
   10dd4:	e04ff0ef          	jal	103d8 <print_dec>
   10dd8:	000117b7          	lui	a5,0x11
   10ddc:	1b078793          	addi	a5,a5,432 # 111b0 <rsqrt_table+0x80>
   10de0:	0007a803          	lw	a6,0(a5)
   10de4:	0047a503          	lw	a0,4(a5)
   10de8:	0087a583          	lw	a1,8(a5)
   10dec:	00c7a603          	lw	a2,12(a5)
   10df0:	0107a683          	lw	a3,16(a5)
   10df4:	0147a703          	lw	a4,20(a5)
   10df8:	fb042423          	sw	a6,-88(s0)
   10dfc:	faa42623          	sw	a0,-84(s0)
   10e00:	fab42823          	sw	a1,-80(s0)
   10e04:	fac42a23          	sw	a2,-76(s0)
   10e08:	fad42c23          	sw	a3,-72(s0)
   10e0c:	fae42e23          	sw	a4,-68(s0)
   10e10:	0187c783          	lbu	a5,24(a5)
   10e14:	fcf40023          	sb	a5,-64(s0)
   10e18:	fa840793          	addi	a5,s0,-88
   10e1c:	01800713          	li	a4,24
   10e20:	04000893          	li	a7,64
   10e24:	00100513          	li	a0,1
   10e28:	00f005b3          	add	a1,zero,a5
   10e2c:	00070613          	mv	a2,a4
   10e30:	00000073          	ecall
   10e34:	00400513          	li	a0,4
   10e38:	821ff0ef          	jal	10658 <fast_rsqrt>
   10e3c:	fea42623          	sw	a0,-20(s0)
   10e40:	757367b7          	lui	a5,0x75736
   10e44:	55278793          	addi	a5,a5,1362 # 75736552 <__stack_top+0x75724332>
   10e48:	f8f42e23          	sw	a5,-100(s0)
   10e4c:	203a77b7          	lui	a5,0x203a7
   10e50:	46c78793          	addi	a5,a5,1132 # 203a746c <__stack_top+0x2039524c>
   10e54:	faf42023          	sw	a5,-96(s0)
   10e58:	fa040223          	sb	zero,-92(s0)
   10e5c:	f9c40793          	addi	a5,s0,-100
   10e60:	00800713          	li	a4,8
   10e64:	04000893          	li	a7,64
   10e68:	00100513          	li	a0,1
   10e6c:	00f005b3          	add	a1,zero,a5
   10e70:	00070613          	mv	a2,a4
   10e74:	00000073          	ecall
   10e78:	fec42503          	lw	a0,-20(s0)
   10e7c:	d5cff0ef          	jal	103d8 <print_dec>
   10e80:	000117b7          	lui	a5,0x11
   10e84:	1cc78793          	addi	a5,a5,460 # 111cc <rsqrt_table+0x9c>
   10e88:	0007a803          	lw	a6,0(a5)
   10e8c:	0047a503          	lw	a0,4(a5)
   10e90:	0087a583          	lw	a1,8(a5)
   10e94:	00c7a603          	lw	a2,12(a5)
   10e98:	0107a683          	lw	a3,16(a5)
   10e9c:	0147a703          	lw	a4,20(a5)
   10ea0:	f9042023          	sw	a6,-128(s0)
   10ea4:	f8a42223          	sw	a0,-124(s0)
   10ea8:	f8b42423          	sw	a1,-120(s0)
   10eac:	f8c42623          	sw	a2,-116(s0)
   10eb0:	f8d42823          	sw	a3,-112(s0)
   10eb4:	f8e42a23          	sw	a4,-108(s0)
   10eb8:	0187d703          	lhu	a4,24(a5)
   10ebc:	f8e41c23          	sh	a4,-104(s0)
   10ec0:	01a7c783          	lbu	a5,26(a5)
   10ec4:	f8f40d23          	sb	a5,-102(s0)
   10ec8:	f8040793          	addi	a5,s0,-128
   10ecc:	01a00713          	li	a4,26
   10ed0:	04000893          	li	a7,64
   10ed4:	00100513          	li	a0,1
   10ed8:	00f005b3          	add	a1,zero,a5
   10edc:	00070613          	mv	a2,a4
   10ee0:	00000073          	ecall
   10ee4:	01000513          	li	a0,16
   10ee8:	f70ff0ef          	jal	10658 <fast_rsqrt>
   10eec:	fea42623          	sw	a0,-20(s0)
   10ef0:	757367b7          	lui	a5,0x75736
   10ef4:	55278793          	addi	a5,a5,1362 # 75736552 <__stack_top+0x75724332>
   10ef8:	f6f42a23          	sw	a5,-140(s0)
   10efc:	203a77b7          	lui	a5,0x203a7
   10f00:	46c78793          	addi	a5,a5,1132 # 203a746c <__stack_top+0x2039524c>
   10f04:	f6f42c23          	sw	a5,-136(s0)
   10f08:	f6040e23          	sb	zero,-132(s0)
   10f0c:	f7440793          	addi	a5,s0,-140
   10f10:	00800713          	li	a4,8
   10f14:	04000893          	li	a7,64
   10f18:	00100513          	li	a0,1
   10f1c:	00f005b3          	add	a1,zero,a5
   10f20:	00070613          	mv	a2,a4
   10f24:	00000073          	ecall
   10f28:	fec42503          	lw	a0,-20(s0)
   10f2c:	cacff0ef          	jal	103d8 <print_dec>
   10f30:	000117b7          	lui	a5,0x11
   10f34:	1e878793          	addi	a5,a5,488 # 111e8 <rsqrt_table+0xb8>
   10f38:	0007a803          	lw	a6,0(a5)
   10f3c:	0047a503          	lw	a0,4(a5)
   10f40:	0087a583          	lw	a1,8(a5)
   10f44:	00c7a603          	lw	a2,12(a5)
   10f48:	0107a683          	lw	a3,16(a5)
   10f4c:	0147a703          	lw	a4,20(a5)
   10f50:	f5042c23          	sw	a6,-168(s0)
   10f54:	f4a42e23          	sw	a0,-164(s0)
   10f58:	f6b42023          	sw	a1,-160(s0)
   10f5c:	f6c42223          	sw	a2,-156(s0)
   10f60:	f6d42423          	sw	a3,-152(s0)
   10f64:	f6e42623          	sw	a4,-148(s0)
   10f68:	0187d703          	lhu	a4,24(a5)
   10f6c:	f6e41823          	sh	a4,-144(s0)
   10f70:	01a7c783          	lbu	a5,26(a5)
   10f74:	f6f40923          	sb	a5,-142(s0)
   10f78:	f5840793          	addi	a5,s0,-168
   10f7c:	01a00713          	li	a4,26
   10f80:	04000893          	li	a7,64
   10f84:	00100513          	li	a0,1
   10f88:	00f005b3          	add	a1,zero,a5
   10f8c:	00070613          	mv	a2,a4
   10f90:	00000073          	ecall
   10f94:	06400513          	li	a0,100
   10f98:	ec0ff0ef          	jal	10658 <fast_rsqrt>
   10f9c:	fea42623          	sw	a0,-20(s0)
   10fa0:	757367b7          	lui	a5,0x75736
   10fa4:	55278793          	addi	a5,a5,1362 # 75736552 <__stack_top+0x75724332>
   10fa8:	f4f42623          	sw	a5,-180(s0)
   10fac:	203a77b7          	lui	a5,0x203a7
   10fb0:	46c78793          	addi	a5,a5,1132 # 203a746c <__stack_top+0x2039524c>
   10fb4:	f4f42823          	sw	a5,-176(s0)
   10fb8:	f4040a23          	sb	zero,-172(s0)
   10fbc:	f4c40793          	addi	a5,s0,-180
   10fc0:	00800713          	li	a4,8
   10fc4:	04000893          	li	a7,64
   10fc8:	00100513          	li	a0,1
   10fcc:	00f005b3          	add	a1,zero,a5
   10fd0:	00070613          	mv	a2,a4
   10fd4:	00000073          	ecall
   10fd8:	fec42503          	lw	a0,-20(s0)
   10fdc:	bfcff0ef          	jal	103d8 <print_dec>
   10fe0:	000117b7          	lui	a5,0x11
   10fe4:	20478793          	addi	a5,a5,516 # 11204 <rsqrt_table+0xd4>
   10fe8:	0007a803          	lw	a6,0(a5)
   10fec:	0047a503          	lw	a0,4(a5)
   10ff0:	0087a583          	lw	a1,8(a5)
   10ff4:	00c7a603          	lw	a2,12(a5)
   10ff8:	0107a683          	lw	a3,16(a5)
   10ffc:	0147a703          	lw	a4,20(a5)
   11000:	0187a783          	lw	a5,24(a5)
   11004:	f3042823          	sw	a6,-208(s0)
   11008:	f2a42a23          	sw	a0,-204(s0)
   1100c:	f2b42c23          	sw	a1,-200(s0)
   11010:	f2c42e23          	sw	a2,-196(s0)
   11014:	f4d42023          	sw	a3,-192(s0)
   11018:	f4e42223          	sw	a4,-188(s0)
   1101c:	f4f42423          	sw	a5,-184(s0)
   11020:	f3040793          	addi	a5,s0,-208
   11024:	01b00713          	li	a4,27
   11028:	04000893          	li	a7,64
   1102c:	00100513          	li	a0,1
   11030:	00f005b3          	add	a1,zero,a5
   11034:	00070613          	mv	a2,a4
   11038:	00000073          	ecall
   1103c:	00001537          	lui	a0,0x1
   11040:	e18ff0ef          	jal	10658 <fast_rsqrt>
   11044:	fea42623          	sw	a0,-20(s0)
   11048:	757367b7          	lui	a5,0x75736
   1104c:	55278793          	addi	a5,a5,1362 # 75736552 <__stack_top+0x75724332>
   11050:	f2f42223          	sw	a5,-220(s0)
   11054:	203a77b7          	lui	a5,0x203a7
   11058:	46c78793          	addi	a5,a5,1132 # 203a746c <__stack_top+0x2039524c>
   1105c:	f2f42423          	sw	a5,-216(s0)
   11060:	f2040623          	sb	zero,-212(s0)
   11064:	f2440793          	addi	a5,s0,-220
   11068:	00800713          	li	a4,8
   1106c:	04000893          	li	a7,64
   11070:	00100513          	li	a0,1
   11074:	00f005b3          	add	a1,zero,a5
   11078:	00070613          	mv	a2,a4
   1107c:	00000073          	ecall
   11080:	fec42503          	lw	a0,-20(s0)
   11084:	b54ff0ef          	jal	103d8 <print_dec>
   11088:	00000793          	li	a5,0
   1108c:	00078513          	mv	a0,a5
   11090:	0fc12083          	lw	ra,252(sp)
   11094:	0f812403          	lw	s0,248(sp)
   11098:	10010113          	addi	sp,sp,256
   1109c:	00008067          	ret

Disassembly of section .text.__muldi3:

000110a0 <__muldi3>:
   110a0:	82aa                	mv	t0,a0
   110a2:	872a                	mv	a4,a0
   110a4:	8832                	mv	a6,a2
   110a6:	4781                	li	a5,0
   110a8:	4301                	li	t1,0
   110aa:	4501                	li	a0,0
   110ac:	00a708b3          	add	a7,a4,a0
   110b0:	00187e93          	andi	t4,a6,1
   110b4:	00f30f33          	add	t5,t1,a5
   110b8:	01f75e13          	srli	t3,a4,0x1f
   110bc:	00185813          	srli	a6,a6,0x1
   110c0:	00e8bfb3          	sltu	t6,a7,a4
   110c4:	0786                	slli	a5,a5,0x1
   110c6:	000e8563          	beqz	t4,110d0 <__muldi3+0x30>
   110ca:	8546                	mv	a0,a7
   110cc:	01ef8333          	add	t1,t6,t5
   110d0:	0706                	slli	a4,a4,0x1
   110d2:	01c7e7b3          	or	a5,a5,t3
   110d6:	fc081be3          	bnez	a6,110ac <__muldi3+0xc>
   110da:	c581                	beqz	a1,110e2 <__muldi3+0x42>
   110dc:	02c585b3          	mul	a1,a1,a2
   110e0:	932e                	add	t1,t1,a1
   110e2:	859a                	mv	a1,t1
   110e4:	c689                	beqz	a3,110ee <__muldi3+0x4e>
   110e6:	025686b3          	mul	a3,a3,t0
   110ea:	006685b3          	add	a1,a3,t1
   110ee:	8082                	ret
