riscv-none-elf-objdump -Ds test.elf | less

test.elf:     file format elf32-littleriscv

Contents of section .text:
 10000 17210000 13010122 97120000 93828221  .!.....".......!
 10010 17130000 13030321 63d86200 23a00200  .......!c.b.#...
 10020 93824200 6ff05fff ef00d048 9308d005  ..B.o._....H....
 10030 13050000 73000000 6f000000 130101fd  ....s...o.......
 10040 23261102 23248102 13040103 232ea4fc  #&..#$......#...
 10050 232cb4fc 232ac4fc 8327c4fd 2326f4fe  #,..#*...'..#&..
 10060 832784fd 2324f4fe 6f004002 032784fe  .'..#$..o.@..'..
 10070 93071700 2324f4fe 8327c4fe 93861700  ....#$...'......
 10080 2326d4fe 03470700 2380e700 832744fd  #&...G..#....'D.
 10090 1387f7ff 232ae4fc e39a07fc 8327c4fd  ....#*.......'..
 100a0 13850700 8320c102 03248102 13010103  ..... ...$......
 100b0 67800000 130101fd 23261102 23248102  g.......#&..#$..
 100c0 13040103 232ea4fc 232cb4fc 832784fd  ....#...#,...'..
 100d0 63960700 93070000 6f00c008 232604fe  c.......o...#&..
 100e0 232404fe 9307f001 2322f4fe 6f00c006  #$......#"..o...
 100f0 832784fe 93971700 2324f4fe 832744fe  .'......#$...'D.
 10100 0327c4fd b357f700 93f71700 032784fe  .'...W.......'..
 10110 b367f700 2324f4fe 032784fe 832784fd  .g..#$...'...'..
 10120 6366f702 032784fe 832784fd b307f740  cf...'...'.....@
 10130 2324f4fe 832744fe 13071000 b317f700  #$...'D.........
 10140 0327c4fe b367f700 2326f4fe 832744fe  .'...g..#&...'D.
 10150 9387f7ff 2322f4fe 832744fe e3da07f8  ....#"...'D.....
 10160 8327c4fe 13850700 8320c102 03248102  .'....... ...$..
 10170 13010103 67800000 130101fd 23261102  ....g.......#&..
 10180 23248102 13040103 232ea4fc 232cb4fc  #$......#...#,..
 10190 832784fd 63960700 93070000 6f000007  .'..c.......o...
 101a0 232604fe 9307f001 2324f4fe 6f004005  #&......#$..o.@.
 101b0 8327c4fe 93971700 2326f4fe 832784fe  .'......#&...'..
 101c0 0327c4fd b357f700 93f71700 0327c4fe  .'...W.......'..
 101d0 b367f700 2326f4fe 0327c4fe 832784fd  .g..#&...'...'..
 101e0 636af700 0327c4fe 832784fd b307f740  cj...'...'.....@
 101f0 2326f4fe 832784fe 9387f7ff 2324f4fe  #&...'......#$..
 10200 832784fe e3d607fa 8327c4fe 13850700  .'.......'......
 10210 8320c102 03248102 13010103 67800000  . ...$......g...
 10220 130101fd 23261102 23248102 13040103  ....#&..#$......
 10230 232ea4fc 232cb4fc 232604fe 6f008003  #...#,..#&..o...
 10240 832784fd 93f71700 638a0700 0327c4fe  .'......c....'..
 10250 8327c4fd b307f700 2326f4fe 8327c4fd  .'......#&...'..
 10260 93971700 232ef4fc 832784fd 93d71700  ....#....'......
 10270 232cf4fc 832784fd e39407fc 8327c4fe  #,...'.......'..
 10280 13850700 8320c102 03248102 13010103  ..... ...$......
 10290 67800000 130101fe 232e1100 232c8100  g.......#...#,..
 102a0 13040102 2326a4fe 2324b4fe 832584fe  ....#&..#$...%..
 102b0 0325c4fe eff0dff6 93070500 13850700  .%..............
 102c0 8320c101 03248101 13010102 67800000  . ...$......g...
 102d0 130101fc 232e1102 232c8102 13040104  ....#...#,......
 102e0 2326a4fc 930744fd 93873701 2326f4fe  #&....D...7.#&..
 102f0 8327c4fe 1307a000 2380e700 8327c4fe  .'......#....'..
 10300 9387f7ff 2326f4fe 8327c4fc 639e0706  ....#&...'..c...
 10310 8327c4fe 13070003 2380e700 8327c4fe  .'......#....'..
 10320 9387f7ff 2326f4fe 6f008006 8327c4fc  ....#&..o....'..
 10330 93f7f700 2324f4fe 032784fe 93079000  ....#$...'......
 10340 63cce700 832784fe 93f7f70f 93870703  c....'..........
 10350 93f7f70f 6f004001 832784fe 93f7f70f  ....o.@..'......
 10360 93877705 93f7f70f 0327c4fe 2300f700  ..w......'..#...
 10370 8327c4fe 9387f7ff 2326f4fe 8327c4fc  .'......#&...'..
 10380 93d74700 2326f4fc 8327c4fc e39007fa  ..G.#&...'......
 10390 8327c4fe 93871700 2326f4fe 930744fd  .'......#&....D.
 103a0 93874701 0327c4fe 3387e740 8327c4fe  ..G..'..3..@.'..
 103b0 93080004 13051000 b305f000 13060700  ................
 103c0 73000000 13000000 8320c103 03248103  s........ ...$..
 103d0 13010104 67800000 130101fc 232e1102  ....g.......#...
 103e0 232c8102 13040104 2326a4fc 930784fd  #,......#&......
 103f0 93873701 2326f4fe 8327c4fe 1307a000  ..7.#&...'......
 10400 2380e700 8327c4fe 9387f7ff 2326f4fe  #....'......#&..
 10410 8327c4fc 63900706 8327c4fe 13070003  .'..c....'......
 10420 2380e700 8327c4fe 9387f7ff 2326f4fe  #....'......#&..
 10430 6f00c004 9305a000 0325c4fc eff0dfd3  o........%......
 10440 93070500 93f7f70f 93870703 13f7f70f  ................
 10450 8327c4fe 2380e700 8327c4fe 9387f7ff  .'..#....'......
 10460 2326f4fe 9305a000 0325c4fc eff09fc4  #&.......%......
 10470 2326a4fc 8327c4fc e39e07fa 8327c4fe  #&...'.......'..
 10480 93871700 2326f4fe 930784fd 93874701  ....#&........G.
 10490 0327c4fe 3387e740 8327c4fe 93080004  .'..3..@.'......
 104a0 13051000 b305f000 13060700 73000000  ............s...
 104b0 13000000 8320c103 03248103 13010104  ..... ...$......
 104c0 67800000 130101fb 23261104 23248104  g.......#&..#$..
 104d0 23222105 23203105 232e4103 232c5103  #"!.# 1.#.A.#,Q.
 104e0 232a6103 23287103 23268103 23249103  #*a.#(q.#&..#$..
 104f0 2322a103 2320b103 13040105 232ea4fa  #"..# ......#...
 10500 232cb4fa 8325c4fb 83a50500 2326b4fc  #,...%......#&..
 10510 8325c4fc 13870500 93070000 8325c4fc  .%...........%..
 10520 13860500 93060000 13050700 93850700  ................
 10530 ef001037 13070500 93870500 13da0700  ...7............
 10540 930a0000 232444fd 832784fb 138c0700  ....#$D..'......
 10550 930c0000 832784fc 138d0700 930d0000  .....'..........
 10560 13060d00 93860d00 13050c00 93850c00  ................
 10570 ef001033 13070500 93870500 13050700  ...3............
 10580 93850700 13060000 93063000 3307a640  ..........0.3..@
 10590 13080700 33380601 b387b640 b3860741  ....38.....@...A
 105a0 93870600 2320e4fc 2322f4fc 832744fc  ....# ..#"...'D.
 105b0 9397e701 032704fc 13592700 33e92701  .....'...Y'.3.'.
 105c0 832744fc 93d92700 232024fd 232234fd  .'D...'.# $.#"4.
 105d0 8327c4fc 138b0700 930b0000 032604fc  .'...........&..
 105e0 832644fc 13050b00 93850b00 ef00502b  .&D...........P+
 105f0 13070500 93870500 93961700 1356f701  .............V..
 10600 b366d600 2320d4fc 93d7f701 2322f4fc  .f..# ......#"..
 10610 032704fc 8327c4fb 23a0e700 13000000  .'...'..#.......
 10620 8320c104 03248104 03294104 83290104  . ...$...)A..)..
 10630 032ac103 832a8103 032b4103 832b0103  .*...*...+A..+..
 10640 032cc102 832c8102 032d4102 832d0102  .,...,...-A..-..
 10650 13010105 67800000 130101fa 232e1104  ....g.......#...
 10660 232c8104 232a2105 23283105 23264105  #,..#*!.#(1.#&A.
 10670 23245105 23226105 23207105 232e8103  #$Q.#"a.# q.#...
 10680 232c9103 232aa103 2328b103 13040106  #,..#*..#(......
 10690 2326a4fa 8327c4fa 63960700 9307f0ff  #&...'..c.......
 106a0 6f00401f 0327c4fa 93071000 6316f700  o.@..'......c...
 106b0 b7070100 6f00001e 0325c4fa ef008030  ....o....%.....0
 106c0 13070500 9307f001 b387e740 2322f4fc  ...........@#"..
 106d0 b7170100 13870713 832744fc 93971700  .........'D.....
 106e0 b307f700 83d70700 2326f4fc 832744fc  ........#&...'D.
 106f0 13071000 b317f700 0327c4fa 63f0e710  .........'..c...
 10700 032744fc 9307e001 63c2e702 832744fc  .'D.....c....'D.
 10710 93871700 37170100 13070713 93971700  ....7...........
 10720 b307f700 83d70700 6f008000 93070000  ........o.......
 10730 2320f4fc 0327c4fc 832704fc b307f740  # ...'...'.....@
 10740 232ef4fa 8327c4fa 138d0700 930d0000  #....'..........
 10750 832744fc 13071000 b317f700 2320f4fa  .'D.........# ..
 10760 232204fa 832504fa 032644fa 93860500  #"...%...&D.....
 10770 3307dd40 93060700 b336dd00 b387cd40  3..@.....6.....@
 10780 b386d740 93870600 93560701 93990701  ...@.....V......
 10790 b3e93601 13190701 832744fc 938707fe  ..6......'D.....
 107a0 63c80700 33daf900 930a0000 6f00c002  c...3.......o...
 107b0 13971900 9306f001 832744fc b387f640  .........'D....@
 107c0 b317f700 032744fc 335ae900 33ea4701  .....'D.3Z..3.G.
 107d0 832744fc b3daf900 232c44fb 832584fb  .'D.....#,D..%..
 107e0 0325c4fb eff01fab 93070500 93d70701  .%..............
 107f0 0327c4fc b307f740 2326f4fc 232404fc  .'.....@#&..#$..
 10800 6f004008 8325c4fc 0325c4fc ef00400c  o.@..%...%....@.
 10810 13070500 93870500 232ae4fa 832544fb  ........#*...%D.
 10820 0325c4fa ef00c00a 13070500 93870500  .%..............
 10830 93960701 135b0701 33eb6601 93db0701  .....[..3.f.....
 10840 232864fb 37070300 832704fb b307f740  #(d.7....'.....@
 10850 93850700 0325c4fc ef008007 13070500  .....%..........
 10860 93870500 9396f700 135c1701 33ec8601  .........\..3...
 10870 93dc1701 232684fd 832784fc 93871700  ....#&...'......
 10880 2324f4fc 032784fc 93071000 e3dce7f6  #$...'..........
 10890 8327c4fc 13850700 8320c105 03248105  .'....... ...$..
 108a0 03294105 83290105 032ac104 832a8104  .)A..)...*...*..
 108b0 032b4104 832b0104 032cc103 832c8103  .+A..+...,...,..
 108c0 032d4103 832d0103 13010106 67800000  .-A..-......g...
 108d0 130101fd 23261102 23248102 13040103  ....#&..#$......
 108e0 232ea4fc 232cb4fc 13050000 93050000  #...#,..........
 108f0 2324a4fe 2326b4fe 232204fe 6f00c009  #$..#&..#"..o...
 10900 832544fe 13051000 3315b500 832584fd  .%D.....3....%..
 10910 b375b500 638c0506 8325c4fd 13860500  .u..c....%......
 10920 93060000 832544fe 938505fe 63c80500  .....%D.....c...
 10930 b317b600 13070000 6f00c002 13551600  ........o....U..
 10940 1308f001 832544fe b305b840 b355b500  .....%D....@.U..
 10950 032544fe b397a600 b3e7f500 832544fe  .%D..........%D.
 10960 3317b600 032884fe 8328c4fe 3305e800  3....(...(..3...
 10970 13030500 33330301 b385f800 3308b300  ....33......3...
 10980 93050800 2324a4fe 2326b4fe 832544fe  ....#$..#&...%D.
 10990 93851500 2322b4fe 032544fe 9305f001  ....#"...%D.....
 109a0 e3d0a5f6 032784fe 8327c4fe 13050700  .....'...'......
 109b0 93850700 8320c102 03248102 13010103  ..... ...$......
 109c0 67800000 130101fd 23261102 23248102  g.......#&..#$..
 109d0 13040103 232ea4fc 8327c4fd 63960700  ....#....'..c...
 109e0 93070002 6f00000b 232604fe 0327c4fd  ....o...#&...'..
 109f0 b7070100 637ef700 8327c4fe 93870701  ....c~...'......
 10a00 2326f4fe 8327c4fd 93970701 232ef4fc  #&...'......#...
 10a10 0327c4fd b7070001 637ef700 8327c4fe  .'......c~...'..
 10a20 93878700 2326f4fe 8327c4fd 93978700  ....#&...'......
 10a30 232ef4fc 0327c4fd b7070010 637ef700  #....'......c~..
 10a40 8327c4fe 93874700 2326f4fe 8327c4fd  .'....G.#&...'..
 10a50 93974700 232ef4fc 0327c4fd b7070040  ..G.#....'.....@
 10a60 637ef700 8327c4fe 93872700 2326f4fe  c~...'....'.#&..
 10a70 8327c4fd 93972700 232ef4fc 8327c4fd  .'....'.#....'..
 10a80 63c80700 8327c4fe 93871700 2326f4fe  c....'......#&..
 10a90 8327c4fe 13850700 8320c102 03248102  .'....... ...$..
 10aa0 13010103 67800000 130101f9 23261106  ....g.......#&..
 10ab0 23248106 23222107 23203107 232e4105  #$..#"!.# 1.#.A.
 10ac0 232c5105 232a6105 23287105 23268105  #,Q.#*a.#(q.#&..
 10ad0 23249105 2322a105 2320b105 13040107  #$..#"..# ......
 10ae0 2326a4fa 2324b4fa 2322c4fa 8327c4fa  #&..#$..#"...'..
 10af0 13880700 93d7f741 93880700 8327c4fa  .......A.....'..
 10b00 13830700 93d7f741 93830700 13060300  .......A........
 10b10 93860300 13050800 93850800 ef004058  ..............@X
 10b20 13070500 93870500 130a0700 938a0700  ................
 10b30 832784fa 232cf4f8 93d7f741 232ef4f8  .'..#,.....A#...
 10b40 832784fa 2328f4f8 93d7f741 232af4f8  .'..#(.....A#*..
 10b50 032604f9 832644f9 032584f9 8325c4f9  .&...&D..%...%..
 10b60 ef000054 13070500 93870500 13060700  ...T............
 10b70 93860700 3307ca00 93050700 b3b54501  ....3.........E.
 10b80 b387da00 b386f500 93870600 130a0700  ................
 10b90 938a0700 832744fa 138c0700 93d7f741  .....'D........A
 10ba0 938c0700 832744fa 138d0700 93d7f741  .....'D........A
 10bb0 938d0700 13060d00 93860d00 13050c00  ................
 10bc0 93850c00 ef00c04d 13070500 93870500  .......M........
 10bd0 13060700 93860700 3307ca00 93050700  ........3.......
 10be0 b3b54501 b387da00 b386f500 93870600  ..E.............
 10bf0 2324e4fc 2326f4fc 8327c4fc 63840702  #$..#&...'..c...
 10c00 8327c4fc 93970701 032784fc 13590701  .'.......'...Y..
 10c10 33e92701 8327c4fc 93d90701 232424fd  3.'..'......#$$.
 10c20 232634fd 832784fc 13850700 eff0dfa2  #&4..'..........
 10c30 2322a4fc 832744fc 138b0700 930b0000  #"...'D.........
 10c40 032684fc 8326c4fc 13050b00 93850b00  .&...&..........
 10c50 ef000045 13070500 93870500 93960701  ...E............
 10c60 13560701 b366d600 232cd4fa 93d70701  .V...f..#,......
 10c70 232ef4fa 832784fb 13850700 8320c106  #....'....... ..
 10c80 03248106 03294106 83290106 032ac105  .$...)A..)...*..
 10c90 832a8105 032b4105 832b0105 032cc104  .*...+A..+...,..
 10ca0 832c8104 032d4104 832d0104 13010107  .,...-A..-......
 10cb0 67800000 130101f0 232e110e 232c810e  g.......#...#,..
 10cc0 13040110 b7170100 93870717 03a30700  ................
 10cd0 83a84700 03a88700 03a5c700 83a50701  ..G.............
 10ce0 03a64701 83a68701 03a7c701 83a70702  ..G.............
 10cf0 232064f0 232214f1 232404f1 2326a4f0  # d.#"..#$..#&..
 10d00 2328b4f0 232ac4f0 232cd4f0 232ee4f0  #(..#*..#,..#...
 10d10 2320f4f2 930704f0 13073002 93080004  # ........0.....
 10d20 13051000 b305f000 13060700 73000000  ............s...
 10d30 b7170100 93874719 03a80700 03a54700  ......G.......G.
 10d40 83a58700 03a6c700 83a60701 03a74701  ..............G.
 10d50 232804fd 232aa4fc 232cb4fc 232ec4fc  #(..#*..#,..#...
 10d60 2320d4fe 2322e4fe 83c78701 2304f4fe  # ..#"......#...
 10d70 930704fd 13078001 93080004 13051000  ................
 10d80 b305f000 13060700 73000000 13051000  ........s.......
 10d90 eff09f8c 2326a4fe b7677375 93872755  ....#&...gsu..'U
 10da0 2322f4fc b7773a20 9387c746 2324f4fc  #"...w: ...F#$..
 10db0 230604fc 930744fc 13078000 93080004  #.....D.........
 10dc0 13051000 b305f000 13060700 73000000  ............s...
 10dd0 0325c4fe eff04fe0 b7170100 9387071b  .%....O.........
 10de0 03a80700 03a54700 83a58700 03a6c700  ......G.........
 10df0 83a60701 03a74701 232404fb 2326a4fa  ......G.#$..#&..
 10e00 2328b4fa 232ac4fa 232cd4fa 232ee4fa  #(..#*..#,..#...
 10e10 83c78701 2300f4fc 930784fa 13078001  ....#...........
 10e20 93080004 13051000 b305f000 13060700  ................
 10e30 73000000 13054000 eff01f82 2326a4fe  s.....@.....#&..
 10e40 b7677375 93872755 232ef4f8 b7773a20  .gsu..'U#....w: 
 10e50 9387c746 2320f4fa 230204fa 9307c4f9  ...F# ..#.......
 10e60 13078000 93080004 13051000 b305f000  ................
 10e70 13060700 73000000 0325c4fe eff0cfd5  ....s....%......
 10e80 b7170100 9387c71c 03a80700 03a54700  ..............G.
 10e90 83a58700 03a6c700 83a60701 03a74701  ..............G.
 10ea0 232004f9 2322a4f8 2324b4f8 2326c4f8  # ..#"..#$..#&..
 10eb0 2328d4f8 232ae4f8 03d78701 231ce4f8  #(..#*......#...
 10ec0 83c7a701 230df4f8 930704f8 1307a001  ....#...........
 10ed0 93080004 13051000 b305f000 13060700  ................
 10ee0 73000000 13050001 eff00ff7 2326a4fe  s...........#&..
 10ef0 b7677375 93872755 232af4f6 b7773a20  .gsu..'U#*...w: 
 10f00 9387c746 232cf4f6 230e04f6 930744f7  ...F#,..#.....D.
 10f10 13078000 93080004 13051000 b305f000  ................
 10f20 13060700 73000000 0325c4fe eff0cfca  ....s....%......
 10f30 b7170100 9387871e 03a80700 03a54700  ..............G.
 10f40 83a58700 03a6c700 83a60701 03a74701  ..............G.
 10f50 232c04f5 232ea4f4 2320b4f6 2322c4f6  #,..#...# ..#"..
 10f60 2324d4f6 2326e4f6 03d78701 2318e4f6  #$..#&......#...
 10f70 83c7a701 2309f4f6 930784f5 1307a001  ....#...........
 10f80 93080004 13051000 b305f000 13060700  ................
 10f90 73000000 13054006 eff00fec 2326a4fe  s.....@.....#&..
 10fa0 b7677375 93872755 2326f4f4 b7773a20  .gsu..'U#&...w: 
 10fb0 9387c746 2328f4f4 230a04f4 9307c4f4  ...F#(..#.......
 10fc0 13078000 93080004 13051000 b305f000  ................
 10fd0 13060700 73000000 0325c4fe eff0cfbf  ....s....%......
 10fe0 b7170100 93874720 03a80700 03a54700  ......G ......G.
 10ff0 83a58700 03a6c700 83a60701 03a74701  ..............G.
 11000 83a78701 232804f3 232aa4f2 232cb4f2  ....#(..#*..#,..
 11010 232ec4f2 2320d4f4 2322e4f4 2324f4f4  #...# ..#"..#$..
 11020 930704f3 1307b001 93080004 13051000  ................
 11030 b305f000 13060700 73000000 37150000  ........s...7...
 11040 eff08fe1 2326a4fe b7677375 93872755  ....#&...gsu..'U
 11050 2322f4f2 b7773a20 9387c746 2324f4f2  #"...w: ...F#$..
 11060 230604f2 930744f2 13078000 93080004  #.....D.........
 11070 13051000 b305f000 13060700 73000000  ............s...
 11080 0325c4fe eff04fb5 93070000 13850700  .%....O.........
 11090 8320c10f 0324810f 13010110 67800000  . ...$......g...
Contents of section .text.__muldi3:
 110a0 aa822a87 32888147 01430145 b308a700  ..*.2..G.C.E....
 110b0 937e1800 330ff300 135ef701 13581800  .~..3....^...X..
 110c0 b3bfe800 86076385 0e004685 3383ef01  ......c...F.3...
 110d0 0607b3e7 c701e31b 08fc81c5 b385c502  ................
 110e0 2e939a85 89c6b386 5602b385 66008280  ........V...f...
Contents of section .rodata:
 110f0 ffffffff ffffffff 34f304b5 2d3acd93  ........4...-:..
 11100 ffffff7f 17977c72 c0f58268 9b47c260  ......|r...h.G.`
 11110 9a79825a 55555555 8a4df450 f4d82f4d  .y.ZUUUU.M.P../M
 11120 179de649 816a0047 963b6b44 8c521942  ...I.j.G.;kD.R.B
 11130 ffff05b5 0080825a 0040412d 0020a116  .......Z.@A-. ..
 11140 0010500b 0008a805 0004d402 00026a01  ..P...........j.
 11150 0001b500 80005a00 40002d00 20001700  ......Z.@.-. ...
 11160 10000b00 08000600 04000300 02000100  ................
 11170 3d3d3d20 52563332 20426172 652d6d65  === RV32 Bare-me
 11180 74616c20 72737172 74207465 7374203d  tal rsqrt test =
 11190 3d3d0a00 496e7075 743a2031 20284578  ==..Input: 1 (Ex
 111a0 70656374 20363535 3336290a 00000000  pect 65536).....
 111b0 496e7075 743a2034 20284578 70656374  Input: 4 (Expect
 111c0 20333237 3638290a 00000000 496e7075   32768).....Inpu
 111d0 743a2031 36202845 78706563 74207e31  t: 16 (Expect ~1
 111e0 36333834 290a0000 496e7075 743a2031  6384)...Input: 1
 111f0 30302028 45787065 6374207e 36353533  00 (Expect ~6553
 11200 290a0000 496e7075 743a2034 30393620  )...Input: 4096 
 11210 28457870 65637420 7e313032 34290a00  (Expect ~1024)..
Contents of section .riscv.attributes:
 0000 414f0000 00726973 63760001 45000000  AO...riscv..E...
 0010 04100572 76333269 3270315f 6d327030  ...rv32i2p1_m2p0
 0020 5f613270 315f6332 70305f7a 69637372  _a2p1_c2p0_zicsr
 0030 3270305f 7a6d6d75 6c317030 5f7a6161  2p0_zmmul1p0_zaa
 0040 6d6f3170 305f7a61 6c727363 31703000  mo1p0_zalrsc1p0.
Contents of section .comment:
 0000 4743433a 20287850 61636b20 474e5520  GCC: (xPack GNU 
 0010 52495343 2d562045 6d626564 64656420  RISC-V Embedded 
 0020 47434320 7838365f 36342920 31342e32  GCC x86_64) 14.2
 0030 2e3000                               .0.             
Contents of section .debug_line:
 0000 71000000 02001b00 00000101 fb0e0a00  q...............
 0010 01010101 00000001 00737461 72742e53  .........start.S
 0020 00000000 00000502 00000100 16030309  ................
 0030 08000103 01090800 01030209 08000103  ................
 0040 01090400 01030109 04000103 01090400  ................
 0050 01030409 04000103 03090400 01030109  ................
 0060 04000103 01090400 01030409 04000109  ................
 0070 04000001 01fc0700 00050004 004e0000  .............N..
 0080 00010101 fb0e0d00 01010101 00000001  ................
 0090 00000101 011f0500 00000057 000000b7  ...........W....
 00a0 00000013 0100007a 01000002 011f020f  .......z........
 00b0 06500000 00005000 000000d2 01000001  .P....P.........
 00c0 e3010000 02ed0100 0003f601 00000405  ................
 00d0 01000502 3c000100 031e0105 0e030109  ....<...........
 00e0 1c000105 14030109 08000105 0b030109  ................
 00f0 08000105 12030109 04000105 0b030009  ................
 0100 0c000105 10030009 0c000105 0e030009  ................
 0110 04000105 0d037f09 04000105 0c030009  ................
 0120 0c000103 02090400 01050103 01090400  ................
 0130 01030409 14000105 08030109 18000105  ................
 0140 10030109 08000105 13030209 08000103  ................
 0150 01090400 01050e03 02090400 01050503  ................
 0160 00090800 01051303 01090400 01052003  .............. .
 0170 01090c00 01052603 00090c00 01051303  ......&.........
 0180 00090400 01050c03 02090c00 01051703  ................
 0190 01090c00 01051e03 01091000 01051603  ................
 01a0 00090c00 01051f00 02040203 7a090c00  ............z...
 01b0 01051800 02040103 00090c00 01050c03  ................
 01c0 0a090800 01050103 01090400 01030309  ................
 01d0 14000105 08030109 18000105 10030109  ................
 01e0 08000105 13030209 08000105 0e030209  ................
 01f0 04000105 05030009 08000105 13030109  ................
 0200 04000105 20030109 0c000105 26030009  .... .......&...
 0210 0c000105 13030009 04000105 0c030209  ................
 0220 0c000105 17030109 0c000105 1f000204  ................
 0230 02037b09 10000105 18000204 01030009  ..{.............
 0240 0c000105 0c030909 08000105 01030109  ................
 0250 04000103 04091400 01050e03 01091800  ................
 0260 01050b03 01090400 01050f03 01090400  ................
 0270 01050c03 00090800 01051403 01090400  ................
 0280 01050b03 01091000 01030109 0c000105  ................
 0290 0c037c09 0c000103 06090800 01050103  ..|.............
 02a0 01090400 01030409 14000105 0c030109  ................
 02b0 18000105 01030109 10000103 04091400  ................
 02c0 01050b03 02091400 01050803 01090c00  ................
 02d0 01050603 01090c00 01050803 02090c00  ................
 02e0 01050c03 01090800 01050a03 01090c00  ................
 02f0 01051d03 03091000 01051103 00090400  ................
 0300 01051003 01090800 01052600 02040103  ..........&.....
 0310 00090c00 01051000 02040103 00090800  ................
 0320 01053e00 02040203 00090c00 01051000  ..>.............
 0330 02040203 00090800 01000204 04060300  ................
 0340 09080001 050e0603 01090800 01051103  ................
 0350 01090c00 01051403 7c090c00 01050603  ........|.......
 0360 08090800 01050503 01090c00 01050103  ................
 0370 01092800 01030409 14000105 0b030209  ..(.............
 0380 14000105 08030109 0c000105 06030109  ................
 0390 0c000105 08030209 0c000105 0c030109  ................
 03a0 08000105 0a030109 0c000105 18030309  ................
 03b0 10000105 16000204 01030009 10000105  ................
 03c0 10000204 01030009 0c000105 0e030109  ................
 03d0 08000105 13030109 0c000105 14037d09  ..............}.
 03e0 10000105 06030709 08000105 05030109  ................
 03f0 0c000105 01030109 28000103 15091400  ........(.......
 0400 01050d03 04094000 01051103 01090c00  ......@.........
 0410 01052303 00090c00 01052e03 00092000  ..#........... .
 0420 01050e03 00090800 01051a03 01090400  ................
 0430 01052603 00090c00 01050903 00093000  ..&...........0.
 0440 01030209 28000105 10030109 24000105  ....(.......$...
 0450 09030009 28000105 15030209 18000105  ....(...........
 0460 13030009 04000105 01030109 08000105  ................
 0470 21030d09 3c000105 08030109 3c000105  !...<.......<...
 0480 18000204 01030009 08000106 03000904  ................
 0490 00010508 06030109 04000105 18000204  ................
 04a0 01030009 0c000106 03000904 00010514  ................
 04b0 06030209 04000105 09000204 01030009  ................
 04c0 0c000105 1d030209 0c000105 0e030009  ................
 04d0 18000105 10030209 04000105 07030009  ................
 04e0 0c000105 3d030109 08000105 38000204  ....=.......8...
 04f0 01030009 0c000105 33000204 01030009  ........3.......
 0500 08000105 3d000204 02030009 18000105  ....=...........
 0510 12000204 04030009 04000103 01090400  ................
 0520 01052703 01091000 01053a03 00090c00  ..'.......:.....
 0530 01053303 00091400 01054303 00092400  ..3.......C...$.
 0540 01054a03 00091000 01051203 00094000  ..J...........@.
 0550 01052103 01090400 01052903 00091000  ..!.......).....
 0560 01050b03 00090400 01050d03 03090c00  ................
 0570 01050503 00090400 01052103 01090400  ..........!.....
 0580 01051200 02040103 00091400 01052303  ..............#.
 0590 01090400 01053000 02040103 00091400  ......0.........
 05a0 01051200 02040103 00091000 01051803  ................
 05b0 01090400 01053300 02040103 00092000  ......3....... .
 05c0 01050b00 02040103 00091000 01052500  ..............%.
 05d0 02040303 7d090400 01051c00 02040103  ....}...........
 05e0 00090c00 01050c03 06090c00 01050103  ................
 05f0 01090400 01052f03 02093c00 01050e03  ....../...<.....
 0600 01091800 01050d03 01091000 01050503  ................
 0610 00090400 01051403 01090400 01050e03  ................
 0620 00090c00 01050b03 00090800 01051203  ................
 0630 01090400 01051e03 00090c00 01050f03  ................
 0640 00094000 01051d00 02040203 7e092800  ..@.........~.(.
 0650 01051600 02040103 00090c00 01050c03  ................
 0660 04090c00 01050103 01090800 01051c03  ................
 0670 02091800 01050703 01091400 01051300  ................
 0680 02040103 00090800 01060300 09040001  ................
 0690 05090603 01090400 01050703 01090400  ................
 06a0 01051f00 02040103 00090c00 01052800  ..............(.
 06b0 02040103 00090c00 01050703 01090c00  ................
 06c0 01051f00 02040103 00090c00 01052800  ..............(.
 06d0 02040103 00090c00 01050703 01090c00  ................
 06e0 01051f00 02040103 00090c00 01052800  ..............(.
 06f0 02040103 00090c00 01050703 01090c00  ................
 0700 01051f00 02040103 00090c00 01052800  ..............(.
 0710 02040103 00090c00 01050803 01090c00  ................
 0720 01050703 00090400 01051f00 02040103  ................
 0730 00090400 01050c03 01090c00 01050103  ................
 0740 01090400 01030809 14000105 18030109  ................
 0750 44000105 25030009 10000105 18030109  D...%...........
 0760 34000105 25030009 10000105 2a037f09  4...%.......*...
 0770 34000105 18030209 20000105 25030009  4....... ...%...
 0780 10000105 0e037e09 34000105 08030409  ......~.4.......
 0790 20000105 11030109 08000105 19030209   ...............
 07a0 24000105 28030309 10000105 0e030009  $...(...........
 07b0 28000105 0c030209 18000105 01030109  (...............
 07c0 04000105 0c030309 3c000105 05030109  ........<.......
 07d0 10000103 04096c00 01051403 01095c00  ......l.......\.
 07e0 01050503 01090c00 01030109 38000103  ............8...
 07f0 05090800 01050b03 01095c00 01050503  ..........\.....
 0800 01090c00 01030109 38000103 05090800  ........8.......
 0810 01050b03 01096400 01050503 01090c00  ......d.........
 0820 01030109 38000103 04090800 01050b03  ....8...........
 0830 01096400 01050503 01090c00 01030109  ..d.............
 0840 38000103 04090800 01050b03 01095c00  8.............\.
 0850 01050503 01090c00 01030109 38000105  ............8...
 0860 0c030209 08000105 01030109 04000109  ................
 0870 14000001 01                          .....           
Contents of section .debug_info:
 0000 31000000 02000000 00000401 00000000  1...............
 0010 00000100 3c000100 00000000 08000000  ....<...........
 0020 58000000 01800266 00000001 00000100  X......f........
 0030 40000100 00620700 00050001 04210000  @....b.......!..
 0040 0011df01 00001d50 00000000 0000003c  .......P.......<
 0050 00010064 10000075 00000004 01068701  ...d...u........
 0060 00000574 00000002 2b183900 00000401  ...t....+.9.....
 0070 08850100 00040205 93010000 05b70100  ................
 0080 00023919 53000000 0402072f 01000005  ..9.S....../....
 0090 c2010000 024d1866 00000004 0405b300  .....M.f........
 00a0 000005de 00000002 4f197900 00000404  ........O.y.....
 00b0 07960000 00040805 ae000000 05750100  .............u..
 00c0 00026919 93000000 04080791 00000012  ..i.............
 00d0 0405696e 74000404 079b0000 00057600  ..int.........v.
 00e0 00000318 132d0000 000ca800 000005b9  .....-..........
 00f0 01000003 24144700 00000cb9 00000005  ....$.G.........
 0100 c4010000 032c135a 00000005 e0000000  .....,.Z........
 0110 0330146d 0000000c d6000000 05770100  .0.m.........w..
 0120 00033c14 87000000 056d0000 0004d617  ..<......m......
 0130 a1000000 04100454 01000013 040d0d01  .......T........
 0140 00000401 088e0100 00080d01 00002401  ..............$.
 0150 000009a1 00000018 0008e200 00003401  ..............4.
 0160 000009a1 0000000f 000c2401 00000124  ..........$....$
 0170 02000099 17340100 000503f0 10010008  .....4..........
 0180 c5000000 5a010000 09a10000 001f000c  ....Z...........
 0190 4a010000 01140100 00b4175a 01000005  J..........Z....
 01a0 03301101 00143302 00000101 01059a00  .0....3.........
 01b0 0000b40c 0100ec03 0000019c d5020000  ................
 01c0 15726573 00010701 0ed60000 0002916c  .res...........l
 01d0 06c40c01 006c0000 00b80100 00072001  .....l........ .
 01e0 00000201 d5020000 0391807e 0006300d  ...........~..0.
 01f0 01005c00 0000d401 00000720 01000006  ..\........ ....
 0200 01140100 00029150 0006980d 01003800  .......P......8.
 0210 0000f001 00000720 01000008 01e50200  ....... ........
 0220 00029144 0006d80d 01005c00 00000d02  ...D......\.....
 0230 00000720 0100000e 01140100 000391a8  ... ............
 0240 7f000640 0e010038 0000002a 02000007  ...@...8...*....
 0250 20010000 1001e502 00000391 9c7f0006   ...............
 0260 800e0100 64000000 47020000 07200100  ....d...G.... ..
 0270 001601f5 02000003 91807f00 06f00e01  ................
 0280 00380000 00640200 00072001 00001801  .8...d.... .....
 0290 e5020000 0391f47e 0006300f 01006400  .......~..0...d.
 02a0 00008102 00000720 0100001d 01f50200  ....... ........
 02b0 000391d8 7e0006a0 0f010038 0000009e  ....~......8....
 02c0 02000007 20010000 1f01e502 00000391  .... ...........
 02d0 cc7e0006 e00f0100 5c000000 bb020000  .~......\.......
 02e0 07200100 00240105 03000003 91b07e00  . ...$........~.
 02f0 0a481001 00380000 00072001 00002601  .H...8.... ...&.
 0300 e5020000 0391a47e 0000080d 010000e5  .......~........
 0310 02000009 a1000000 2300080d 010000f5  ........#.......
 0320 02000009 a1000000 0800080d 01000005  ................
 0330 03000009 a1000000 1a00080d 01000015  ................
 0340 03000009 a1000000 1b000fe9 000000ef  ................
 0350 d6000000 a80a0100 0c020000 019c8303  ................
 0360 00000264 7800ef23 ca000000 0391ac7f  ...dx..#........
 0370 02647900 ef2fca00 00000391 a87f0264  .dy../.........d
 0380 7a00ef3b ca000000 0391a47f 016d0100  z..;.........m..
 0390 00f10ee7 00000002 914801fa 000000f8  .........H......
 03a0 0ed60000 00029144 01fe0000 00fb0ee7  .......D........
 03b0 00000003 91b87f00 16636c7a 0001df0c  .........clz....
 03c0 9a000000 c4090100 e4000000 019cb603  ................
 03d0 00000278 00df19d6 00000002 915c036e  ...x.........\.n
 03e0 00e1099a 00000002 916c000e 0e010000  .........l......
 03f0 d611e700 0000d008 0100f400 0000019c  ................
 0400 0a040000 026100d6 20d60000 0002915c  .....a.. ......\
 0410 026200d6 2cd60000 00029158 037200d7  .b..,......X.r..
 0420 0ee70000 00029168 0af80801 00ac0000  .......h........
 0430 00036900 d80d9a00 00000291 6400000f  ..i.........d...
 0440 03010000 bed60000 00580601 00780200  .........X...x..
 0450 00019cc3 04000002 7800be1e d6000000  ........x.......
 0460 0391ac7f 03657870 00c2099a 00000002  .....exp........
 0470 91440379 00c40ed6 00000002 914c0600  .D.y.........L..
 0480 070100fc 00000083 04000001 9d010000  ................
 0490 c712d600 00000291 4001a800 0000c812  ........@.......
 04a0 d6000000 0391bc7f 01800100 00c912d6  ................
 04b0 00000003 91b87f00 0afc0701 00940000  ................
 04c0 00014f01 0000cd0d 9a000000 0291480a  ..O...........H.
 04d0 04080100 74000000 03793200 ce12d600  ....t....y2.....
 04e0 00000391 b47f0378 793200cf 12d60000  .......xy2......
 04f0 000391b0 7f000000 10c90000 00a4c404  ................
 0500 01009401 0000019c 1e050000 0b420100  .............B..
 0510 00a4231e 05000003 91bc7f02 7800a43a  ..#.........x..:
 0520 d6000000 0391b87f 01380200 00a60ed6  .........8......
 0530 00000002 914c01d1 010000a6 17d60000  .....L..........
 0540 00029148 0376616c 00a70ee7 00000002  ...H.val........
 0550 9140000d d6000000 10870000 007cd803  .@...........|..
 0560 0100ec00 0000019c 60050000 0276616c  ........`....val
 0570 007c2579 00000002 914c0362 7566007e  .|%y.....L.buf.~
 0580 0a600500 00029158 0370007f 0b080100  .`.....X.p......
 0590 0002916c 00080d01 00007005 000009a1  ...l......p.....
 05a0 00000013 00172501 00000164 0dd00201  ......%....d....
 05b0 00080100 00019cc7 05000002 76616c00  ............val.
 05c0 64257900 00000291 4c036275 6600660a  d%y.....L.buf.f.
 05d0 60050000 02915403 7000670b 08010000  `.....T.p.g.....
 05e0 02916c0a 2c030100 5c000000 01bc0000  ..l.,...\.......
 05f0 0070119a 00000002 91680000 0fa40100  .p.......h......
 0600 005ed600 00009402 01003c00 0000019c  .^........<.....
 0610 f8050000 0261005e 1cd60000 0002916c  .....a.^.......l
 0620 0262005e 28d60000 00029168 000ecc01  .b.^(......h....
 0630 00005111 d6000000 20020100 74000000  ..Q..... ...t...
 0640 019c3806 00000261 00511fd6 00000002  ..8....a.Q......
 0650 915c0262 00512bd6 00000002 91580140  .\.b.Q+......X.@
 0660 02000053 0ed60000 0002916c 000e4702  ...S.......l..G.
 0670 00003d16 79000000 78010100 a8000000  ..=.y...x.......
 0680 019c9206 00000bd5 0000003d 29790000  ...........=)y..
 0690 0002915c 0b600100 003d4179 00000002  ...\.`...=Ay....
 06a0 915801ad 01000042 13790000 0002916c  .X.....B.y.....l
 06b0 0aa40101 00640000 00036900 440e9a00  .....d....i.D...
 06c0 00000291 6800000e da010000 28167900  ....h.......(.y.
 06d0 0000b400 0100c400 0000019c fa060000  ................
 06e0 0bd50000 00282979 00000002 915c0b60  .....()y.....\.`
 06f0 01000028 41790000 00029158 017e0000  ...(Ay.....X.~..
 0700 002d1379 00000002 916c01ad 0100002e  .-.y.....l......
 0710 13790000 00029168 0ae40001 007c0000  .y.....h.....|..
 0720 00036900 300e9a00 00000291 64000018  ..i.0.......d...
 0730 c2000000 051f0906 0100003c 00010078  ...........<...x
 0740 00000001 9c550700 000b6801 00001e14  .....U....h.....
 0750 06010000 02915c02 73726300 1e265507  ......\.src..&U.
 0760 00000291 58026e00 1e32f300 00000291  ....X.n..2......
 0770 54036400 200e5b07 00000291 6c037300  T.d. .[.....l.s.
 0780 21146007 00000291 68000d5a 07000019  !.`.....h..Z....
 0790 0da80000 000db400 000000             ...........     
Contents of section .debug_abbrev:
 0000 01110110 06110112 01030e1b 0e250e13  .............%..
 0010 05000002 2e00030e 3f0c1101 12010000  ........?.......
 0020 00013400 030e3a21 013b0b39 0b491302  ..4...:!.;.9.I..
 0030 18000002 05000308 3a21013b 0b390b49  ........:!.;.9.I
 0040 13021800 00033400 03083a21 013b0b39  ......4...:!.;.9
 0050 0b491302 18000004 24000b0b 3e0b030e  .I......$...>...
 0060 00000516 00030e3a 0b3b0b39 0b491300  .......:.;.9.I..
 0070 00060b01 11011206 01130000 07340003  .............4..
 0080 0e3a2101 3b053921 05491302 18000008  .:!.;.9!.I......
 0090 01014913 01130000 09210049 132f0b00  ..I......!.I./..
 00a0 000a0b01 11011206 00000b05 00030e3a  ...............:
 00b0 21013b0b 390b4913 02180000 0c260049  !.;.9.I......&.I
 00c0 1300000d 0f000b21 04491300 000e2e01  .......!.I......
 00d0 030e3a21 013b0b39 0b271949 13110112  ..:!.;.9.'.I....
 00e0 0640187a 19011300 000f2e01 3f19030e  .@.z........?...
 00f0 3a21013b 0b39210a 27194913 11011206  :!.;.9!.'.I.....
 0100 40187c19 01130000 102e0103 0e3a2101  @.|..........:!.
 0110 3b0b3921 0d271911 01120640 187c1901  ;.9!.'.....@.|..
 0120 13000011 1101250e 130b031f 1b1f1101  ......%.........
 0130 12061017 00001224 000b0b3e 0b030800  .......$...>....
 0140 00130f00 0b0b0000 142e013f 19030e3a  ...........?...:
 0150 0b3b0539 0b491311 01120640 187c1901  .;.9.I.....@.|..
 0160 13000015 34000308 3a0b3b05 390b4913  ....4...:.;.9.I.
 0170 02180000 162e0103 083a0b3b 0b390b27  .........:.;.9.'
 0180 19491311 01120640 187a1901 13000017  .I.....@.z......
 0190 2e01030e 3a0b3b0b 390b2719 11011206  ....:.;.9.'.....
 01a0 40187a19 01130000 182e013f 19030e3a  @.z........?...:
 01b0 0b3b0b39 0b271949 13110112 0640187a  .;.9.'.I.....@.z
 01c0 19011300 00192600 000000             ......&....     
Contents of section .debug_aranges:
 0000 1c000000 02000000 00000400 00000000  ................
 0010 00000100 3c000000 00000000 00000000  ....<...........
 0020 1c000000 02003500 00000400 00000000  ......5.........
 0030 3c000100 64100000 00000000 00000000  <...d...........
Contents of section .debug_str:
 0000 73746172 742e5300 2f686f6d 652f6766  start.S./home/gf
 0010 6667332f 72697363 762d6e6f 6e652d65  fg3/riscv-none-e
 0020 6c662d67 63632f72 76333265 6d753031  lf-gcc/rv32emu01
 0030 30322f72 76333265 6d752f74 65737473  02/rv32emu/tests
 0040 2f737973 74656d2f 7175697a 335f7072  /system/quiz3_pr
 0050 6f626c65 6d5f6300 474e5520 41532032  oblem_c.GNU AS 2
 0060 2e34332e 31005f73 74617274 0073697a  .43.1._start.siz
 0070 655f7400 5f5f7569 6e74385f 74007175  e_t.__uint8_t.qu
 0080 6f746965 6e740070 72696e74 5f646563  otient.print_dec
 0090 006c6f6e 67206c6f 6e672075 6e736967  .long long unsig
 00a0 6e656420 696e7400 64656c74 61006c6f  ned int.delta.lo
 00b0 6e67206c 6f6e6720 696e7400 64696769  ng long int.digi
 00c0 74006d65 6d637079 006e6577 746f6e5f  t.memcpy.newton_
 00d0 73746570 00646976 6964656e 64005f5f  step.dividend.__
 00e0 75696e74 33325f74 00666173 745f6469  uint32_t.fast_di
 00f0 7374616e 63655f33 6400696e 765f6469  stance_3d.inv_di
 0100 73740066 6173745f 72737172 74006d75  st.fast_rsqrt.mu
 0110 6c333200 72737172 745f7461 626c6500  l32.rsqrt_table.
 0120 5f6d7367 00707269 6e745f68 65780073  _msg.print_hex.s
 0130 686f7274 20756e73 69676e65 6420696e  hort unsigned in
 0140 74007265 635f696e 765f7371 72740069  t.rec_inv_sqrt.i
 0150 74657200 6c6f6e67 20646f75 626c6500  ter.long double.
 0160 64697669 736f7200 64657374 00646973  divisor.dest.dis
 0170 745f7371 005f5f75 696e7436 345f7400  t_sq.__uint64_t.
 0180 66726163 00756e73 69676e65 64206368  frac.unsigned ch
 0190 61720073 686f7274 20696e74 00795f6e  ar.short int.y_n
 01a0 65787400 5f5f6d75 6c736933 0072656d  ext.__mulsi3.rem
 01b0 61696e64 6572005f 5f75696e 7431365f  ainder.__uint16_
 01c0 74005f5f 696e7433 325f7400 756d756c  t.__int32_t.umul
 01d0 00696e76 73717274 32007564 69760047  .invsqrt2.udiv.G
 01e0 4e552043 31372031 342e322e 30202d6d  NU C17 14.2.0 -m
 01f0 6162693d 696c7033 32202d6d 6973612d  abi=ilp32 -misa-
 0200 73706563 3d323031 39313231 33202d6d  spec=20191213 -m
 0210 61726368 3d727633 32695f7a 69637372  arch=rv32i_zicsr
 0220 202d6700 696e765f 73717274 5f636163   -g.inv_sqrt_cac
 0230 6865006d 61696e00 696e7673 71727400  he.main.invsqrt.
 0240 72657375 6c740075 6d6f6400           result.umod.    
Contents of section .debug_line_str:
 0000 2f686f6d 652f6766 6667332f 72697363  /home/gffg3/risc
 0010 762d6e6f 6e652d65 6c662d67 63632f72  v-none-elf-gcc/r
 0020 76333265 6d753031 30322f72 76333265  v32emu0102/rv32e
 0030 6d752f74 65737473 2f737973 74656d2f  mu/tests/system/
 0040 7175697a 335f7072 6f626c65 6d5f6300  quiz3_problem_c.
 0050 6d61696e 2e63002f 686f6d65 2f676666  main.c./home/gff
 0060 67332f72 69736376 2d6e6f6e 652d656c  g3/riscv-none-el
 0070 662d6763 632f7870 61636b2d 72697363  f-gcc/xpack-risc
 0080 762d6e6f 6e652d65 6c662d67 63632d31  v-none-elf-gcc-1
 0090 342e322e 302d332f 72697363 762d6e6f  4.2.0-3/riscv-no
 00a0 6e652d65 6c662f69 6e636c75 64652f6d  ne-elf/include/m
 00b0 61636869 6e65002f 686f6d65 2f676666  achine./home/gff
 00c0 67332f72 69736376 2d6e6f6e 652d656c  g3/riscv-none-el
 00d0 662d6763 632f7870 61636b2d 72697363  f-gcc/xpack-risc
 00e0 762d6e6f 6e652d65 6c662d67 63632d31  v-none-elf-gcc-1
 00f0 342e322e 302d332f 72697363 762d6e6f  4.2.0-3/riscv-no
 0100 6e652d65 6c662f69 6e636c75 64652f73  ne-elf/include/s
 0110 7973002f 686f6d65 2f676666 67332f72  ys./home/gffg3/r
 0120 69736376 2d6e6f6e 652d656c 662d6763  iscv-none-elf-gc
 0130 632f7870 61636b2d 72697363 762d6e6f  c/xpack-riscv-no
 0140 6e652d65 6c662d67 63632d31 342e322e  ne-elf-gcc-14.2.
 0150 302d332f 6c69622f 6763632f 72697363  0-3/lib/gcc/risc
 0160 762d6e6f 6e652d65 6c662f31 342e322e  v-none-elf/14.2.
 0170 302f696e 636c7564 65002f68 6f6d652f  0/include./home/
 0180 67666667 332f7269 7363762d 6e6f6e65  gffg3/riscv-none
 0190 2d656c66 2d676363 2f787061 636b2d72  -elf-gcc/xpack-r
 01a0 69736376 2d6e6f6e 652d656c 662d6763  iscv-none-elf-gc
 01b0 632d3134 2e322e30 2d332f72 69736376  c-14.2.0-3/riscv
 01c0 2d6e6f6e 652d656c 662f696e 636c7564  -none-elf/includ
 01d0 65005f64 65666175 6c745f74 79706573  e._default_types
 01e0 2e68005f 73746469 6e742e68 00737464  .h._stdint.h.std
 01f0 6465662e 68007374 72696e67 2e6800    def.h.string.h. 
Contents of section .debug_frame:
 0000 0c000000 ffffffff 0300017c 010c0200  ...........|....
 0010 24000000 00000000 3c000100 78000000  $.......<...x...
 0020 440e3048 81018802 440c0800 025cc144  D.0H....D....\.D
 0030 c80c0230 440e0000 24000000 00000000  ...0D...$.......
 0040 b4000100 c4000000 440e3048 81018802  ........D.0H....
 0050 440c0800 02a8c144 c80c0230 440e0000  D......D...0D...
 0060 24000000 00000000 78010100 a8000000  $.......x.......
 0070 440e3048 81018802 440c0800 028cc144  D.0H....D......D
 0080 c80c0230 440e0000 24000000 00000000  ...0D...$.......
 0090 20020100 74000000 440e3048 81018802   ...t...D.0H....
 00a0 440c0800 0258c144 c80c0230 440e0000  D....X.D...0D...
 00b0 24000000 00000000 94020100 3c000000  $...........<...
 00c0 440e2048 81018802 440c0800 60c144c8  D. H....D...`.D.
 00d0 0c022044 0e000000 24000000 00000000  .. D....$.......
 00e0 d0020100 08010000 440e4048 81018802  ........D.@H....
 00f0 440c0800 02ecc144 c80c0240 440e0000  D......D...@D...
 0100 24000000 00000000 d8030100 ec000000  $...............
 0110 440e4048 81018802 440c0800 02d0c144  D.@H....D......D
 0120 c80c0240 440e0000 4c000000 00000000  ...@D...L.......
 0130 c4040100 94010000 440e5070 81018802  ........D.Pp....
 0140 92039304 94059506 96079708 9809990a  ................
 0150 9a0b9b0c 440c0800 032801c1 44c80c02  ....D....(..D...
 0160 5044d244 d344d444 d544d644 d744d844  PD.D.D.D.D.D.D.D
 0170 d944da44 db440e00 4c000000 00000000  .D.D.D..L.......
 0180 58060100 78020000 440e6070 81018802  X...x...D.`p....
 0190 92039304 94059506 96079708 9809990a  ................
 01a0 9a0b9b0c 440c0800 030c02c1 44c80c02  ....D.......D...
 01b0 6044d244 d344d444 d544d644 d744d844  `D.D.D.D.D.D.D.D
 01c0 d944da44 db440e00 24000000 00000000  .D.D.D..$.......
 01d0 d0080100 f4000000 440e3048 81018802  ........D.0H....
 01e0 440c0800 02d8c144 c80c0230 440e0000  D......D...0D...
 01f0 24000000 00000000 c4090100 e4000000  $...............
 0200 440e3048 81018802 440c0800 02c8c144  D.0H....D......D
 0210 c80c0230 440e0000 4c000000 00000000  ...0D...L.......
 0220 a80a0100 0c020000 440e7070 81018802  ........D.pp....
 0230 92039304 94059506 96079708 9809990a  ................
 0240 9a0b9b0c 440c0800 03a001c1 44c80c02  ....D.......D...
 0250 7044d244 d344d444 d544d644 d744d844  pD.D.D.D.D.D.D.D
 0260 d944da44 db440e00 28000000 00000000  .D.D.D..(.......
 0270 b40c0100 ec030000 440e8002 48810188  ........D...H...
 0280 02440c08 0003d003 c144c80c 02800244  .D.......D.....D
 0290 0e000000                             ....            

Disassembly of section .text:

00010000 <_start>:
   10000:	00002117          	auipc	sp,0x2
   10004:	22010113          	addi	sp,sp,544 # 12220 <__stack_top>
   10008:	00001297          	auipc	t0,0x1
   1000c:	21828293          	addi	t0,t0,536 # 11220 <__bss_end>
   10010:	00001317          	auipc	t1,0x1
   10014:	21030313          	addi	t1,t1,528 # 11220 <__bss_end>
   10018:	0062d863          	bge	t0,t1,10028 <_start+0x28>
   1001c:	0002a023          	sw	zero,0(t0)
   10020:	00428293          	addi	t0,t0,4
   10024:	ff5ff06f          	j	10018 <_start+0x18>
   10028:	48d000ef          	jal	10cb4 <main>
   1002c:	05d00893          	li	a7,93
   10030:	00000513          	li	a0,0
   10034:	00000073          	ecall
   10038:	0000006f          	j	10038 <_start+0x38>

0001003c <memcpy>:
   1003c:	fd010113          	addi	sp,sp,-48
   10040:	02112623          	sw	ra,44(sp)
   10044:	02812423          	sw	s0,40(sp)
   10048:	03010413          	addi	s0,sp,48
   1004c:	fca42e23          	sw	a0,-36(s0)
   10050:	fcb42c23          	sw	a1,-40(s0)
   10054:	fcc42a23          	sw	a2,-44(s0)
   10058:	fdc42783          	lw	a5,-36(s0)
   1005c:	fef42623          	sw	a5,-20(s0)
   10060:	fd842783          	lw	a5,-40(s0)
   10064:	fef42423          	sw	a5,-24(s0)
   10068:	0240006f          	j	1008c <memcpy+0x50>
   1006c:	fe842703          	lw	a4,-24(s0)
   10070:	00170793          	addi	a5,a4,1
   10074:	fef42423          	sw	a5,-24(s0)
   10078:	fec42783          	lw	a5,-20(s0)
   1007c:	00178693          	addi	a3,a5,1
   10080:	fed42623          	sw	a3,-20(s0)
   10084:	00074703          	lbu	a4,0(a4)
   10088:	00e78023          	sb	a4,0(a5)
   1008c:	fd442783          	lw	a5,-44(s0)
   10090:	fff78713          	addi	a4,a5,-1
   10094:	fce42a23          	sw	a4,-44(s0)
   10098:	fc079ae3          	bnez	a5,1006c <memcpy+0x30>
   1009c:	fdc42783          	lw	a5,-36(s0)
   100a0:	00078513          	mv	a0,a5
   100a4:	02c12083          	lw	ra,44(sp)
   100a8:	02812403          	lw	s0,40(sp)
   100ac:	03010113          	addi	sp,sp,48
   100b0:	00008067          	ret

000100b4 <udiv>:
   100b4:	fd010113          	addi	sp,sp,-48
   100b8:	02112623          	sw	ra,44(sp)
   100bc:	02812423          	sw	s0,40(sp)
   100c0:	03010413          	addi	s0,sp,48
   100c4:	fca42e23          	sw	a0,-36(s0)
   100c8:	fcb42c23          	sw	a1,-40(s0)
   100cc:	fd842783          	lw	a5,-40(s0)
   100d0:	00079663          	bnez	a5,100dc <udiv+0x28>
   100d4:	00000793          	li	a5,0
   100d8:	08c0006f          	j	10164 <udiv+0xb0>
   100dc:	fe042623          	sw	zero,-20(s0)
   100e0:	fe042423          	sw	zero,-24(s0)
   100e4:	01f00793          	li	a5,31
   100e8:	fef42223          	sw	a5,-28(s0)
   100ec:	06c0006f          	j	10158 <udiv+0xa4>
   100f0:	fe842783          	lw	a5,-24(s0)
   100f4:	00179793          	slli	a5,a5,0x1
   100f8:	fef42423          	sw	a5,-24(s0)
   100fc:	fe442783          	lw	a5,-28(s0)
   10100:	fdc42703          	lw	a4,-36(s0)
   10104:	00f757b3          	srl	a5,a4,a5
   10108:	0017f793          	andi	a5,a5,1
   1010c:	fe842703          	lw	a4,-24(s0)
   10110:	00f767b3          	or	a5,a4,a5
   10114:	fef42423          	sw	a5,-24(s0)
   10118:	fe842703          	lw	a4,-24(s0)
   1011c:	fd842783          	lw	a5,-40(s0)
   10120:	02f76663          	bltu	a4,a5,1014c <udiv+0x98>
   10124:	fe842703          	lw	a4,-24(s0)
   10128:	fd842783          	lw	a5,-40(s0)
   1012c:	40f707b3          	sub	a5,a4,a5
   10130:	fef42423          	sw	a5,-24(s0)
   10134:	fe442783          	lw	a5,-28(s0)
   10138:	00100713          	li	a4,1
   1013c:	00f717b3          	sll	a5,a4,a5
   10140:	fec42703          	lw	a4,-20(s0)
   10144:	00f767b3          	or	a5,a4,a5
   10148:	fef42623          	sw	a5,-20(s0)
   1014c:	fe442783          	lw	a5,-28(s0)
   10150:	fff78793          	addi	a5,a5,-1
   10154:	fef42223          	sw	a5,-28(s0)
   10158:	fe442783          	lw	a5,-28(s0)
   1015c:	f807dae3          	bgez	a5,100f0 <udiv+0x3c>
   10160:	fec42783          	lw	a5,-20(s0)
   10164:	00078513          	mv	a0,a5
   10168:	02c12083          	lw	ra,44(sp)
   1016c:	02812403          	lw	s0,40(sp)
   10170:	03010113          	addi	sp,sp,48
   10174:	00008067          	ret

00010178 <umod>:
   10178:	fd010113          	addi	sp,sp,-48
   1017c:	02112623          	sw	ra,44(sp)
   10180:	02812423          	sw	s0,40(sp)
   10184:	03010413          	addi	s0,sp,48
   10188:	fca42e23          	sw	a0,-36(s0)
   1018c:	fcb42c23          	sw	a1,-40(s0)
   10190:	fd842783          	lw	a5,-40(s0)
   10194:	00079663          	bnez	a5,101a0 <umod+0x28>
   10198:	00000793          	li	a5,0
   1019c:	0700006f          	j	1020c <umod+0x94>
   101a0:	fe042623          	sw	zero,-20(s0)
   101a4:	01f00793          	li	a5,31
   101a8:	fef42423          	sw	a5,-24(s0)
   101ac:	0540006f          	j	10200 <umod+0x88>
   101b0:	fec42783          	lw	a5,-20(s0)
   101b4:	00179793          	slli	a5,a5,0x1
   101b8:	fef42623          	sw	a5,-20(s0)
   101bc:	fe842783          	lw	a5,-24(s0)
   101c0:	fdc42703          	lw	a4,-36(s0)
   101c4:	00f757b3          	srl	a5,a4,a5
   101c8:	0017f793          	andi	a5,a5,1
   101cc:	fec42703          	lw	a4,-20(s0)
   101d0:	00f767b3          	or	a5,a4,a5
   101d4:	fef42623          	sw	a5,-20(s0)
   101d8:	fec42703          	lw	a4,-20(s0)
   101dc:	fd842783          	lw	a5,-40(s0)
   101e0:	00f76a63          	bltu	a4,a5,101f4 <umod+0x7c>
   101e4:	fec42703          	lw	a4,-20(s0)
   101e8:	fd842783          	lw	a5,-40(s0)
   101ec:	40f707b3          	sub	a5,a4,a5
   101f0:	fef42623          	sw	a5,-20(s0)
   101f4:	fe842783          	lw	a5,-24(s0)
   101f8:	fff78793          	addi	a5,a5,-1
   101fc:	fef42423          	sw	a5,-24(s0)
   10200:	fe842783          	lw	a5,-24(s0)
   10204:	fa07d6e3          	bgez	a5,101b0 <umod+0x38>
   10208:	fec42783          	lw	a5,-20(s0)
   1020c:	00078513          	mv	a0,a5
   10210:	02c12083          	lw	ra,44(sp)
   10214:	02812403          	lw	s0,40(sp)
   10218:	03010113          	addi	sp,sp,48
   1021c:	00008067          	ret

00010220 <umul>:
   10220:	fd010113          	addi	sp,sp,-48
   10224:	02112623          	sw	ra,44(sp)
   10228:	02812423          	sw	s0,40(sp)
   1022c:	03010413          	addi	s0,sp,48
   10230:	fca42e23          	sw	a0,-36(s0)
   10234:	fcb42c23          	sw	a1,-40(s0)
   10238:	fe042623          	sw	zero,-20(s0)
   1023c:	0380006f          	j	10274 <umul+0x54>
   10240:	fd842783          	lw	a5,-40(s0)
   10244:	0017f793          	andi	a5,a5,1
   10248:	00078a63          	beqz	a5,1025c <umul+0x3c>
   1024c:	fec42703          	lw	a4,-20(s0)
   10250:	fdc42783          	lw	a5,-36(s0)
   10254:	00f707b3          	add	a5,a4,a5
   10258:	fef42623          	sw	a5,-20(s0)
   1025c:	fdc42783          	lw	a5,-36(s0)
   10260:	00179793          	slli	a5,a5,0x1
   10264:	fcf42e23          	sw	a5,-36(s0)
   10268:	fd842783          	lw	a5,-40(s0)
   1026c:	0017d793          	srli	a5,a5,0x1
   10270:	fcf42c23          	sw	a5,-40(s0)
   10274:	fd842783          	lw	a5,-40(s0)
   10278:	fc0794e3          	bnez	a5,10240 <umul+0x20>
   1027c:	fec42783          	lw	a5,-20(s0)
   10280:	00078513          	mv	a0,a5
   10284:	02c12083          	lw	ra,44(sp)
   10288:	02812403          	lw	s0,40(sp)
   1028c:	03010113          	addi	sp,sp,48
   10290:	00008067          	ret

00010294 <__mulsi3>:
   10294:	fe010113          	addi	sp,sp,-32
   10298:	00112e23          	sw	ra,28(sp)
   1029c:	00812c23          	sw	s0,24(sp)
   102a0:	02010413          	addi	s0,sp,32
   102a4:	fea42623          	sw	a0,-20(s0)
   102a8:	feb42423          	sw	a1,-24(s0)
   102ac:	fe842583          	lw	a1,-24(s0)
   102b0:	fec42503          	lw	a0,-20(s0)
   102b4:	f6dff0ef          	jal	10220 <umul>
   102b8:	00050793          	mv	a5,a0
   102bc:	00078513          	mv	a0,a5
   102c0:	01c12083          	lw	ra,28(sp)
   102c4:	01812403          	lw	s0,24(sp)
   102c8:	02010113          	addi	sp,sp,32
   102cc:	00008067          	ret

000102d0 <print_hex>:
   102d0:	fc010113          	addi	sp,sp,-64
   102d4:	02112e23          	sw	ra,60(sp)
   102d8:	02812c23          	sw	s0,56(sp)
   102dc:	04010413          	addi	s0,sp,64
   102e0:	fca42623          	sw	a0,-52(s0)
   102e4:	fd440793          	addi	a5,s0,-44
   102e8:	01378793          	addi	a5,a5,19
   102ec:	fef42623          	sw	a5,-20(s0)
   102f0:	fec42783          	lw	a5,-20(s0)
   102f4:	00a00713          	li	a4,10
   102f8:	00e78023          	sb	a4,0(a5)
   102fc:	fec42783          	lw	a5,-20(s0)
   10300:	fff78793          	addi	a5,a5,-1
   10304:	fef42623          	sw	a5,-20(s0)
   10308:	fcc42783          	lw	a5,-52(s0)
   1030c:	06079e63          	bnez	a5,10388 <print_hex+0xb8>
   10310:	fec42783          	lw	a5,-20(s0)
   10314:	03000713          	li	a4,48
   10318:	00e78023          	sb	a4,0(a5)
   1031c:	fec42783          	lw	a5,-20(s0)
   10320:	fff78793          	addi	a5,a5,-1
   10324:	fef42623          	sw	a5,-20(s0)
   10328:	0680006f          	j	10390 <print_hex+0xc0>
   1032c:	fcc42783          	lw	a5,-52(s0)
   10330:	00f7f793          	andi	a5,a5,15
   10334:	fef42423          	sw	a5,-24(s0)
   10338:	fe842703          	lw	a4,-24(s0)
   1033c:	00900793          	li	a5,9
   10340:	00e7cc63          	blt	a5,a4,10358 <print_hex+0x88>
   10344:	fe842783          	lw	a5,-24(s0)
   10348:	0ff7f793          	zext.b	a5,a5
   1034c:	03078793          	addi	a5,a5,48
   10350:	0ff7f793          	zext.b	a5,a5
   10354:	0140006f          	j	10368 <print_hex+0x98>
   10358:	fe842783          	lw	a5,-24(s0)
   1035c:	0ff7f793          	zext.b	a5,a5
   10360:	05778793          	addi	a5,a5,87
   10364:	0ff7f793          	zext.b	a5,a5
   10368:	fec42703          	lw	a4,-20(s0)
   1036c:	00f70023          	sb	a5,0(a4)
   10370:	fec42783          	lw	a5,-20(s0)
   10374:	fff78793          	addi	a5,a5,-1
   10378:	fef42623          	sw	a5,-20(s0)
   1037c:	fcc42783          	lw	a5,-52(s0)
   10380:	0047d793          	srli	a5,a5,0x4
   10384:	fcf42623          	sw	a5,-52(s0)
   10388:	fcc42783          	lw	a5,-52(s0)
   1038c:	fa0790e3          	bnez	a5,1032c <print_hex+0x5c>
   10390:	fec42783          	lw	a5,-20(s0)
   10394:	00178793          	addi	a5,a5,1
   10398:	fef42623          	sw	a5,-20(s0)
   1039c:	fd440793          	addi	a5,s0,-44
   103a0:	01478793          	addi	a5,a5,20
   103a4:	fec42703          	lw	a4,-20(s0)
   103a8:	40e78733          	sub	a4,a5,a4
   103ac:	fec42783          	lw	a5,-20(s0)
   103b0:	04000893          	li	a7,64
   103b4:	00100513          	li	a0,1
   103b8:	00f005b3          	add	a1,zero,a5
   103bc:	00070613          	mv	a2,a4
   103c0:	00000073          	ecall
   103c4:	00000013          	nop
   103c8:	03c12083          	lw	ra,60(sp)
   103cc:	03812403          	lw	s0,56(sp)
   103d0:	04010113          	addi	sp,sp,64
   103d4:	00008067          	ret

000103d8 <print_dec>:
   103d8:	fc010113          	addi	sp,sp,-64
   103dc:	02112e23          	sw	ra,60(sp)
   103e0:	02812c23          	sw	s0,56(sp)
   103e4:	04010413          	addi	s0,sp,64
   103e8:	fca42623          	sw	a0,-52(s0)
   103ec:	fd840793          	addi	a5,s0,-40
   103f0:	01378793          	addi	a5,a5,19
   103f4:	fef42623          	sw	a5,-20(s0)
   103f8:	fec42783          	lw	a5,-20(s0)
   103fc:	00a00713          	li	a4,10
   10400:	00e78023          	sb	a4,0(a5)
   10404:	fec42783          	lw	a5,-20(s0)
   10408:	fff78793          	addi	a5,a5,-1
   1040c:	fef42623          	sw	a5,-20(s0)
   10410:	fcc42783          	lw	a5,-52(s0)
   10414:	06079063          	bnez	a5,10474 <print_dec+0x9c>
   10418:	fec42783          	lw	a5,-20(s0)
   1041c:	03000713          	li	a4,48
   10420:	00e78023          	sb	a4,0(a5)
   10424:	fec42783          	lw	a5,-20(s0)
   10428:	fff78793          	addi	a5,a5,-1
   1042c:	fef42623          	sw	a5,-20(s0)
   10430:	04c0006f          	j	1047c <print_dec+0xa4>
   10434:	00a00593          	li	a1,10
   10438:	fcc42503          	lw	a0,-52(s0)
   1043c:	d3dff0ef          	jal	10178 <umod>
   10440:	00050793          	mv	a5,a0
   10444:	0ff7f793          	zext.b	a5,a5
   10448:	03078793          	addi	a5,a5,48
   1044c:	0ff7f713          	zext.b	a4,a5
   10450:	fec42783          	lw	a5,-20(s0)
   10454:	00e78023          	sb	a4,0(a5)
   10458:	fec42783          	lw	a5,-20(s0)
   1045c:	fff78793          	addi	a5,a5,-1
   10460:	fef42623          	sw	a5,-20(s0)
   10464:	00a00593          	li	a1,10
   10468:	fcc42503          	lw	a0,-52(s0)
   1046c:	c49ff0ef          	jal	100b4 <udiv>
   10470:	fca42623          	sw	a0,-52(s0)
   10474:	fcc42783          	lw	a5,-52(s0)
   10478:	fa079ee3          	bnez	a5,10434 <print_dec+0x5c>
   1047c:	fec42783          	lw	a5,-20(s0)
   10480:	00178793          	addi	a5,a5,1
   10484:	fef42623          	sw	a5,-20(s0)
   10488:	fd840793          	addi	a5,s0,-40
   1048c:	01478793          	addi	a5,a5,20
   10490:	fec42703          	lw	a4,-20(s0)
   10494:	40e78733          	sub	a4,a5,a4
   10498:	fec42783          	lw	a5,-20(s0)
   1049c:	04000893          	li	a7,64
   104a0:	00100513          	li	a0,1
   104a4:	00f005b3          	add	a1,zero,a5
   104a8:	00070613          	mv	a2,a4
   104ac:	00000073          	ecall
   104b0:	00000013          	nop
   104b4:	03c12083          	lw	ra,60(sp)
   104b8:	03812403          	lw	s0,56(sp)
   104bc:	04010113          	addi	sp,sp,64
   104c0:	00008067          	ret

000104c4 <newton_step>:
   104c4:	fb010113          	addi	sp,sp,-80
   104c8:	04112623          	sw	ra,76(sp)
   104cc:	04812423          	sw	s0,72(sp)
   104d0:	05212223          	sw	s2,68(sp)
   104d4:	05312023          	sw	s3,64(sp)
   104d8:	03412e23          	sw	s4,60(sp)
   104dc:	03512c23          	sw	s5,56(sp)
   104e0:	03612a23          	sw	s6,52(sp)
   104e4:	03712823          	sw	s7,48(sp)
   104e8:	03812623          	sw	s8,44(sp)
   104ec:	03912423          	sw	s9,40(sp)
   104f0:	03a12223          	sw	s10,36(sp)
   104f4:	03b12023          	sw	s11,32(sp)
   104f8:	05010413          	addi	s0,sp,80
   104fc:	faa42e23          	sw	a0,-68(s0)
   10500:	fab42c23          	sw	a1,-72(s0)
   10504:	fbc42583          	lw	a1,-68(s0)
   10508:	0005a583          	lw	a1,0(a1)
   1050c:	fcb42623          	sw	a1,-52(s0)
   10510:	fcc42583          	lw	a1,-52(s0)
   10514:	00058713          	mv	a4,a1
   10518:	00000793          	li	a5,0
   1051c:	fcc42583          	lw	a1,-52(s0)
   10520:	00058613          	mv	a2,a1
   10524:	00000693          	li	a3,0
   10528:	00070513          	mv	a0,a4
   1052c:	00078593          	mv	a1,a5
   10530:	371000ef          	jal	110a0 <__muldi3>
   10534:	00050713          	mv	a4,a0
   10538:	00058793          	mv	a5,a1
   1053c:	0007da13          	srli	s4,a5,0x0
   10540:	00000a93          	li	s5,0
   10544:	fd442423          	sw	s4,-56(s0)
   10548:	fb842783          	lw	a5,-72(s0)
   1054c:	00078c13          	mv	s8,a5
   10550:	00000c93          	li	s9,0
   10554:	fc842783          	lw	a5,-56(s0)
   10558:	00078d13          	mv	s10,a5
   1055c:	00000d93          	li	s11,0
   10560:	000d0613          	mv	a2,s10
   10564:	000d8693          	mv	a3,s11
   10568:	000c0513          	mv	a0,s8
   1056c:	000c8593          	mv	a1,s9
   10570:	331000ef          	jal	110a0 <__muldi3>
   10574:	00050713          	mv	a4,a0
   10578:	00058793          	mv	a5,a1
   1057c:	00070513          	mv	a0,a4
   10580:	00078593          	mv	a1,a5
   10584:	00000613          	li	a2,0
   10588:	00300693          	li	a3,3
   1058c:	40a60733          	sub	a4,a2,a0
   10590:	00070813          	mv	a6,a4
   10594:	01063833          	sltu	a6,a2,a6
   10598:	40b687b3          	sub	a5,a3,a1
   1059c:	410786b3          	sub	a3,a5,a6
   105a0:	00068793          	mv	a5,a3
   105a4:	fce42023          	sw	a4,-64(s0)
   105a8:	fcf42223          	sw	a5,-60(s0)
   105ac:	fc442783          	lw	a5,-60(s0)
   105b0:	01e79793          	slli	a5,a5,0x1e
   105b4:	fc042703          	lw	a4,-64(s0)
   105b8:	00275913          	srli	s2,a4,0x2
   105bc:	0127e933          	or	s2,a5,s2
   105c0:	fc442783          	lw	a5,-60(s0)
   105c4:	0027d993          	srli	s3,a5,0x2
   105c8:	fd242023          	sw	s2,-64(s0)
   105cc:	fd342223          	sw	s3,-60(s0)
   105d0:	fcc42783          	lw	a5,-52(s0)
   105d4:	00078b13          	mv	s6,a5
   105d8:	00000b93          	li	s7,0
   105dc:	fc042603          	lw	a2,-64(s0)
   105e0:	fc442683          	lw	a3,-60(s0)
   105e4:	000b0513          	mv	a0,s6
   105e8:	000b8593          	mv	a1,s7
   105ec:	2b5000ef          	jal	110a0 <__muldi3>
   105f0:	00050713          	mv	a4,a0
   105f4:	00058793          	mv	a5,a1
   105f8:	00179693          	slli	a3,a5,0x1
   105fc:	01f75613          	srli	a2,a4,0x1f
   10600:	00d666b3          	or	a3,a2,a3
   10604:	fcd42023          	sw	a3,-64(s0)
   10608:	01f7d793          	srli	a5,a5,0x1f
   1060c:	fcf42223          	sw	a5,-60(s0)
   10610:	fc042703          	lw	a4,-64(s0)
   10614:	fbc42783          	lw	a5,-68(s0)
   10618:	00e7a023          	sw	a4,0(a5)
   1061c:	00000013          	nop
   10620:	04c12083          	lw	ra,76(sp)
   10624:	04812403          	lw	s0,72(sp)
   10628:	04412903          	lw	s2,68(sp)
   1062c:	04012983          	lw	s3,64(sp)
   10630:	03c12a03          	lw	s4,60(sp)
   10634:	03812a83          	lw	s5,56(sp)
   10638:	03412b03          	lw	s6,52(sp)
   1063c:	03012b83          	lw	s7,48(sp)
   10640:	02c12c03          	lw	s8,44(sp)
   10644:	02812c83          	lw	s9,40(sp)
   10648:	02412d03          	lw	s10,36(sp)
   1064c:	02012d83          	lw	s11,32(sp)
   10650:	05010113          	addi	sp,sp,80
   10654:	00008067          	ret

00010658 <fast_rsqrt>:
   10658:	fa010113          	addi	sp,sp,-96
   1065c:	04112e23          	sw	ra,92(sp)
   10660:	04812c23          	sw	s0,88(sp)
   10664:	05212a23          	sw	s2,84(sp)
   10668:	05312823          	sw	s3,80(sp)
   1066c:	05412623          	sw	s4,76(sp)
   10670:	05512423          	sw	s5,72(sp)
   10674:	05612223          	sw	s6,68(sp)
   10678:	05712023          	sw	s7,64(sp)
   1067c:	03812e23          	sw	s8,60(sp)
   10680:	03912c23          	sw	s9,56(sp)
   10684:	03a12a23          	sw	s10,52(sp)
   10688:	03b12823          	sw	s11,48(sp)
   1068c:	06010413          	addi	s0,sp,96
   10690:	faa42623          	sw	a0,-84(s0)
   10694:	fac42783          	lw	a5,-84(s0)
   10698:	00079663          	bnez	a5,106a4 <fast_rsqrt+0x4c>
   1069c:	fff00793          	li	a5,-1
   106a0:	1f40006f          	j	10894 <fast_rsqrt+0x23c>
   106a4:	fac42703          	lw	a4,-84(s0)
   106a8:	00100793          	li	a5,1
   106ac:	00f71663          	bne	a4,a5,106b8 <fast_rsqrt+0x60>
   106b0:	000107b7          	lui	a5,0x10
   106b4:	1e00006f          	j	10894 <fast_rsqrt+0x23c>
   106b8:	fac42503          	lw	a0,-84(s0)
   106bc:	308000ef          	jal	109c4 <clz>
   106c0:	00050713          	mv	a4,a0
   106c4:	01f00793          	li	a5,31
   106c8:	40e787b3          	sub	a5,a5,a4
   106cc:	fcf42223          	sw	a5,-60(s0)
   106d0:	000117b7          	lui	a5,0x11
   106d4:	13078713          	addi	a4,a5,304 # 11130 <rsqrt_table>
   106d8:	fc442783          	lw	a5,-60(s0)
   106dc:	00179793          	slli	a5,a5,0x1
   106e0:	00f707b3          	add	a5,a4,a5
   106e4:	0007d783          	lhu	a5,0(a5)
   106e8:	fcf42623          	sw	a5,-52(s0)
   106ec:	fc442783          	lw	a5,-60(s0)
   106f0:	00100713          	li	a4,1
   106f4:	00f717b3          	sll	a5,a4,a5
   106f8:	fac42703          	lw	a4,-84(s0)
   106fc:	10e7f063          	bgeu	a5,a4,107fc <fast_rsqrt+0x1a4>
   10700:	fc442703          	lw	a4,-60(s0)
   10704:	01e00793          	li	a5,30
   10708:	02e7c263          	blt	a5,a4,1072c <fast_rsqrt+0xd4>
   1070c:	fc442783          	lw	a5,-60(s0)
   10710:	00178793          	addi	a5,a5,1
   10714:	00011737          	lui	a4,0x11
   10718:	13070713          	addi	a4,a4,304 # 11130 <rsqrt_table>
   1071c:	00179793          	slli	a5,a5,0x1
   10720:	00f707b3          	add	a5,a4,a5
   10724:	0007d783          	lhu	a5,0(a5)
   10728:	0080006f          	j	10730 <fast_rsqrt+0xd8>
   1072c:	00000793          	li	a5,0
   10730:	fcf42023          	sw	a5,-64(s0)
   10734:	fcc42703          	lw	a4,-52(s0)
   10738:	fc042783          	lw	a5,-64(s0)
   1073c:	40f707b3          	sub	a5,a4,a5
   10740:	faf42e23          	sw	a5,-68(s0)
   10744:	fac42783          	lw	a5,-84(s0)
   10748:	00078d13          	mv	s10,a5
   1074c:	00000d93          	li	s11,0
   10750:	fc442783          	lw	a5,-60(s0)
   10754:	00100713          	li	a4,1
   10758:	00f717b3          	sll	a5,a4,a5
   1075c:	faf42023          	sw	a5,-96(s0)
   10760:	fa042223          	sw	zero,-92(s0)
   10764:	fa042583          	lw	a1,-96(s0)
   10768:	fa442603          	lw	a2,-92(s0)
   1076c:	00058693          	mv	a3,a1
   10770:	40dd0733          	sub	a4,s10,a3
   10774:	00070693          	mv	a3,a4
   10778:	00dd36b3          	sltu	a3,s10,a3
   1077c:	40cd87b3          	sub	a5,s11,a2
   10780:	40d786b3          	sub	a3,a5,a3
   10784:	00068793          	mv	a5,a3
   10788:	01075693          	srli	a3,a4,0x10
   1078c:	01079993          	slli	s3,a5,0x10
   10790:	0136e9b3          	or	s3,a3,s3
   10794:	01071913          	slli	s2,a4,0x10
   10798:	fc442783          	lw	a5,-60(s0)
   1079c:	fe078793          	addi	a5,a5,-32
   107a0:	0007c863          	bltz	a5,107b0 <fast_rsqrt+0x158>
   107a4:	00f9da33          	srl	s4,s3,a5
   107a8:	00000a93          	li	s5,0
   107ac:	02c0006f          	j	107d8 <fast_rsqrt+0x180>
   107b0:	00199713          	slli	a4,s3,0x1
   107b4:	01f00693          	li	a3,31
   107b8:	fc442783          	lw	a5,-60(s0)
   107bc:	40f687b3          	sub	a5,a3,a5
   107c0:	00f717b3          	sll	a5,a4,a5
   107c4:	fc442703          	lw	a4,-60(s0)
   107c8:	00e95a33          	srl	s4,s2,a4
   107cc:	0147ea33          	or	s4,a5,s4
   107d0:	fc442783          	lw	a5,-60(s0)
   107d4:	00f9dab3          	srl	s5,s3,a5
   107d8:	fb442c23          	sw	s4,-72(s0)
   107dc:	fb842583          	lw	a1,-72(s0)
   107e0:	fbc42503          	lw	a0,-68(s0)
   107e4:	ab1ff0ef          	jal	10294 <__mulsi3>
   107e8:	00050793          	mv	a5,a0
   107ec:	0107d793          	srli	a5,a5,0x10
   107f0:	fcc42703          	lw	a4,-52(s0)
   107f4:	40f707b3          	sub	a5,a4,a5
   107f8:	fcf42623          	sw	a5,-52(s0)
   107fc:	fc042423          	sw	zero,-56(s0)
   10800:	0840006f          	j	10884 <fast_rsqrt+0x22c>
   10804:	fcc42583          	lw	a1,-52(s0)
   10808:	fcc42503          	lw	a0,-52(s0)
   1080c:	0c4000ef          	jal	108d0 <mul32>
   10810:	00050713          	mv	a4,a0
   10814:	00058793          	mv	a5,a1
   10818:	fae42a23          	sw	a4,-76(s0)
   1081c:	fb442583          	lw	a1,-76(s0)
   10820:	fac42503          	lw	a0,-84(s0)
   10824:	0ac000ef          	jal	108d0 <mul32>
   10828:	00050713          	mv	a4,a0
   1082c:	00058793          	mv	a5,a1
   10830:	01079693          	slli	a3,a5,0x10
   10834:	01075b13          	srli	s6,a4,0x10
   10838:	0166eb33          	or	s6,a3,s6
   1083c:	0107db93          	srli	s7,a5,0x10
   10840:	fb642823          	sw	s6,-80(s0)
   10844:	00030737          	lui	a4,0x30
   10848:	fb042783          	lw	a5,-80(s0)
   1084c:	40f707b3          	sub	a5,a4,a5
   10850:	00078593          	mv	a1,a5
   10854:	fcc42503          	lw	a0,-52(s0)
   10858:	078000ef          	jal	108d0 <mul32>
   1085c:	00050713          	mv	a4,a0
   10860:	00058793          	mv	a5,a1
   10864:	00f79693          	slli	a3,a5,0xf
   10868:	01175c13          	srli	s8,a4,0x11
   1086c:	0186ec33          	or	s8,a3,s8
   10870:	0117dc93          	srli	s9,a5,0x11
   10874:	fd842623          	sw	s8,-52(s0)
   10878:	fc842783          	lw	a5,-56(s0)
   1087c:	00178793          	addi	a5,a5,1
   10880:	fcf42423          	sw	a5,-56(s0)
   10884:	fc842703          	lw	a4,-56(s0)
   10888:	00100793          	li	a5,1
   1088c:	f6e7dce3          	bge	a5,a4,10804 <fast_rsqrt+0x1ac>
   10890:	fcc42783          	lw	a5,-52(s0)
   10894:	00078513          	mv	a0,a5
   10898:	05c12083          	lw	ra,92(sp)
   1089c:	05812403          	lw	s0,88(sp)
   108a0:	05412903          	lw	s2,84(sp)
   108a4:	05012983          	lw	s3,80(sp)
   108a8:	04c12a03          	lw	s4,76(sp)
   108ac:	04812a83          	lw	s5,72(sp)
   108b0:	04412b03          	lw	s6,68(sp)
   108b4:	04012b83          	lw	s7,64(sp)
   108b8:	03c12c03          	lw	s8,60(sp)
   108bc:	03812c83          	lw	s9,56(sp)
   108c0:	03412d03          	lw	s10,52(sp)
   108c4:	03012d83          	lw	s11,48(sp)
   108c8:	06010113          	addi	sp,sp,96
   108cc:	00008067          	ret

000108d0 <mul32>:
   108d0:	fd010113          	addi	sp,sp,-48
   108d4:	02112623          	sw	ra,44(sp)
   108d8:	02812423          	sw	s0,40(sp)
   108dc:	03010413          	addi	s0,sp,48
   108e0:	fca42e23          	sw	a0,-36(s0)
   108e4:	fcb42c23          	sw	a1,-40(s0)
   108e8:	00000513          	li	a0,0
   108ec:	00000593          	li	a1,0
   108f0:	fea42423          	sw	a0,-24(s0)
   108f4:	feb42623          	sw	a1,-20(s0)
   108f8:	fe042223          	sw	zero,-28(s0)
   108fc:	09c0006f          	j	10998 <mul32+0xc8>
   10900:	fe442583          	lw	a1,-28(s0)
   10904:	00100513          	li	a0,1
   10908:	00b51533          	sll	a0,a0,a1
   1090c:	fd842583          	lw	a1,-40(s0)
   10910:	00b575b3          	and	a1,a0,a1
   10914:	06058c63          	beqz	a1,1098c <mul32+0xbc>
   10918:	fdc42583          	lw	a1,-36(s0)
   1091c:	00058613          	mv	a2,a1
   10920:	00000693          	li	a3,0
   10924:	fe442583          	lw	a1,-28(s0)
   10928:	fe058593          	addi	a1,a1,-32
   1092c:	0005c863          	bltz	a1,1093c <mul32+0x6c>
   10930:	00b617b3          	sll	a5,a2,a1
   10934:	00000713          	li	a4,0
   10938:	02c0006f          	j	10964 <mul32+0x94>
   1093c:	00165513          	srli	a0,a2,0x1
   10940:	01f00813          	li	a6,31
   10944:	fe442583          	lw	a1,-28(s0)
   10948:	40b805b3          	sub	a1,a6,a1
   1094c:	00b555b3          	srl	a1,a0,a1
   10950:	fe442503          	lw	a0,-28(s0)
   10954:	00a697b3          	sll	a5,a3,a0
   10958:	00f5e7b3          	or	a5,a1,a5
   1095c:	fe442583          	lw	a1,-28(s0)
   10960:	00b61733          	sll	a4,a2,a1
   10964:	fe842803          	lw	a6,-24(s0)
   10968:	fec42883          	lw	a7,-20(s0)
   1096c:	00e80533          	add	a0,a6,a4
   10970:	00050313          	mv	t1,a0
   10974:	01033333          	sltu	t1,t1,a6
   10978:	00f885b3          	add	a1,a7,a5
   1097c:	00b30833          	add	a6,t1,a1
   10980:	00080593          	mv	a1,a6
   10984:	fea42423          	sw	a0,-24(s0)
   10988:	feb42623          	sw	a1,-20(s0)
   1098c:	fe442583          	lw	a1,-28(s0)
   10990:	00158593          	addi	a1,a1,1
   10994:	feb42223          	sw	a1,-28(s0)
   10998:	fe442503          	lw	a0,-28(s0)
   1099c:	01f00593          	li	a1,31
   109a0:	f6a5d0e3          	bge	a1,a0,10900 <mul32+0x30>
   109a4:	fe842703          	lw	a4,-24(s0)
   109a8:	fec42783          	lw	a5,-20(s0)
   109ac:	00070513          	mv	a0,a4
   109b0:	00078593          	mv	a1,a5
   109b4:	02c12083          	lw	ra,44(sp)
   109b8:	02812403          	lw	s0,40(sp)
   109bc:	03010113          	addi	sp,sp,48
   109c0:	00008067          	ret

000109c4 <clz>:
   109c4:	fd010113          	addi	sp,sp,-48
   109c8:	02112623          	sw	ra,44(sp)
   109cc:	02812423          	sw	s0,40(sp)
   109d0:	03010413          	addi	s0,sp,48
   109d4:	fca42e23          	sw	a0,-36(s0)
   109d8:	fdc42783          	lw	a5,-36(s0)
   109dc:	00079663          	bnez	a5,109e8 <clz+0x24>
   109e0:	02000793          	li	a5,32
   109e4:	0b00006f          	j	10a94 <clz+0xd0>
   109e8:	fe042623          	sw	zero,-20(s0)
   109ec:	fdc42703          	lw	a4,-36(s0)
   109f0:	000107b7          	lui	a5,0x10
   109f4:	00f77e63          	bgeu	a4,a5,10a10 <clz+0x4c>
   109f8:	fec42783          	lw	a5,-20(s0)
   109fc:	01078793          	addi	a5,a5,16 # 10010 <_start+0x10>
   10a00:	fef42623          	sw	a5,-20(s0)
   10a04:	fdc42783          	lw	a5,-36(s0)
   10a08:	01079793          	slli	a5,a5,0x10
   10a0c:	fcf42e23          	sw	a5,-36(s0)
   10a10:	fdc42703          	lw	a4,-36(s0)
   10a14:	010007b7          	lui	a5,0x1000
   10a18:	00f77e63          	bgeu	a4,a5,10a34 <clz+0x70>
   10a1c:	fec42783          	lw	a5,-20(s0)
   10a20:	00878793          	addi	a5,a5,8 # 1000008 <__stack_top+0xfedde8>
   10a24:	fef42623          	sw	a5,-20(s0)
   10a28:	fdc42783          	lw	a5,-36(s0)
   10a2c:	00879793          	slli	a5,a5,0x8
   10a30:	fcf42e23          	sw	a5,-36(s0)
   10a34:	fdc42703          	lw	a4,-36(s0)
   10a38:	100007b7          	lui	a5,0x10000
   10a3c:	00f77e63          	bgeu	a4,a5,10a58 <clz+0x94>
   10a40:	fec42783          	lw	a5,-20(s0)
   10a44:	00478793          	addi	a5,a5,4 # 10000004 <__stack_top+0xffedde4>
   10a48:	fef42623          	sw	a5,-20(s0)
   10a4c:	fdc42783          	lw	a5,-36(s0)
   10a50:	00479793          	slli	a5,a5,0x4
   10a54:	fcf42e23          	sw	a5,-36(s0)
   10a58:	fdc42703          	lw	a4,-36(s0)
   10a5c:	400007b7          	lui	a5,0x40000
   10a60:	00f77e63          	bgeu	a4,a5,10a7c <clz+0xb8>
   10a64:	fec42783          	lw	a5,-20(s0)
   10a68:	00278793          	addi	a5,a5,2 # 40000002 <__stack_top+0x3ffedde2>
   10a6c:	fef42623          	sw	a5,-20(s0)
   10a70:	fdc42783          	lw	a5,-36(s0)
   10a74:	00279793          	slli	a5,a5,0x2
   10a78:	fcf42e23          	sw	a5,-36(s0)
   10a7c:	fdc42783          	lw	a5,-36(s0)
   10a80:	0007c863          	bltz	a5,10a90 <clz+0xcc>
   10a84:	fec42783          	lw	a5,-20(s0)
   10a88:	00178793          	addi	a5,a5,1
   10a8c:	fef42623          	sw	a5,-20(s0)
   10a90:	fec42783          	lw	a5,-20(s0)
   10a94:	00078513          	mv	a0,a5
   10a98:	02c12083          	lw	ra,44(sp)
   10a9c:	02812403          	lw	s0,40(sp)
   10aa0:	03010113          	addi	sp,sp,48
   10aa4:	00008067          	ret

00010aa8 <fast_distance_3d>:
   10aa8:	f9010113          	addi	sp,sp,-112
   10aac:	06112623          	sw	ra,108(sp)
   10ab0:	06812423          	sw	s0,104(sp)
   10ab4:	07212223          	sw	s2,100(sp)
   10ab8:	07312023          	sw	s3,96(sp)
   10abc:	05412e23          	sw	s4,92(sp)
   10ac0:	05512c23          	sw	s5,88(sp)
   10ac4:	05612a23          	sw	s6,84(sp)
   10ac8:	05712823          	sw	s7,80(sp)
   10acc:	05812623          	sw	s8,76(sp)
   10ad0:	05912423          	sw	s9,72(sp)
   10ad4:	05a12223          	sw	s10,68(sp)
   10ad8:	05b12023          	sw	s11,64(sp)
   10adc:	07010413          	addi	s0,sp,112
   10ae0:	faa42623          	sw	a0,-84(s0)
   10ae4:	fab42423          	sw	a1,-88(s0)
   10ae8:	fac42223          	sw	a2,-92(s0)
   10aec:	fac42783          	lw	a5,-84(s0)
   10af0:	00078813          	mv	a6,a5
   10af4:	41f7d793          	srai	a5,a5,0x1f
   10af8:	00078893          	mv	a7,a5
   10afc:	fac42783          	lw	a5,-84(s0)
   10b00:	00078313          	mv	t1,a5
   10b04:	41f7d793          	srai	a5,a5,0x1f
   10b08:	00078393          	mv	t2,a5
   10b0c:	00030613          	mv	a2,t1
   10b10:	00038693          	mv	a3,t2
   10b14:	00080513          	mv	a0,a6
   10b18:	00088593          	mv	a1,a7
   10b1c:	584000ef          	jal	110a0 <__muldi3>
   10b20:	00050713          	mv	a4,a0
   10b24:	00058793          	mv	a5,a1
   10b28:	00070a13          	mv	s4,a4
   10b2c:	00078a93          	mv	s5,a5
   10b30:	fa842783          	lw	a5,-88(s0)
   10b34:	f8f42c23          	sw	a5,-104(s0)
   10b38:	41f7d793          	srai	a5,a5,0x1f
   10b3c:	f8f42e23          	sw	a5,-100(s0)
   10b40:	fa842783          	lw	a5,-88(s0)
   10b44:	f8f42823          	sw	a5,-112(s0)
   10b48:	41f7d793          	srai	a5,a5,0x1f
   10b4c:	f8f42a23          	sw	a5,-108(s0)
   10b50:	f9042603          	lw	a2,-112(s0)
   10b54:	f9442683          	lw	a3,-108(s0)
   10b58:	f9842503          	lw	a0,-104(s0)
   10b5c:	f9c42583          	lw	a1,-100(s0)
   10b60:	540000ef          	jal	110a0 <__muldi3>
   10b64:	00050713          	mv	a4,a0
   10b68:	00058793          	mv	a5,a1
   10b6c:	00070613          	mv	a2,a4
   10b70:	00078693          	mv	a3,a5
   10b74:	00ca0733          	add	a4,s4,a2
   10b78:	00070593          	mv	a1,a4
   10b7c:	0145b5b3          	sltu	a1,a1,s4
   10b80:	00da87b3          	add	a5,s5,a3
   10b84:	00f586b3          	add	a3,a1,a5
   10b88:	00068793          	mv	a5,a3
   10b8c:	00070a13          	mv	s4,a4
   10b90:	00078a93          	mv	s5,a5
   10b94:	fa442783          	lw	a5,-92(s0)
   10b98:	00078c13          	mv	s8,a5
   10b9c:	41f7d793          	srai	a5,a5,0x1f
   10ba0:	00078c93          	mv	s9,a5
   10ba4:	fa442783          	lw	a5,-92(s0)
   10ba8:	00078d13          	mv	s10,a5
   10bac:	41f7d793          	srai	a5,a5,0x1f
   10bb0:	00078d93          	mv	s11,a5
   10bb4:	000d0613          	mv	a2,s10
   10bb8:	000d8693          	mv	a3,s11
   10bbc:	000c0513          	mv	a0,s8
   10bc0:	000c8593          	mv	a1,s9
   10bc4:	4dc000ef          	jal	110a0 <__muldi3>
   10bc8:	00050713          	mv	a4,a0
   10bcc:	00058793          	mv	a5,a1
   10bd0:	00070613          	mv	a2,a4
   10bd4:	00078693          	mv	a3,a5
   10bd8:	00ca0733          	add	a4,s4,a2
   10bdc:	00070593          	mv	a1,a4
   10be0:	0145b5b3          	sltu	a1,a1,s4
   10be4:	00da87b3          	add	a5,s5,a3
   10be8:	00f586b3          	add	a3,a1,a5
   10bec:	00068793          	mv	a5,a3
   10bf0:	fce42423          	sw	a4,-56(s0)
   10bf4:	fcf42623          	sw	a5,-52(s0)
   10bf8:	fcc42783          	lw	a5,-52(s0)
   10bfc:	02078463          	beqz	a5,10c24 <fast_distance_3d+0x17c>
   10c00:	fcc42783          	lw	a5,-52(s0)
   10c04:	01079793          	slli	a5,a5,0x10
   10c08:	fc842703          	lw	a4,-56(s0)
   10c0c:	01075913          	srli	s2,a4,0x10
   10c10:	0127e933          	or	s2,a5,s2
   10c14:	fcc42783          	lw	a5,-52(s0)
   10c18:	0107d993          	srli	s3,a5,0x10
   10c1c:	fd242423          	sw	s2,-56(s0)
   10c20:	fd342623          	sw	s3,-52(s0)
   10c24:	fc842783          	lw	a5,-56(s0)
   10c28:	00078513          	mv	a0,a5
   10c2c:	a2dff0ef          	jal	10658 <fast_rsqrt>
   10c30:	fca42223          	sw	a0,-60(s0)
   10c34:	fc442783          	lw	a5,-60(s0)
   10c38:	00078b13          	mv	s6,a5
   10c3c:	00000b93          	li	s7,0
   10c40:	fc842603          	lw	a2,-56(s0)
   10c44:	fcc42683          	lw	a3,-52(s0)
   10c48:	000b0513          	mv	a0,s6
   10c4c:	000b8593          	mv	a1,s7
   10c50:	450000ef          	jal	110a0 <__muldi3>
   10c54:	00050713          	mv	a4,a0
   10c58:	00058793          	mv	a5,a1
   10c5c:	01079693          	slli	a3,a5,0x10
   10c60:	01075613          	srli	a2,a4,0x10
   10c64:	00d666b3          	or	a3,a2,a3
   10c68:	fad42c23          	sw	a3,-72(s0)
   10c6c:	0107d793          	srli	a5,a5,0x10
   10c70:	faf42e23          	sw	a5,-68(s0)
   10c74:	fb842783          	lw	a5,-72(s0)
   10c78:	00078513          	mv	a0,a5
   10c7c:	06c12083          	lw	ra,108(sp)
   10c80:	06812403          	lw	s0,104(sp)
   10c84:	06412903          	lw	s2,100(sp)
   10c88:	06012983          	lw	s3,96(sp)
   10c8c:	05c12a03          	lw	s4,92(sp)
   10c90:	05812a83          	lw	s5,88(sp)
   10c94:	05412b03          	lw	s6,84(sp)
   10c98:	05012b83          	lw	s7,80(sp)
   10c9c:	04c12c03          	lw	s8,76(sp)
   10ca0:	04812c83          	lw	s9,72(sp)
   10ca4:	04412d03          	lw	s10,68(sp)
   10ca8:	04012d83          	lw	s11,64(sp)
   10cac:	07010113          	addi	sp,sp,112
   10cb0:	00008067          	ret

00010cb4 <main>:
   10cb4:	f0010113          	addi	sp,sp,-256
   10cb8:	0e112e23          	sw	ra,252(sp)
   10cbc:	0e812c23          	sw	s0,248(sp)
   10cc0:	10010413          	addi	s0,sp,256
   10cc4:	000117b7          	lui	a5,0x11
   10cc8:	17078793          	addi	a5,a5,368 # 11170 <rsqrt_table+0x40>
   10ccc:	0007a303          	lw	t1,0(a5)
   10cd0:	0047a883          	lw	a7,4(a5)
   10cd4:	0087a803          	lw	a6,8(a5)
   10cd8:	00c7a503          	lw	a0,12(a5)
   10cdc:	0107a583          	lw	a1,16(a5)
   10ce0:	0147a603          	lw	a2,20(a5)
   10ce4:	0187a683          	lw	a3,24(a5)
   10ce8:	01c7a703          	lw	a4,28(a5)
   10cec:	0207a783          	lw	a5,32(a5)
   10cf0:	f0642023          	sw	t1,-256(s0)
   10cf4:	f1142223          	sw	a7,-252(s0)
   10cf8:	f1042423          	sw	a6,-248(s0)
   10cfc:	f0a42623          	sw	a0,-244(s0)
   10d00:	f0b42823          	sw	a1,-240(s0)
   10d04:	f0c42a23          	sw	a2,-236(s0)
   10d08:	f0d42c23          	sw	a3,-232(s0)
   10d0c:	f0e42e23          	sw	a4,-228(s0)
   10d10:	f2f42023          	sw	a5,-224(s0)
   10d14:	f0040793          	addi	a5,s0,-256
   10d18:	02300713          	li	a4,35
   10d1c:	04000893          	li	a7,64
   10d20:	00100513          	li	a0,1
   10d24:	00f005b3          	add	a1,zero,a5
   10d28:	00070613          	mv	a2,a4
   10d2c:	00000073          	ecall
   10d30:	000117b7          	lui	a5,0x11
   10d34:	19478793          	addi	a5,a5,404 # 11194 <rsqrt_table+0x64>
   10d38:	0007a803          	lw	a6,0(a5)
   10d3c:	0047a503          	lw	a0,4(a5)
   10d40:	0087a583          	lw	a1,8(a5)
   10d44:	00c7a603          	lw	a2,12(a5)
   10d48:	0107a683          	lw	a3,16(a5)
   10d4c:	0147a703          	lw	a4,20(a5)
   10d50:	fd042823          	sw	a6,-48(s0)
   10d54:	fca42a23          	sw	a0,-44(s0)
   10d58:	fcb42c23          	sw	a1,-40(s0)
   10d5c:	fcc42e23          	sw	a2,-36(s0)
   10d60:	fed42023          	sw	a3,-32(s0)
   10d64:	fee42223          	sw	a4,-28(s0)
   10d68:	0187c783          	lbu	a5,24(a5)
   10d6c:	fef40423          	sb	a5,-24(s0)
   10d70:	fd040793          	addi	a5,s0,-48
   10d74:	01800713          	li	a4,24
   10d78:	04000893          	li	a7,64
   10d7c:	00100513          	li	a0,1
   10d80:	00f005b3          	add	a1,zero,a5
   10d84:	00070613          	mv	a2,a4
   10d88:	00000073          	ecall
   10d8c:	00100513          	li	a0,1
   10d90:	8c9ff0ef          	jal	10658 <fast_rsqrt>
   10d94:	fea42623          	sw	a0,-20(s0)
   10d98:	757367b7          	lui	a5,0x75736
   10d9c:	55278793          	addi	a5,a5,1362 # 75736552 <__stack_top+0x75724332>
   10da0:	fcf42223          	sw	a5,-60(s0)
   10da4:	203a77b7          	lui	a5,0x203a7
   10da8:	46c78793          	addi	a5,a5,1132 # 203a746c <__stack_top+0x2039524c>
   10dac:	fcf42423          	sw	a5,-56(s0)
   10db0:	fc040623          	sb	zero,-52(s0)
   10db4:	fc440793          	addi	a5,s0,-60
   10db8:	00800713          	li	a4,8
   10dbc:	04000893          	li	a7,64
   10dc0:	00100513          	li	a0,1
   10dc4:	00f005b3          	add	a1,zero,a5
   10dc8:	00070613          	mv	a2,a4
   10dcc:	00000073          	ecall
   10dd0:	fec42503          	lw	a0,-20(s0)
   10dd4:	e04ff0ef          	jal	103d8 <print_dec>
   10dd8:	000117b7          	lui	a5,0x11
   10ddc:	1b078793          	addi	a5,a5,432 # 111b0 <rsqrt_table+0x80>
   10de0:	0007a803          	lw	a6,0(a5)
   10de4:	0047a503          	lw	a0,4(a5)
   10de8:	0087a583          	lw	a1,8(a5)
   10dec:	00c7a603          	lw	a2,12(a5)
   10df0:	0107a683          	lw	a3,16(a5)
   10df4:	0147a703          	lw	a4,20(a5)
   10df8:	fb042423          	sw	a6,-88(s0)
   10dfc:	faa42623          	sw	a0,-84(s0)
   10e00:	fab42823          	sw	a1,-80(s0)
   10e04:	fac42a23          	sw	a2,-76(s0)
   10e08:	fad42c23          	sw	a3,-72(s0)
   10e0c:	fae42e23          	sw	a4,-68(s0)
   10e10:	0187c783          	lbu	a5,24(a5)
   10e14:	fcf40023          	sb	a5,-64(s0)
   10e18:	fa840793          	addi	a5,s0,-88
   10e1c:	01800713          	li	a4,24
   10e20:	04000893          	li	a7,64
   10e24:	00100513          	li	a0,1
   10e28:	00f005b3          	add	a1,zero,a5
   10e2c:	00070613          	mv	a2,a4
   10e30:	00000073          	ecall
   10e34:	00400513          	li	a0,4
   10e38:	821ff0ef          	jal	10658 <fast_rsqrt>
   10e3c:	fea42623          	sw	a0,-20(s0)
   10e40:	757367b7          	lui	a5,0x75736
   10e44:	55278793          	addi	a5,a5,1362 # 75736552 <__stack_top+0x75724332>
   10e48:	f8f42e23          	sw	a5,-100(s0)
   10e4c:	203a77b7          	lui	a5,0x203a7
   10e50:	46c78793          	addi	a5,a5,1132 # 203a746c <__stack_top+0x2039524c>
   10e54:	faf42023          	sw	a5,-96(s0)
   10e58:	fa040223          	sb	zero,-92(s0)
   10e5c:	f9c40793          	addi	a5,s0,-100
   10e60:	00800713          	li	a4,8
   10e64:	04000893          	li	a7,64
   10e68:	00100513          	li	a0,1
   10e6c:	00f005b3          	add	a1,zero,a5
   10e70:	00070613          	mv	a2,a4
   10e74:	00000073          	ecall
   10e78:	fec42503          	lw	a0,-20(s0)
   10e7c:	d5cff0ef          	jal	103d8 <print_dec>
   10e80:	000117b7          	lui	a5,0x11
   10e84:	1cc78793          	addi	a5,a5,460 # 111cc <rsqrt_table+0x9c>
   10e88:	0007a803          	lw	a6,0(a5)
   10e8c:	0047a503          	lw	a0,4(a5)
   10e90:	0087a583          	lw	a1,8(a5)
   10e94:	00c7a603          	lw	a2,12(a5)
   10e98:	0107a683          	lw	a3,16(a5)
   10e9c:	0147a703          	lw	a4,20(a5)
   10ea0:	f9042023          	sw	a6,-128(s0)
   10ea4:	f8a42223          	sw	a0,-124(s0)
   10ea8:	f8b42423          	sw	a1,-120(s0)
   10eac:	f8c42623          	sw	a2,-116(s0)
   10eb0:	f8d42823          	sw	a3,-112(s0)
   10eb4:	f8e42a23          	sw	a4,-108(s0)
   10eb8:	0187d703          	lhu	a4,24(a5)
   10ebc:	f8e41c23          	sh	a4,-104(s0)
   10ec0:	01a7c783          	lbu	a5,26(a5)
   10ec4:	f8f40d23          	sb	a5,-102(s0)
   10ec8:	f8040793          	addi	a5,s0,-128
   10ecc:	01a00713          	li	a4,26
   10ed0:	04000893          	li	a7,64
   10ed4:	00100513          	li	a0,1
   10ed8:	00f005b3          	add	a1,zero,a5
   10edc:	00070613          	mv	a2,a4
   10ee0:	00000073          	ecall
   10ee4:	01000513          	li	a0,16
   10ee8:	f70ff0ef          	jal	10658 <fast_rsqrt>
   10eec:	fea42623          	sw	a0,-20(s0)
   10ef0:	757367b7          	lui	a5,0x75736
   10ef4:	55278793          	addi	a5,a5,1362 # 75736552 <__stack_top+0x75724332>
   10ef8:	f6f42a23          	sw	a5,-140(s0)
   10efc:	203a77b7          	lui	a5,0x203a7
   10f00:	46c78793          	addi	a5,a5,1132 # 203a746c <__stack_top+0x2039524c>
   10f04:	f6f42c23          	sw	a5,-136(s0)
   10f08:	f6040e23          	sb	zero,-132(s0)
   10f0c:	f7440793          	addi	a5,s0,-140
   10f10:	00800713          	li	a4,8
   10f14:	04000893          	li	a7,64
   10f18:	00100513          	li	a0,1
   10f1c:	00f005b3          	add	a1,zero,a5
   10f20:	00070613          	mv	a2,a4
   10f24:	00000073          	ecall
   10f28:	fec42503          	lw	a0,-20(s0)
   10f2c:	cacff0ef          	jal	103d8 <print_dec>
   10f30:	000117b7          	lui	a5,0x11
   10f34:	1e878793          	addi	a5,a5,488 # 111e8 <rsqrt_table+0xb8>
   10f38:	0007a803          	lw	a6,0(a5)
   10f3c:	0047a503          	lw	a0,4(a5)
   10f40:	0087a583          	lw	a1,8(a5)
   10f44:	00c7a603          	lw	a2,12(a5)
   10f48:	0107a683          	lw	a3,16(a5)
   10f4c:	0147a703          	lw	a4,20(a5)
   10f50:	f5042c23          	sw	a6,-168(s0)
   10f54:	f4a42e23          	sw	a0,-164(s0)
   10f58:	f6b42023          	sw	a1,-160(s0)
   10f5c:	f6c42223          	sw	a2,-156(s0)
   10f60:	f6d42423          	sw	a3,-152(s0)
   10f64:	f6e42623          	sw	a4,-148(s0)
   10f68:	0187d703          	lhu	a4,24(a5)
   10f6c:	f6e41823          	sh	a4,-144(s0)
   10f70:	01a7c783          	lbu	a5,26(a5)
   10f74:	f6f40923          	sb	a5,-142(s0)
   10f78:	f5840793          	addi	a5,s0,-168
   10f7c:	01a00713          	li	a4,26
   10f80:	04000893          	li	a7,64
   10f84:	00100513          	li	a0,1
   10f88:	00f005b3          	add	a1,zero,a5
   10f8c:	00070613          	mv	a2,a4
   10f90:	00000073          	ecall
   10f94:	06400513          	li	a0,100
   10f98:	ec0ff0ef          	jal	10658 <fast_rsqrt>
   10f9c:	fea42623          	sw	a0,-20(s0)
   10fa0:	757367b7          	lui	a5,0x75736
   10fa4:	55278793          	addi	a5,a5,1362 # 75736552 <__stack_top+0x75724332>
   10fa8:	f4f42623          	sw	a5,-180(s0)
   10fac:	203a77b7          	lui	a5,0x203a7
   10fb0:	46c78793          	addi	a5,a5,1132 # 203a746c <__stack_top+0x2039524c>
   10fb4:	f4f42823          	sw	a5,-176(s0)
   10fb8:	f4040a23          	sb	zero,-172(s0)
   10fbc:	f4c40793          	addi	a5,s0,-180
   10fc0:	00800713          	li	a4,8
   10fc4:	04000893          	li	a7,64
   10fc8:	00100513          	li	a0,1
   10fcc:	00f005b3          	add	a1,zero,a5
   10fd0:	00070613          	mv	a2,a4
   10fd4:	00000073          	ecall
   10fd8:	fec42503          	lw	a0,-20(s0)
   10fdc:	bfcff0ef          	jal	103d8 <print_dec>
   10fe0:	000117b7          	lui	a5,0x11
   10fe4:	20478793          	addi	a5,a5,516 # 11204 <rsqrt_table+0xd4>
   10fe8:	0007a803          	lw	a6,0(a5)
   10fec:	0047a503          	lw	a0,4(a5)
   10ff0:	0087a583          	lw	a1,8(a5)
   10ff4:	00c7a603          	lw	a2,12(a5)
   10ff8:	0107a683          	lw	a3,16(a5)
   10ffc:	0147a703          	lw	a4,20(a5)
   11000:	0187a783          	lw	a5,24(a5)
   11004:	f3042823          	sw	a6,-208(s0)
   11008:	f2a42a23          	sw	a0,-204(s0)
   1100c:	f2b42c23          	sw	a1,-200(s0)
   11010:	f2c42e23          	sw	a2,-196(s0)
   11014:	f4d42023          	sw	a3,-192(s0)
   11018:	f4e42223          	sw	a4,-188(s0)
   1101c:	f4f42423          	sw	a5,-184(s0)
   11020:	f3040793          	addi	a5,s0,-208
   11024:	01b00713          	li	a4,27
   11028:	04000893          	li	a7,64
   1102c:	00100513          	li	a0,1
   11030:	00f005b3          	add	a1,zero,a5
   11034:	00070613          	mv	a2,a4
   11038:	00000073          	ecall
   1103c:	00001537          	lui	a0,0x1
   11040:	e18ff0ef          	jal	10658 <fast_rsqrt>
   11044:	fea42623          	sw	a0,-20(s0)
   11048:	757367b7          	lui	a5,0x75736
   1104c:	55278793          	addi	a5,a5,1362 # 75736552 <__stack_top+0x75724332>
   11050:	f2f42223          	sw	a5,-220(s0)
   11054:	203a77b7          	lui	a5,0x203a7
   11058:	46c78793          	addi	a5,a5,1132 # 203a746c <__stack_top+0x2039524c>
   1105c:	f2f42423          	sw	a5,-216(s0)
   11060:	f2040623          	sb	zero,-212(s0)
   11064:	f2440793          	addi	a5,s0,-220
   11068:	00800713          	li	a4,8
   1106c:	04000893          	li	a7,64
   11070:	00100513          	li	a0,1
   11074:	00f005b3          	add	a1,zero,a5
   11078:	00070613          	mv	a2,a4
   1107c:	00000073          	ecall
   11080:	fec42503          	lw	a0,-20(s0)
   11084:	b54ff0ef          	jal	103d8 <print_dec>
   11088:	00000793          	li	a5,0
   1108c:	00078513          	mv	a0,a5
   11090:	0fc12083          	lw	ra,252(sp)
   11094:	0f812403          	lw	s0,248(sp)
   11098:	10010113          	addi	sp,sp,256
   1109c:	00008067          	ret

Disassembly of section .text.__muldi3:

000110a0 <__muldi3>:
   110a0:	82aa                	mv	t0,a0
   110a2:	872a                	mv	a4,a0
   110a4:	8832                	mv	a6,a2
   110a6:	4781                	li	a5,0
   110a8:	4301                	li	t1,0
   110aa:	4501                	li	a0,0
   110ac:	00a708b3          	add	a7,a4,a0
   110b0:	00187e93          	andi	t4,a6,1
   110b4:	00f30f33          	add	t5,t1,a5
   110b8:	01f75e13          	srli	t3,a4,0x1f
   110bc:	00185813          	srli	a6,a6,0x1
   110c0:	00e8bfb3          	sltu	t6,a7,a4
   110c4:	0786                	slli	a5,a5,0x1
   110c6:	000e8563          	beqz	t4,110d0 <__muldi3+0x30>
   110ca:	8546                	mv	a0,a7
   110cc:	01ef8333          	add	t1,t6,t5
   110d0:	0706                	slli	a4,a4,0x1
   110d2:	01c7e7b3          	or	a5,a5,t3
   110d6:	fc081be3          	bnez	a6,110ac <__muldi3+0xc>
   110da:	c581                	beqz	a1,110e2 <__muldi3+0x42>
   110dc:	02c585b3          	mul	a1,a1,a2
   110e0:	932e                	add	t1,t1,a1
   110e2:	859a                	mv	a1,t1
   110e4:	c689                	beqz	a3,110ee <__muldi3+0x4e>
   110e6:	025686b3          	mul	a3,a3,t0
   110ea:	006685b3          	add	a1,a3,t1
   110ee:	8082                	ret

Disassembly of section .rodata:

000110f0 <inv_sqrt_cache>:
   110f0:	ffff                	.insn	2, 0xffff
   110f2:	ffff                	.insn	2, 0xffff
   110f4:	ffff                	.insn	2, 0xffff
   110f6:	ffff                	.insn	2, 0xffff
   110f8:	f334                	.insn	2, 0xf334
   110fa:	b504                	.insn	2, 0xb504
   110fc:	3a2d                	jal	10a36 <clz+0x72>
   110fe:	93cd                	srli	a5,a5,0x33
   11100:	ffff                	.insn	2, 0xffff
   11102:	7fff                	.insn	2, 0x7fff
   11104:	727c9717          	auipc	a4,0x727c9
   11108:	f5c0                	.insn	2, 0xf5c0
   1110a:	6882                	.insn	2, 0x6882
   1110c:	60c2479b          	.insn	4, 0x60c2479b
   11110:	799a                	.insn	2, 0x799a
   11112:	5a82                	lw	s5,32(sp)
   11114:	5555                	li	a0,-11
   11116:	5555                	li	a0,-11
   11118:	4d8a                	lw	s11,128(sp)
   1111a:	50f4                	lw	a3,100(s1)
   1111c:	d8f4                	sw	a3,116(s1)
   1111e:	9d174d2f          	.insn	4, 0x9d174d2f
   11122:	49e6                	lw	s3,88(sp)
   11124:	6a81                	.insn	2, 0x6a81
   11126:	4700                	lw	s0,8(a4)
   11128:	3b96                	.insn	2, 0x3b96
   1112a:	528c446b          	.insn	4, 0x528c446b
   1112e:	4219                	li	tp,6

00011130 <rsqrt_table>:
   11130:	ffff                	.insn	2, 0xffff
   11132:	b505                	j	10f52 <main+0x29e>
   11134:	8000                	.insn	2, 0x8000
   11136:	5a82                	lw	s5,32(sp)
   11138:	4000                	lw	s0,0(s0)
   1113a:	2d41                	jal	117ca <__bss_end+0x5aa>
   1113c:	2000                	.insn	2, 0x2000
   1113e:	16a1                	addi	a3,a3,-24
   11140:	1000                	addi	s0,sp,32
   11142:	0b50                	addi	a2,sp,404
   11144:	0800                	addi	s0,sp,16
   11146:	05a8                	addi	a0,sp,712
   11148:	0400                	addi	s0,sp,512
   1114a:	02d4                	addi	a3,sp,324
   1114c:	0200                	addi	s0,sp,256
   1114e:	016a                	slli	sp,sp,0x1a
   11150:	0100                	addi	s0,sp,128
   11152:	00b5                	addi	ra,ra,13
   11154:	0080                	addi	s0,sp,64
   11156:	005a                	c.slli	zero,0x16
   11158:	0040                	addi	s0,sp,4
   1115a:	002d                	c.nop	11
   1115c:	0020                	addi	s0,sp,8
   1115e:	00100017          	auipc	zero,0x100
   11162:	0008000b          	.insn	4, 0x0008000b
   11166:	0006                	c.slli	zero,0x1
   11168:	0004                	.insn	2, 0x0004
   1116a:	00020003          	lb	zero,0(tp) # 0 <_start-0x10000>
   1116e:	0001                	nop
   11170:	3d3d                	jal	10fae <main+0x2fa>
   11172:	203d                	jal	111a0 <rsqrt_table+0x70>
   11174:	5652                	lw	a2,52(sp)
   11176:	42203233          	.insn	4, 0x42203233
   1117a:	7261                	lui	tp,0xffff8
   1117c:	2d65                	jal	11834 <__bss_end+0x614>
   1117e:	656d                	lui	a0,0x1b
   11180:	6174                	.insn	2, 0x6174
   11182:	206c                	.insn	2, 0x206c
   11184:	7372                	.insn	2, 0x7372
   11186:	7271                	lui	tp,0xffffc
   11188:	2074                	.insn	2, 0x2074
   1118a:	6574                	.insn	2, 0x6574
   1118c:	3d207473          	.insn	4, 0x3d207473
   11190:	3d3d                	jal	10fce <main+0x31a>
   11192:	000a                	c.slli	zero,0x2
   11194:	6e49                	lui	t3,0x12
   11196:	7570                	.insn	2, 0x7570
   11198:	3a74                	.insn	2, 0x3a74
   1119a:	3120                	.insn	2, 0x3120
   1119c:	2820                	.insn	2, 0x2820
   1119e:	7845                	lui	a6,0xffff1
   111a0:	6570                	.insn	2, 0x6570
   111a2:	36207463          	bgeu	zero,sp,1150a <__bss_end+0x2ea>
   111a6:	3535                	jal	10fd2 <main+0x31e>
   111a8:	0a293633          	.insn	4, 0x0a293633
   111ac:	0000                	unimp
   111ae:	0000                	unimp
   111b0:	6e49                	lui	t3,0x12
   111b2:	7570                	.insn	2, 0x7570
   111b4:	3a74                	.insn	2, 0x3a74
   111b6:	3420                	.insn	2, 0x3420
   111b8:	2820                	.insn	2, 0x2820
   111ba:	7845                	lui	a6,0xffff1
   111bc:	6570                	.insn	2, 0x6570
   111be:	33207463          	bgeu	zero,s2,114e6 <__bss_end+0x2c6>
   111c2:	3732                	.insn	2, 0x3732
   111c4:	3836                	.insn	2, 0x3836
   111c6:	0a29                	addi	s4,s4,10
   111c8:	0000                	unimp
   111ca:	0000                	unimp
   111cc:	6e49                	lui	t3,0x12
   111ce:	7570                	.insn	2, 0x7570
   111d0:	3a74                	.insn	2, 0x3a74
   111d2:	3120                	.insn	2, 0x3120
   111d4:	2036                	.insn	2, 0x2036
   111d6:	4528                	lw	a0,72(a0)
   111d8:	7078                	.insn	2, 0x7078
   111da:	6365                	lui	t1,0x19
   111dc:	2074                	.insn	2, 0x2074
   111de:	317e                	.insn	2, 0x317e
   111e0:	3336                	.insn	2, 0x3336
   111e2:	3438                	.insn	2, 0x3438
   111e4:	0a29                	addi	s4,s4,10
   111e6:	0000                	unimp
   111e8:	6e49                	lui	t3,0x12
   111ea:	7570                	.insn	2, 0x7570
   111ec:	3a74                	.insn	2, 0x3a74
   111ee:	3120                	.insn	2, 0x3120
   111f0:	3030                	.insn	2, 0x3030
   111f2:	2820                	.insn	2, 0x2820
   111f4:	7845                	lui	a6,0xffff1
   111f6:	6570                	.insn	2, 0x6570
   111f8:	7e207463          	bgeu	zero,sp,119e0 <__bss_end+0x7c0>
   111fc:	3536                	.insn	2, 0x3536
   111fe:	3335                	jal	10f2a <main+0x276>
   11200:	0a29                	addi	s4,s4,10
   11202:	0000                	unimp
   11204:	6e49                	lui	t3,0x12
   11206:	7570                	.insn	2, 0x7570
   11208:	3a74                	.insn	2, 0x3a74
   1120a:	3420                	.insn	2, 0x3420
   1120c:	3930                	.insn	2, 0x3930
   1120e:	2036                	.insn	2, 0x2036
   11210:	4528                	lw	a0,72(a0)
   11212:	7078                	.insn	2, 0x7078
   11214:	6365                	lui	t1,0x19
   11216:	2074                	.insn	2, 0x2074
   11218:	317e                	.insn	2, 0x317e
   1121a:	3230                	.insn	2, 0x3230
   1121c:	2934                	.insn	2, 0x2934
   1121e:	000a                	c.slli	zero,0x2

Disassembly of section .riscv.attributes:

00000000 <.riscv.attributes>:
   0:	4f41                	li	t5,16
   2:	0000                	unimp
   4:	7200                	.insn	2, 0x7200
   6:	7369                	lui	t1,0xffffa
   8:	01007663          	bgeu	zero,a6,14 <_start-0xffec>
   c:	0045                	c.nop	17
   e:	0000                	unimp
  10:	1004                	addi	s1,sp,32
  12:	7205                	lui	tp,0xfffe1
  14:	3376                	.insn	2, 0x3376
  16:	6932                	.insn	2, 0x6932
  18:	7032                	.insn	2, 0x7032
  1a:	5f31                	li	t5,-20
  1c:	326d                	jal	fffff9c6 <__stack_top+0xfffed7a6>
  1e:	3070                	.insn	2, 0x3070
  20:	615f 7032 5f31      	.insn	6, 0x5f317032615f
  26:	30703263          	.insn	4, 0x30703263
  2a:	7a5f 6369 7273      	.insn	6, 0x727363697a5f
  30:	7032                	.insn	2, 0x7032
  32:	5f30                	lw	a2,120(a4)
  34:	6d7a                	.insn	2, 0x6d7a
  36:	756d                	lui	a0,0xffffb
  38:	316c                	.insn	2, 0x316c
  3a:	3070                	.insn	2, 0x3070
  3c:	7a5f 6161 6f6d      	.insn	6, 0x6f6d61617a5f
  42:	7031                	c.lui	zero,0xfffec
  44:	5f30                	lw	a2,120(a4)
  46:	617a                	.insn	2, 0x617a
  48:	726c                	.insn	2, 0x726c
  4a:	70316373          	.insn	4, 0x70316373
  4e:	0030                	addi	a2,sp,8

Disassembly of section .comment:

00000000 <.comment>:
   0:	3a434347          	.insn	4, 0x3a434347
   4:	2820                	.insn	2, 0x2820
   6:	5078                	lw	a4,100(s0)
   8:	6361                	lui	t1,0x18
   a:	4e47206b          	.insn	4, 0x4e47206b
   e:	2055                	jal	b2 <_start-0xff4e>
  10:	4952                	lw	s2,20(sp)
  12:	562d4353          	.insn	4, 0x562d4353
  16:	4520                	lw	s0,72(a0)
  18:	626d                	lui	tp,0x1b
  1a:	6465                	lui	s0,0x19
  1c:	6564                	.insn	2, 0x6564
  1e:	2064                	.insn	2, 0x2064
  20:	20434347          	.insn	4, 0x20434347
  24:	3878                	.insn	2, 0x3878
  26:	5f36                	lw	t5,108(sp)
  28:	3436                	.insn	2, 0x3436
  2a:	2029                	jal	34 <_start-0xffcc>
  2c:	3431                	jal	fffffa38 <__stack_top+0xfffed818>
  2e:	322e                	.insn	2, 0x322e
  30:	302e                	.insn	2, 0x302e
	...

Disassembly of section .debug_line:

00000000 <.debug_line>:
   0:	0071                	c.nop	28
   2:	0000                	unimp
   4:	0002                	c.slli64	zero
   6:	0000001b          	.insn	4, 0x001b
   a:	0101                	addi	sp,sp,0
   c:	000a0efb          	.insn	4, 0x000a0efb
  10:	0101                	addi	sp,sp,0
  12:	0101                	addi	sp,sp,0
  14:	0000                	unimp
  16:	0100                	addi	s0,sp,128
  18:	7300                	.insn	2, 0x7300
  1a:	6174                	.insn	2, 0x6174
  1c:	7472                	.insn	2, 0x7472
  1e:	532e                	lw	t1,232(sp)
  20:	0000                	unimp
  22:	0000                	unimp
  24:	0000                	unimp
  26:	0205                	addi	tp,tp,1 # 1b001 <__stack_top+0x8de1>
  28:	0000                	unimp
  2a:	0001                	nop
  2c:	0316                	slli	t1,t1,0x5
  2e:	00080903          	lb	s2,0(a6) # ffff1000 <__stack_top+0xfffdede0>
  32:	0301                	addi	t1,t1,0 # 18000 <__stack_top+0x5de0>
  34:	0901                	addi	s2,s2,0
  36:	0008                	.insn	2, 0x0008
  38:	0301                	addi	t1,t1,0
  3a:	0902                	c.slli64	s2
  3c:	0008                	.insn	2, 0x0008
  3e:	0301                	addi	t1,t1,0
  40:	0901                	addi	s2,s2,0
  42:	0004                	.insn	2, 0x0004
  44:	0301                	addi	t1,t1,0
  46:	0901                	addi	s2,s2,0
  48:	0004                	.insn	2, 0x0004
  4a:	0301                	addi	t1,t1,0
  4c:	0901                	addi	s2,s2,0
  4e:	0004                	.insn	2, 0x0004
  50:	0301                	addi	t1,t1,0
  52:	0904                	addi	s1,sp,144
  54:	0004                	.insn	2, 0x0004
  56:	0301                	addi	t1,t1,0
  58:	00040903          	lb	s2,0(s0) # 19000 <__stack_top+0x6de0>
  5c:	0301                	addi	t1,t1,0
  5e:	0901                	addi	s2,s2,0
  60:	0004                	.insn	2, 0x0004
  62:	0301                	addi	t1,t1,0
  64:	0901                	addi	s2,s2,0
  66:	0004                	.insn	2, 0x0004
  68:	0301                	addi	t1,t1,0
  6a:	0904                	addi	s1,sp,144
  6c:	0004                	.insn	2, 0x0004
  6e:	0901                	addi	s2,s2,0
  70:	0004                	.insn	2, 0x0004
  72:	0100                	addi	s0,sp,128
  74:	fc01                	bnez	s0,ffffff8c <__stack_top+0xfffedd6c>
  76:	05000007          	.insn	4, 0x05000007
  7a:	0400                	addi	s0,sp,512
  7c:	4e00                	lw	s0,24(a2)
  7e:	0000                	unimp
  80:	0100                	addi	s0,sp,128
  82:	0101                	addi	sp,sp,0
  84:	000d0efb          	.insn	4, 0x000d0efb
  88:	0101                	addi	sp,sp,0
  8a:	0101                	addi	sp,sp,0
  8c:	0000                	unimp
  8e:	0100                	addi	s0,sp,128
  90:	0000                	unimp
  92:	0101                	addi	sp,sp,0
  94:	1f01                	addi	t5,t5,-32
  96:	0005                	c.nop	1
  98:	0000                	unimp
  9a:	5700                	lw	s0,40(a4)
  9c:	0000                	unimp
  9e:	b700                	.insn	2, 0xb700
  a0:	0000                	unimp
  a2:	1300                	addi	s0,sp,416
  a4:	0001                	nop
  a6:	7a00                	.insn	2, 0x7a00
  a8:	0001                	nop
  aa:	0200                	addi	s0,sp,256
  ac:	1f01                	addi	t5,t5,-32
  ae:	0f02                	c.slli64	t5
  b0:	5006                	.insn	2, 0x5006
  b2:	0000                	unimp
  b4:	0000                	unimp
  b6:	0050                	addi	a2,sp,4
  b8:	0000                	unimp
  ba:	d200                	sw	s0,32(a2)
  bc:	0001                	nop
  be:	0100                	addi	s0,sp,128
  c0:	000001e3          	beqz	zero,8c2 <_start-0xf73e>
  c4:	ed02                	.insn	2, 0xed02
  c6:	0001                	nop
  c8:	0300                	addi	s0,sp,384
  ca:	01f6                	slli	gp,gp,0x1d
  cc:	0000                	unimp
  ce:	0504                	addi	s1,sp,640
  d0:	0001                	nop
  d2:	0205                	addi	tp,tp,1 # 1 <_start-0xffff>
  d4:	003c                	addi	a5,sp,8
  d6:	0001                	nop
  d8:	05011e03          	lh	t3,80(sp)
  dc:	030e                	slli	t1,t1,0x3
  de:	0901                	addi	s2,s2,0
  e0:	001c                	.insn	2, 0x001c
  e2:	0501                	addi	a0,a0,0 # ffffb000 <__stack_top+0xfffe8de0>
  e4:	0314                	addi	a3,sp,384
  e6:	0901                	addi	s2,s2,0
  e8:	0008                	.insn	2, 0x0008
  ea:	0501                	addi	a0,a0,0
  ec:	0901030b          	.insn	4, 0x0901030b
  f0:	0008                	.insn	2, 0x0008
  f2:	0501                	addi	a0,a0,0
  f4:	0312                	slli	t1,t1,0x4
  f6:	0901                	addi	s2,s2,0
  f8:	0004                	.insn	2, 0x0004
  fa:	0501                	addi	a0,a0,0
  fc:	0900030b          	.insn	4, 0x0900030b
 100:	000c                	.insn	2, 0x000c
 102:	0501                	addi	a0,a0,0
 104:	0310                	addi	a2,sp,384
 106:	0900                	addi	s0,sp,144
 108:	000c                	.insn	2, 0x000c
 10a:	0501                	addi	a0,a0,0
 10c:	030e                	slli	t1,t1,0x3
 10e:	0900                	addi	s0,sp,144
 110:	0004                	.insn	2, 0x0004
 112:	0501                	addi	a0,a0,0
 114:	030d                	addi	t1,t1,3
 116:	097f 0004 0501 030c 	.insn	10, 0x0900030c05010004097f
 11e:	0900 
 120:	000c                	.insn	2, 0x000c
 122:	0301                	addi	t1,t1,0
 124:	0902                	c.slli64	s2
 126:	0004                	.insn	2, 0x0004
 128:	0501                	addi	a0,a0,0
 12a:	0301                	addi	t1,t1,0
 12c:	0901                	addi	s2,s2,0
 12e:	0004                	.insn	2, 0x0004
 130:	0301                	addi	t1,t1,0
 132:	0904                	addi	s1,sp,144
 134:	0014                	.insn	2, 0x0014
 136:	0501                	addi	a0,a0,0
 138:	0308                	addi	a0,sp,384
 13a:	0901                	addi	s2,s2,0
 13c:	0018                	.insn	2, 0x0018
 13e:	0501                	addi	a0,a0,0
 140:	0310                	addi	a2,sp,384
 142:	0901                	addi	s2,s2,0
 144:	0008                	.insn	2, 0x0008
 146:	0501                	addi	a0,a0,0
 148:	09020313          	addi	t1,tp,144 # 90 <_start-0xff70>
 14c:	0008                	.insn	2, 0x0008
 14e:	0301                	addi	t1,t1,0
 150:	0901                	addi	s2,s2,0
 152:	0004                	.insn	2, 0x0004
 154:	0501                	addi	a0,a0,0
 156:	030e                	slli	t1,t1,0x3
 158:	0902                	c.slli64	s2
 15a:	0004                	.insn	2, 0x0004
 15c:	0501                	addi	a0,a0,0
 15e:	0305                	addi	t1,t1,1
 160:	0900                	addi	s0,sp,144
 162:	0008                	.insn	2, 0x0008
 164:	0501                	addi	a0,a0,0
 166:	09010313          	addi	t1,sp,144
 16a:	0004                	.insn	2, 0x0004
 16c:	0501                	addi	a0,a0,0
 16e:	0320                	addi	s0,sp,392
 170:	0901                	addi	s2,s2,0
 172:	000c                	.insn	2, 0x000c
 174:	0501                	addi	a0,a0,0
 176:	0326                	slli	t1,t1,0x9
 178:	0900                	addi	s0,sp,144
 17a:	000c                	.insn	2, 0x000c
 17c:	0501                	addi	a0,a0,0
 17e:	09000313          	li	t1,144
 182:	0004                	.insn	2, 0x0004
 184:	0501                	addi	a0,a0,0
 186:	030c                	addi	a1,sp,384
 188:	0902                	c.slli64	s2
 18a:	000c                	.insn	2, 0x000c
 18c:	0501                	addi	a0,a0,0
 18e:	09010317          	auipc	t1,0x9010
 192:	000c                	.insn	2, 0x000c
 194:	0501                	addi	a0,a0,0
 196:	031e                	slli	t1,t1,0x7
 198:	0901                	addi	s2,s2,0
 19a:	0010                	.insn	2, 0x0010
 19c:	0501                	addi	a0,a0,0
 19e:	0316                	slli	t1,t1,0x5
 1a0:	0900                	addi	s0,sp,144
 1a2:	000c                	.insn	2, 0x000c
 1a4:	0501                	addi	a0,a0,0
 1a6:	001f 0402 0302      	.insn	6, 0x03020402001f
 1ac:	097a                	slli	s2,s2,0x1e
 1ae:	000c                	.insn	2, 0x000c
 1b0:	0501                	addi	a0,a0,0
 1b2:	0018                	.insn	2, 0x0018
 1b4:	0402                	c.slli64	s0
 1b6:	0301                	addi	t1,t1,0 # 901018e <__stack_top+0x8ffdf6e>
 1b8:	0900                	addi	s0,sp,144
 1ba:	000c                	.insn	2, 0x000c
 1bc:	0501                	addi	a0,a0,0
 1be:	030c                	addi	a1,sp,384
 1c0:	090a                	slli	s2,s2,0x2
 1c2:	0008                	.insn	2, 0x0008
 1c4:	0501                	addi	a0,a0,0
 1c6:	0301                	addi	t1,t1,0
 1c8:	0901                	addi	s2,s2,0
 1ca:	0004                	.insn	2, 0x0004
 1cc:	0301                	addi	t1,t1,0
 1ce:	00140903          	lb	s2,1(s0)
 1d2:	0501                	addi	a0,a0,0
 1d4:	0308                	addi	a0,sp,384
 1d6:	0901                	addi	s2,s2,0
 1d8:	0018                	.insn	2, 0x0018
 1da:	0501                	addi	a0,a0,0
 1dc:	0310                	addi	a2,sp,384
 1de:	0901                	addi	s2,s2,0
 1e0:	0008                	.insn	2, 0x0008
 1e2:	0501                	addi	a0,a0,0
 1e4:	09020313          	addi	t1,tp,144 # 90 <_start-0xff70>
 1e8:	0008                	.insn	2, 0x0008
 1ea:	0501                	addi	a0,a0,0
 1ec:	030e                	slli	t1,t1,0x3
 1ee:	0902                	c.slli64	s2
 1f0:	0004                	.insn	2, 0x0004
 1f2:	0501                	addi	a0,a0,0
 1f4:	0305                	addi	t1,t1,1
 1f6:	0900                	addi	s0,sp,144
 1f8:	0008                	.insn	2, 0x0008
 1fa:	0501                	addi	a0,a0,0
 1fc:	09010313          	addi	t1,sp,144
 200:	0004                	.insn	2, 0x0004
 202:	0501                	addi	a0,a0,0
 204:	0320                	addi	s0,sp,392
 206:	0901                	addi	s2,s2,0
 208:	000c                	.insn	2, 0x000c
 20a:	0501                	addi	a0,a0,0
 20c:	0326                	slli	t1,t1,0x9
 20e:	0900                	addi	s0,sp,144
 210:	000c                	.insn	2, 0x000c
 212:	0501                	addi	a0,a0,0
 214:	09000313          	li	t1,144
 218:	0004                	.insn	2, 0x0004
 21a:	0501                	addi	a0,a0,0
 21c:	030c                	addi	a1,sp,384
 21e:	0902                	c.slli64	s2
 220:	000c                	.insn	2, 0x000c
 222:	0501                	addi	a0,a0,0
 224:	09010317          	auipc	t1,0x9010
 228:	000c                	.insn	2, 0x000c
 22a:	0501                	addi	a0,a0,0
 22c:	001f 0402 0302      	.insn	6, 0x03020402001f
 232:	0010097b          	.insn	4, 0x0010097b
 236:	0501                	addi	a0,a0,0
 238:	0018                	.insn	2, 0x0018
 23a:	0402                	c.slli64	s0
 23c:	0301                	addi	t1,t1,0 # 9010224 <__stack_top+0x8ffe004>
 23e:	0900                	addi	s0,sp,144
 240:	000c                	.insn	2, 0x000c
 242:	0501                	addi	a0,a0,0
 244:	030c                	addi	a1,sp,384
 246:	0909                	addi	s2,s2,2
 248:	0008                	.insn	2, 0x0008
 24a:	0501                	addi	a0,a0,0
 24c:	0301                	addi	t1,t1,0
 24e:	0901                	addi	s2,s2,0
 250:	0004                	.insn	2, 0x0004
 252:	0301                	addi	t1,t1,0
 254:	0904                	addi	s1,sp,144
 256:	0014                	.insn	2, 0x0014
 258:	0501                	addi	a0,a0,0
 25a:	030e                	slli	t1,t1,0x3
 25c:	0901                	addi	s2,s2,0
 25e:	0018                	.insn	2, 0x0018
 260:	0501                	addi	a0,a0,0
 262:	0901030b          	.insn	4, 0x0901030b
 266:	0004                	.insn	2, 0x0004
 268:	0501                	addi	a0,a0,0
 26a:	0901030f          	.insn	4, 0x0901030f
 26e:	0004                	.insn	2, 0x0004
 270:	0501                	addi	a0,a0,0
 272:	030c                	addi	a1,sp,384
 274:	0900                	addi	s0,sp,144
 276:	0008                	.insn	2, 0x0008
 278:	0501                	addi	a0,a0,0
 27a:	0314                	addi	a3,sp,384
 27c:	0901                	addi	s2,s2,0
 27e:	0004                	.insn	2, 0x0004
 280:	0501                	addi	a0,a0,0
 282:	0901030b          	.insn	4, 0x0901030b
 286:	0010                	.insn	2, 0x0010
 288:	0301                	addi	t1,t1,0
 28a:	0901                	addi	s2,s2,0
 28c:	000c                	.insn	2, 0x000c
 28e:	0501                	addi	a0,a0,0
 290:	030c                	addi	a1,sp,384
 292:	097c                	addi	a5,sp,156
 294:	000c                	.insn	2, 0x000c
 296:	0301                	addi	t1,t1,0
 298:	0906                	slli	s2,s2,0x1
 29a:	0008                	.insn	2, 0x0008
 29c:	0501                	addi	a0,a0,0
 29e:	0301                	addi	t1,t1,0
 2a0:	0901                	addi	s2,s2,0
 2a2:	0004                	.insn	2, 0x0004
 2a4:	0301                	addi	t1,t1,0
 2a6:	0904                	addi	s1,sp,144
 2a8:	0014                	.insn	2, 0x0014
 2aa:	0501                	addi	a0,a0,0
 2ac:	030c                	addi	a1,sp,384
 2ae:	0901                	addi	s2,s2,0
 2b0:	0018                	.insn	2, 0x0018
 2b2:	0501                	addi	a0,a0,0
 2b4:	0301                	addi	t1,t1,0
 2b6:	0901                	addi	s2,s2,0
 2b8:	0010                	.insn	2, 0x0010
 2ba:	0301                	addi	t1,t1,0
 2bc:	0904                	addi	s1,sp,144
 2be:	0014                	.insn	2, 0x0014
 2c0:	0501                	addi	a0,a0,0
 2c2:	0902030b          	.insn	4, 0x0902030b
 2c6:	0014                	.insn	2, 0x0014
 2c8:	0501                	addi	a0,a0,0
 2ca:	0308                	addi	a0,sp,384
 2cc:	0901                	addi	s2,s2,0
 2ce:	000c                	.insn	2, 0x000c
 2d0:	0501                	addi	a0,a0,0
 2d2:	0306                	slli	t1,t1,0x1
 2d4:	0901                	addi	s2,s2,0
 2d6:	000c                	.insn	2, 0x000c
 2d8:	0501                	addi	a0,a0,0
 2da:	0308                	addi	a0,sp,384
 2dc:	0902                	c.slli64	s2
 2de:	000c                	.insn	2, 0x000c
 2e0:	0501                	addi	a0,a0,0
 2e2:	030c                	addi	a1,sp,384
 2e4:	0901                	addi	s2,s2,0
 2e6:	0008                	.insn	2, 0x0008
 2e8:	0501                	addi	a0,a0,0
 2ea:	030a                	slli	t1,t1,0x2
 2ec:	0901                	addi	s2,s2,0
 2ee:	000c                	.insn	2, 0x000c
 2f0:	0501                	addi	a0,a0,0
 2f2:	031d                	addi	t1,t1,7
 2f4:	00100903          	lb	s2,1(zero) # 1 <_start-0xffff>
 2f8:	0501                	addi	a0,a0,0
 2fa:	0311                	addi	t1,t1,4
 2fc:	0900                	addi	s0,sp,144
 2fe:	0004                	.insn	2, 0x0004
 300:	0501                	addi	a0,a0,0
 302:	0310                	addi	a2,sp,384
 304:	0901                	addi	s2,s2,0
 306:	0008                	.insn	2, 0x0008
 308:	0501                	addi	a0,a0,0
 30a:	0026                	c.slli	zero,0x9
 30c:	0402                	c.slli64	s0
 30e:	0301                	addi	t1,t1,0
 310:	0900                	addi	s0,sp,144
 312:	000c                	.insn	2, 0x000c
 314:	0501                	addi	a0,a0,0
 316:	0010                	.insn	2, 0x0010
 318:	0402                	c.slli64	s0
 31a:	0301                	addi	t1,t1,0
 31c:	0900                	addi	s0,sp,144
 31e:	0008                	.insn	2, 0x0008
 320:	0501                	addi	a0,a0,0
 322:	003e                	c.slli	zero,0xf
 324:	0402                	c.slli64	s0
 326:	0302                	c.slli64	t1
 328:	0900                	addi	s0,sp,144
 32a:	000c                	.insn	2, 0x000c
 32c:	0501                	addi	a0,a0,0
 32e:	0010                	.insn	2, 0x0010
 330:	0402                	c.slli64	s0
 332:	0302                	c.slli64	t1
 334:	0900                	addi	s0,sp,144
 336:	0008                	.insn	2, 0x0008
 338:	0001                	nop
 33a:	0402                	c.slli64	s0
 33c:	0604                	addi	s1,sp,768
 33e:	08090003          	lb	zero,128(s2)
 342:	0100                	addi	s0,sp,128
 344:	0e05                	addi	t3,t3,1 # 12001 <__bss_end+0xde1>
 346:	0306                	slli	t1,t1,0x1
 348:	0901                	addi	s2,s2,0
 34a:	0008                	.insn	2, 0x0008
 34c:	0501                	addi	a0,a0,0
 34e:	0311                	addi	t1,t1,4
 350:	0901                	addi	s2,s2,0
 352:	000c                	.insn	2, 0x000c
 354:	0501                	addi	a0,a0,0
 356:	0314                	addi	a3,sp,384
 358:	097c                	addi	a5,sp,156
 35a:	000c                	.insn	2, 0x000c
 35c:	0501                	addi	a0,a0,0
 35e:	0306                	slli	t1,t1,0x1
 360:	0908                	addi	a0,sp,144
 362:	0008                	.insn	2, 0x0008
 364:	0501                	addi	a0,a0,0
 366:	0305                	addi	t1,t1,1
 368:	0901                	addi	s2,s2,0
 36a:	000c                	.insn	2, 0x000c
 36c:	0501                	addi	a0,a0,0
 36e:	0301                	addi	t1,t1,0
 370:	0901                	addi	s2,s2,0
 372:	0028                	addi	a0,sp,8
 374:	0301                	addi	t1,t1,0
 376:	0904                	addi	s1,sp,144
 378:	0014                	.insn	2, 0x0014
 37a:	0501                	addi	a0,a0,0
 37c:	0902030b          	.insn	4, 0x0902030b
 380:	0014                	.insn	2, 0x0014
 382:	0501                	addi	a0,a0,0
 384:	0308                	addi	a0,sp,384
 386:	0901                	addi	s2,s2,0
 388:	000c                	.insn	2, 0x000c
 38a:	0501                	addi	a0,a0,0
 38c:	0306                	slli	t1,t1,0x1
 38e:	0901                	addi	s2,s2,0
 390:	000c                	.insn	2, 0x000c
 392:	0501                	addi	a0,a0,0
 394:	0308                	addi	a0,sp,384
 396:	0902                	c.slli64	s2
 398:	000c                	.insn	2, 0x000c
 39a:	0501                	addi	a0,a0,0
 39c:	030c                	addi	a1,sp,384
 39e:	0901                	addi	s2,s2,0
 3a0:	0008                	.insn	2, 0x0008
 3a2:	0501                	addi	a0,a0,0
 3a4:	030a                	slli	t1,t1,0x2
 3a6:	0901                	addi	s2,s2,0
 3a8:	000c                	.insn	2, 0x000c
 3aa:	0501                	addi	a0,a0,0
 3ac:	0318                	addi	a4,sp,384
 3ae:	00100903          	lb	s2,1(zero) # 1 <_start-0xffff>
 3b2:	0501                	addi	a0,a0,0
 3b4:	0016                	c.slli	zero,0x5
 3b6:	0402                	c.slli64	s0
 3b8:	0301                	addi	t1,t1,0
 3ba:	0900                	addi	s0,sp,144
 3bc:	0010                	.insn	2, 0x0010
 3be:	0501                	addi	a0,a0,0
 3c0:	0010                	.insn	2, 0x0010
 3c2:	0402                	c.slli64	s0
 3c4:	0301                	addi	t1,t1,0
 3c6:	0900                	addi	s0,sp,144
 3c8:	000c                	.insn	2, 0x000c
 3ca:	0501                	addi	a0,a0,0
 3cc:	030e                	slli	t1,t1,0x3
 3ce:	0901                	addi	s2,s2,0
 3d0:	0008                	.insn	2, 0x0008
 3d2:	0501                	addi	a0,a0,0
 3d4:	09010313          	addi	t1,sp,144
 3d8:	000c                	.insn	2, 0x000c
 3da:	0501                	addi	a0,a0,0
 3dc:	0314                	addi	a3,sp,384
 3de:	097d                	addi	s2,s2,31
 3e0:	0010                	.insn	2, 0x0010
 3e2:	0501                	addi	a0,a0,0
 3e4:	0306                	slli	t1,t1,0x1
 3e6:	00080907          	.insn	4, 0x00080907
 3ea:	0501                	addi	a0,a0,0
 3ec:	0305                	addi	t1,t1,1
 3ee:	0901                	addi	s2,s2,0
 3f0:	000c                	.insn	2, 0x000c
 3f2:	0501                	addi	a0,a0,0
 3f4:	0301                	addi	t1,t1,0
 3f6:	0901                	addi	s2,s2,0
 3f8:	0028                	addi	a0,sp,8
 3fa:	0301                	addi	t1,t1,0
 3fc:	0915                	addi	s2,s2,5
 3fe:	0014                	.insn	2, 0x0014
 400:	0501                	addi	a0,a0,0
 402:	030d                	addi	t1,t1,3
 404:	0904                	addi	s1,sp,144
 406:	0040                	addi	s0,sp,4
 408:	0501                	addi	a0,a0,0
 40a:	0311                	addi	t1,t1,4
 40c:	0901                	addi	s2,s2,0
 40e:	000c                	.insn	2, 0x000c
 410:	0501                	addi	a0,a0,0
 412:	09000323          	sb	a6,134(zero) # 86 <_start-0xff7a>
 416:	000c                	.insn	2, 0x000c
 418:	0501                	addi	a0,a0,0
 41a:	032e                	slli	t1,t1,0xb
 41c:	0900                	addi	s0,sp,144
 41e:	0020                	addi	s0,sp,8
 420:	0501                	addi	a0,a0,0
 422:	030e                	slli	t1,t1,0x3
 424:	0900                	addi	s0,sp,144
 426:	0008                	.insn	2, 0x0008
 428:	0501                	addi	a0,a0,0
 42a:	031a                	slli	t1,t1,0x6
 42c:	0901                	addi	s2,s2,0
 42e:	0004                	.insn	2, 0x0004
 430:	0501                	addi	a0,a0,0
 432:	0326                	slli	t1,t1,0x9
 434:	0900                	addi	s0,sp,144
 436:	000c                	.insn	2, 0x000c
 438:	0501                	addi	a0,a0,0
 43a:	0309                	addi	t1,t1,2
 43c:	0900                	addi	s0,sp,144
 43e:	0030                	addi	a2,sp,8
 440:	0301                	addi	t1,t1,0
 442:	0902                	c.slli64	s2
 444:	0028                	addi	a0,sp,8
 446:	0501                	addi	a0,a0,0
 448:	0310                	addi	a2,sp,384
 44a:	0901                	addi	s2,s2,0
 44c:	0024                	addi	s1,sp,8
 44e:	0501                	addi	a0,a0,0
 450:	0309                	addi	t1,t1,2
 452:	0900                	addi	s0,sp,144
 454:	0028                	addi	a0,sp,8
 456:	0501                	addi	a0,a0,0
 458:	0315                	addi	t1,t1,5
 45a:	0902                	c.slli64	s2
 45c:	0018                	.insn	2, 0x0018
 45e:	0501                	addi	a0,a0,0
 460:	09000313          	li	t1,144
 464:	0004                	.insn	2, 0x0004
 466:	0501                	addi	a0,a0,0
 468:	0301                	addi	t1,t1,0
 46a:	0901                	addi	s2,s2,0
 46c:	0008                	.insn	2, 0x0008
 46e:	0501                	addi	a0,a0,0
 470:	0321                	addi	t1,t1,8
 472:	090d                	addi	s2,s2,3
 474:	003c                	addi	a5,sp,8
 476:	0501                	addi	a0,a0,0
 478:	0308                	addi	a0,sp,384
 47a:	0901                	addi	s2,s2,0
 47c:	003c                	addi	a5,sp,8
 47e:	0501                	addi	a0,a0,0
 480:	0018                	.insn	2, 0x0018
 482:	0402                	c.slli64	s0
 484:	0301                	addi	t1,t1,0
 486:	0900                	addi	s0,sp,144
 488:	0008                	.insn	2, 0x0008
 48a:	0601                	addi	a2,a2,0
 48c:	04090003          	lb	zero,64(s2)
 490:	0100                	addi	s0,sp,128
 492:	0805                	addi	a6,a6,1
 494:	0306                	slli	t1,t1,0x1
 496:	0901                	addi	s2,s2,0
 498:	0004                	.insn	2, 0x0004
 49a:	0501                	addi	a0,a0,0
 49c:	0018                	.insn	2, 0x0018
 49e:	0402                	c.slli64	s0
 4a0:	0301                	addi	t1,t1,0
 4a2:	0900                	addi	s0,sp,144
 4a4:	000c                	.insn	2, 0x000c
 4a6:	0601                	addi	a2,a2,0
 4a8:	04090003          	lb	zero,64(s2)
 4ac:	0100                	addi	s0,sp,128
 4ae:	1405                	addi	s0,s0,-31
 4b0:	0306                	slli	t1,t1,0x1
 4b2:	0902                	c.slli64	s2
 4b4:	0004                	.insn	2, 0x0004
 4b6:	0501                	addi	a0,a0,0
 4b8:	0009                	c.nop	2
 4ba:	0402                	c.slli64	s0
 4bc:	0301                	addi	t1,t1,0
 4be:	0900                	addi	s0,sp,144
 4c0:	000c                	.insn	2, 0x000c
 4c2:	0501                	addi	a0,a0,0
 4c4:	031d                	addi	t1,t1,7
 4c6:	0902                	c.slli64	s2
 4c8:	000c                	.insn	2, 0x000c
 4ca:	0501                	addi	a0,a0,0
 4cc:	030e                	slli	t1,t1,0x3
 4ce:	0900                	addi	s0,sp,144
 4d0:	0018                	.insn	2, 0x0018
 4d2:	0501                	addi	a0,a0,0
 4d4:	0310                	addi	a2,sp,384
 4d6:	0902                	c.slli64	s2
 4d8:	0004                	.insn	2, 0x0004
 4da:	0501                	addi	a0,a0,0
 4dc:	09000307          	.insn	4, 0x09000307
 4e0:	000c                	.insn	2, 0x000c
 4e2:	0501                	addi	a0,a0,0
 4e4:	033d                	addi	t1,t1,15
 4e6:	0901                	addi	s2,s2,0
 4e8:	0008                	.insn	2, 0x0008
 4ea:	0501                	addi	a0,a0,0
 4ec:	0038                	addi	a4,sp,8
 4ee:	0402                	c.slli64	s0
 4f0:	0301                	addi	t1,t1,0
 4f2:	0900                	addi	s0,sp,144
 4f4:	000c                	.insn	2, 0x000c
 4f6:	0501                	addi	a0,a0,0
 4f8:	04020033          	.insn	4, 0x04020033
 4fc:	0301                	addi	t1,t1,0
 4fe:	0900                	addi	s0,sp,144
 500:	0008                	.insn	2, 0x0008
 502:	0501                	addi	a0,a0,0
 504:	003d                	c.nop	15
 506:	0402                	c.slli64	s0
 508:	0302                	c.slli64	t1
 50a:	0900                	addi	s0,sp,144
 50c:	0018                	.insn	2, 0x0018
 50e:	0501                	addi	a0,a0,0
 510:	0012                	c.slli	zero,0x4
 512:	0402                	c.slli64	s0
 514:	0304                	addi	s1,sp,384
 516:	0900                	addi	s0,sp,144
 518:	0004                	.insn	2, 0x0004
 51a:	0301                	addi	t1,t1,0
 51c:	0901                	addi	s2,s2,0
 51e:	0004                	.insn	2, 0x0004
 520:	0501                	addi	a0,a0,0
 522:	09010327          	.insn	4, 0x09010327
 526:	0010                	.insn	2, 0x0010
 528:	0501                	addi	a0,a0,0
 52a:	033a                	slli	t1,t1,0xe
 52c:	0900                	addi	s0,sp,144
 52e:	000c                	.insn	2, 0x000c
 530:	0501                	addi	a0,a0,0
 532:	09000333          	.insn	4, 0x09000333
 536:	0014                	.insn	2, 0x0014
 538:	0501                	addi	a0,a0,0
 53a:	09000343          	.insn	4, 0x09000343
 53e:	0024                	addi	s1,sp,8
 540:	0501                	addi	a0,a0,0
 542:	034a                	slli	t1,t1,0x12
 544:	0900                	addi	s0,sp,144
 546:	0010                	.insn	2, 0x0010
 548:	0501                	addi	a0,a0,0
 54a:	0312                	slli	t1,t1,0x4
 54c:	0900                	addi	s0,sp,144
 54e:	0040                	addi	s0,sp,4
 550:	0501                	addi	a0,a0,0
 552:	0321                	addi	t1,t1,8
 554:	0901                	addi	s2,s2,0
 556:	0004                	.insn	2, 0x0004
 558:	0501                	addi	a0,a0,0
 55a:	0329                	addi	t1,t1,10
 55c:	0900                	addi	s0,sp,144
 55e:	0010                	.insn	2, 0x0010
 560:	0501                	addi	a0,a0,0
 562:	0900030b          	.insn	4, 0x0900030b
 566:	0004                	.insn	2, 0x0004
 568:	0501                	addi	a0,a0,0
 56a:	030d                	addi	t1,t1,3
 56c:	000c0903          	lb	s2,0(s8)
 570:	0501                	addi	a0,a0,0
 572:	0305                	addi	t1,t1,1
 574:	0900                	addi	s0,sp,144
 576:	0004                	.insn	2, 0x0004
 578:	0501                	addi	a0,a0,0
 57a:	0321                	addi	t1,t1,8
 57c:	0901                	addi	s2,s2,0
 57e:	0004                	.insn	2, 0x0004
 580:	0501                	addi	a0,a0,0
 582:	0012                	c.slli	zero,0x4
 584:	0402                	c.slli64	s0
 586:	0301                	addi	t1,t1,0
 588:	0900                	addi	s0,sp,144
 58a:	0014                	.insn	2, 0x0014
 58c:	0501                	addi	a0,a0,0
 58e:	09010323          	sb	a6,134(sp)
 592:	0004                	.insn	2, 0x0004
 594:	0501                	addi	a0,a0,0
 596:	0030                	addi	a2,sp,8
 598:	0402                	c.slli64	s0
 59a:	0301                	addi	t1,t1,0
 59c:	0900                	addi	s0,sp,144
 59e:	0014                	.insn	2, 0x0014
 5a0:	0501                	addi	a0,a0,0
 5a2:	0012                	c.slli	zero,0x4
 5a4:	0402                	c.slli64	s0
 5a6:	0301                	addi	t1,t1,0
 5a8:	0900                	addi	s0,sp,144
 5aa:	0010                	.insn	2, 0x0010
 5ac:	0501                	addi	a0,a0,0
 5ae:	0318                	addi	a4,sp,384
 5b0:	0901                	addi	s2,s2,0
 5b2:	0004                	.insn	2, 0x0004
 5b4:	0501                	addi	a0,a0,0
 5b6:	04020033          	.insn	4, 0x04020033
 5ba:	0301                	addi	t1,t1,0
 5bc:	0900                	addi	s0,sp,144
 5be:	0020                	addi	s0,sp,8
 5c0:	0501                	addi	a0,a0,0
 5c2:	0402000b          	.insn	4, 0x0402000b
 5c6:	0301                	addi	t1,t1,0
 5c8:	0900                	addi	s0,sp,144
 5ca:	0010                	.insn	2, 0x0010
 5cc:	0501                	addi	a0,a0,0
 5ce:	0025                	c.nop	9
 5d0:	0402                	c.slli64	s0
 5d2:	097d0303          	lb	t1,151(s10)
 5d6:	0004                	.insn	2, 0x0004
 5d8:	0501                	addi	a0,a0,0
 5da:	001c                	.insn	2, 0x001c
 5dc:	0402                	c.slli64	s0
 5de:	0301                	addi	t1,t1,0
 5e0:	0900                	addi	s0,sp,144
 5e2:	000c                	.insn	2, 0x000c
 5e4:	0501                	addi	a0,a0,0
 5e6:	030c                	addi	a1,sp,384
 5e8:	0906                	slli	s2,s2,0x1
 5ea:	000c                	.insn	2, 0x000c
 5ec:	0501                	addi	a0,a0,0
 5ee:	0301                	addi	t1,t1,0
 5f0:	0901                	addi	s2,s2,0
 5f2:	0004                	.insn	2, 0x0004
 5f4:	0501                	addi	a0,a0,0
 5f6:	0902032f          	.insn	4, 0x0902032f
 5fa:	003c                	addi	a5,sp,8
 5fc:	0501                	addi	a0,a0,0
 5fe:	030e                	slli	t1,t1,0x3
 600:	0901                	addi	s2,s2,0
 602:	0018                	.insn	2, 0x0018
 604:	0501                	addi	a0,a0,0
 606:	030d                	addi	t1,t1,3
 608:	0901                	addi	s2,s2,0
 60a:	0010                	.insn	2, 0x0010
 60c:	0501                	addi	a0,a0,0
 60e:	0305                	addi	t1,t1,1
 610:	0900                	addi	s0,sp,144
 612:	0004                	.insn	2, 0x0004
 614:	0501                	addi	a0,a0,0
 616:	0314                	addi	a3,sp,384
 618:	0901                	addi	s2,s2,0
 61a:	0004                	.insn	2, 0x0004
 61c:	0501                	addi	a0,a0,0
 61e:	030e                	slli	t1,t1,0x3
 620:	0900                	addi	s0,sp,144
 622:	000c                	.insn	2, 0x000c
 624:	0501                	addi	a0,a0,0
 626:	0900030b          	.insn	4, 0x0900030b
 62a:	0008                	.insn	2, 0x0008
 62c:	0501                	addi	a0,a0,0
 62e:	0312                	slli	t1,t1,0x4
 630:	0901                	addi	s2,s2,0
 632:	0004                	.insn	2, 0x0004
 634:	0501                	addi	a0,a0,0
 636:	031e                	slli	t1,t1,0x7
 638:	0900                	addi	s0,sp,144
 63a:	000c                	.insn	2, 0x000c
 63c:	0501                	addi	a0,a0,0
 63e:	0900030f          	.insn	4, 0x0900030f
 642:	0040                	addi	s0,sp,4
 644:	0501                	addi	a0,a0,0
 646:	001d                	c.nop	7
 648:	0402                	c.slli64	s0
 64a:	0302                	c.slli64	t1
 64c:	097e                	slli	s2,s2,0x1f
 64e:	0028                	addi	a0,sp,8
 650:	0501                	addi	a0,a0,0
 652:	0016                	c.slli	zero,0x5
 654:	0402                	c.slli64	s0
 656:	0301                	addi	t1,t1,0
 658:	0900                	addi	s0,sp,144
 65a:	000c                	.insn	2, 0x000c
 65c:	0501                	addi	a0,a0,0
 65e:	030c                	addi	a1,sp,384
 660:	0904                	addi	s1,sp,144
 662:	000c                	.insn	2, 0x000c
 664:	0501                	addi	a0,a0,0
 666:	0301                	addi	t1,t1,0
 668:	0901                	addi	s2,s2,0
 66a:	0008                	.insn	2, 0x0008
 66c:	0501                	addi	a0,a0,0
 66e:	031c                	addi	a5,sp,384
 670:	0902                	c.slli64	s2
 672:	0018                	.insn	2, 0x0018
 674:	0501                	addi	a0,a0,0
 676:	09010307          	.insn	4, 0x09010307
 67a:	0014                	.insn	2, 0x0014
 67c:	0501                	addi	a0,a0,0
 67e:	04020013          	addi	zero,tp,64 # 40 <_start-0xffc0>
 682:	0301                	addi	t1,t1,0
 684:	0900                	addi	s0,sp,144
 686:	0008                	.insn	2, 0x0008
 688:	0601                	addi	a2,a2,0
 68a:	04090003          	lb	zero,64(s2)
 68e:	0100                	addi	s0,sp,128
 690:	0905                	addi	s2,s2,1
 692:	0306                	slli	t1,t1,0x1
 694:	0901                	addi	s2,s2,0
 696:	0004                	.insn	2, 0x0004
 698:	0501                	addi	a0,a0,0
 69a:	09010307          	.insn	4, 0x09010307
 69e:	0004                	.insn	2, 0x0004
 6a0:	0501                	addi	a0,a0,0
 6a2:	001f 0402 0301      	.insn	6, 0x03010402001f
 6a8:	0900                	addi	s0,sp,144
 6aa:	000c                	.insn	2, 0x000c
 6ac:	0501                	addi	a0,a0,0
 6ae:	0028                	addi	a0,sp,8
 6b0:	0402                	c.slli64	s0
 6b2:	0301                	addi	t1,t1,0
 6b4:	0900                	addi	s0,sp,144
 6b6:	000c                	.insn	2, 0x000c
 6b8:	0501                	addi	a0,a0,0
 6ba:	09010307          	.insn	4, 0x09010307
 6be:	000c                	.insn	2, 0x000c
 6c0:	0501                	addi	a0,a0,0
 6c2:	001f 0402 0301      	.insn	6, 0x03010402001f
 6c8:	0900                	addi	s0,sp,144
 6ca:	000c                	.insn	2, 0x000c
 6cc:	0501                	addi	a0,a0,0
 6ce:	0028                	addi	a0,sp,8
 6d0:	0402                	c.slli64	s0
 6d2:	0301                	addi	t1,t1,0
 6d4:	0900                	addi	s0,sp,144
 6d6:	000c                	.insn	2, 0x000c
 6d8:	0501                	addi	a0,a0,0
 6da:	09010307          	.insn	4, 0x09010307
 6de:	000c                	.insn	2, 0x000c
 6e0:	0501                	addi	a0,a0,0
 6e2:	001f 0402 0301      	.insn	6, 0x03010402001f
 6e8:	0900                	addi	s0,sp,144
 6ea:	000c                	.insn	2, 0x000c
 6ec:	0501                	addi	a0,a0,0
 6ee:	0028                	addi	a0,sp,8
 6f0:	0402                	c.slli64	s0
 6f2:	0301                	addi	t1,t1,0
 6f4:	0900                	addi	s0,sp,144
 6f6:	000c                	.insn	2, 0x000c
 6f8:	0501                	addi	a0,a0,0
 6fa:	09010307          	.insn	4, 0x09010307
 6fe:	000c                	.insn	2, 0x000c
 700:	0501                	addi	a0,a0,0
 702:	001f 0402 0301      	.insn	6, 0x03010402001f
 708:	0900                	addi	s0,sp,144
 70a:	000c                	.insn	2, 0x000c
 70c:	0501                	addi	a0,a0,0
 70e:	0028                	addi	a0,sp,8
 710:	0402                	c.slli64	s0
 712:	0301                	addi	t1,t1,0
 714:	0900                	addi	s0,sp,144
 716:	000c                	.insn	2, 0x000c
 718:	0501                	addi	a0,a0,0
 71a:	0308                	addi	a0,sp,384
 71c:	0901                	addi	s2,s2,0
 71e:	000c                	.insn	2, 0x000c
 720:	0501                	addi	a0,a0,0
 722:	09000307          	.insn	4, 0x09000307
 726:	0004                	.insn	2, 0x0004
 728:	0501                	addi	a0,a0,0
 72a:	001f 0402 0301      	.insn	6, 0x03010402001f
 730:	0900                	addi	s0,sp,144
 732:	0004                	.insn	2, 0x0004
 734:	0501                	addi	a0,a0,0
 736:	030c                	addi	a1,sp,384
 738:	0901                	addi	s2,s2,0
 73a:	000c                	.insn	2, 0x000c
 73c:	0501                	addi	a0,a0,0
 73e:	0301                	addi	t1,t1,0
 740:	0901                	addi	s2,s2,0
 742:	0004                	.insn	2, 0x0004
 744:	0301                	addi	t1,t1,0
 746:	0908                	addi	a0,sp,144
 748:	0014                	.insn	2, 0x0014
 74a:	0501                	addi	a0,a0,0
 74c:	0318                	addi	a4,sp,384
 74e:	0901                	addi	s2,s2,0
 750:	0044                	addi	s1,sp,4
 752:	0501                	addi	a0,a0,0
 754:	0325                	addi	t1,t1,9
 756:	0900                	addi	s0,sp,144
 758:	0010                	.insn	2, 0x0010
 75a:	0501                	addi	a0,a0,0
 75c:	0318                	addi	a4,sp,384
 75e:	0901                	addi	s2,s2,0
 760:	0034                	addi	a3,sp,8
 762:	0501                	addi	a0,a0,0
 764:	0325                	addi	t1,t1,9
 766:	0900                	addi	s0,sp,144
 768:	0010                	.insn	2, 0x0010
 76a:	0501                	addi	a0,a0,0
 76c:	032a                	slli	t1,t1,0xa
 76e:	097f 0034 0501 0318 	.insn	10, 0x0902031805010034097f
 776:	0902 
 778:	0020                	addi	s0,sp,8
 77a:	0501                	addi	a0,a0,0
 77c:	0325                	addi	t1,t1,9
 77e:	0900                	addi	s0,sp,144
 780:	0010                	.insn	2, 0x0010
 782:	0501                	addi	a0,a0,0
 784:	030e                	slli	t1,t1,0x3
 786:	097e                	slli	s2,s2,0x1f
 788:	0034                	addi	a3,sp,8
 78a:	0501                	addi	a0,a0,0
 78c:	0308                	addi	a0,sp,384
 78e:	0904                	addi	s1,sp,144
 790:	0020                	addi	s0,sp,8
 792:	0501                	addi	a0,a0,0
 794:	0311                	addi	t1,t1,4
 796:	0901                	addi	s2,s2,0
 798:	0008                	.insn	2, 0x0008
 79a:	0501                	addi	a0,a0,0
 79c:	0319                	addi	t1,t1,6
 79e:	0902                	c.slli64	s2
 7a0:	0024                	addi	s1,sp,8
 7a2:	0501                	addi	a0,a0,0
 7a4:	0328                	addi	a0,sp,392
 7a6:	00100903          	lb	s2,1(zero) # 1 <_start-0xffff>
 7aa:	0501                	addi	a0,a0,0
 7ac:	030e                	slli	t1,t1,0x3
 7ae:	0900                	addi	s0,sp,144
 7b0:	0028                	addi	a0,sp,8
 7b2:	0501                	addi	a0,a0,0
 7b4:	030c                	addi	a1,sp,384
 7b6:	0902                	c.slli64	s2
 7b8:	0018                	.insn	2, 0x0018
 7ba:	0501                	addi	a0,a0,0
 7bc:	0301                	addi	t1,t1,0
 7be:	0901                	addi	s2,s2,0
 7c0:	0004                	.insn	2, 0x0004
 7c2:	0501                	addi	a0,a0,0
 7c4:	030c                	addi	a1,sp,384
 7c6:	003c0903          	lb	s2,3(s8)
 7ca:	0501                	addi	a0,a0,0
 7cc:	0305                	addi	t1,t1,1
 7ce:	0901                	addi	s2,s2,0
 7d0:	0010                	.insn	2, 0x0010
 7d2:	0301                	addi	t1,t1,0
 7d4:	0904                	addi	s1,sp,144
 7d6:	006c                	addi	a1,sp,12
 7d8:	0501                	addi	a0,a0,0
 7da:	0314                	addi	a3,sp,384
 7dc:	0901                	addi	s2,s2,0
 7de:	005c                	addi	a5,sp,4
 7e0:	0501                	addi	a0,a0,0
 7e2:	0305                	addi	t1,t1,1
 7e4:	0901                	addi	s2,s2,0
 7e6:	000c                	.insn	2, 0x000c
 7e8:	0301                	addi	t1,t1,0
 7ea:	0901                	addi	s2,s2,0
 7ec:	0038                	addi	a4,sp,8
 7ee:	0301                	addi	t1,t1,0
 7f0:	0905                	addi	s2,s2,1
 7f2:	0008                	.insn	2, 0x0008
 7f4:	0501                	addi	a0,a0,0
 7f6:	0901030b          	.insn	4, 0x0901030b
 7fa:	005c                	addi	a5,sp,4
 7fc:	0501                	addi	a0,a0,0
 7fe:	0305                	addi	t1,t1,1
 800:	0901                	addi	s2,s2,0
 802:	000c                	.insn	2, 0x000c
 804:	0301                	addi	t1,t1,0
 806:	0901                	addi	s2,s2,0
 808:	0038                	addi	a4,sp,8
 80a:	0301                	addi	t1,t1,0
 80c:	0905                	addi	s2,s2,1
 80e:	0008                	.insn	2, 0x0008
 810:	0501                	addi	a0,a0,0
 812:	0901030b          	.insn	4, 0x0901030b
 816:	0064                	addi	s1,sp,12
 818:	0501                	addi	a0,a0,0
 81a:	0305                	addi	t1,t1,1
 81c:	0901                	addi	s2,s2,0
 81e:	000c                	.insn	2, 0x000c
 820:	0301                	addi	t1,t1,0
 822:	0901                	addi	s2,s2,0
 824:	0038                	addi	a4,sp,8
 826:	0301                	addi	t1,t1,0
 828:	0904                	addi	s1,sp,144
 82a:	0008                	.insn	2, 0x0008
 82c:	0501                	addi	a0,a0,0
 82e:	0901030b          	.insn	4, 0x0901030b
 832:	0064                	addi	s1,sp,12
 834:	0501                	addi	a0,a0,0
 836:	0305                	addi	t1,t1,1
 838:	0901                	addi	s2,s2,0
 83a:	000c                	.insn	2, 0x000c
 83c:	0301                	addi	t1,t1,0
 83e:	0901                	addi	s2,s2,0
 840:	0038                	addi	a4,sp,8
 842:	0301                	addi	t1,t1,0
 844:	0904                	addi	s1,sp,144
 846:	0008                	.insn	2, 0x0008
 848:	0501                	addi	a0,a0,0
 84a:	0901030b          	.insn	4, 0x0901030b
 84e:	005c                	addi	a5,sp,4
 850:	0501                	addi	a0,a0,0
 852:	0305                	addi	t1,t1,1
 854:	0901                	addi	s2,s2,0
 856:	000c                	.insn	2, 0x000c
 858:	0301                	addi	t1,t1,0
 85a:	0901                	addi	s2,s2,0
 85c:	0038                	addi	a4,sp,8
 85e:	0501                	addi	a0,a0,0
 860:	030c                	addi	a1,sp,384
 862:	0902                	c.slli64	s2
 864:	0008                	.insn	2, 0x0008
 866:	0501                	addi	a0,a0,0
 868:	0301                	addi	t1,t1,0
 86a:	0901                	addi	s2,s2,0
 86c:	0004                	.insn	2, 0x0004
 86e:	0901                	addi	s2,s2,0
 870:	0014                	.insn	2, 0x0014
 872:	0100                	addi	s0,sp,128
 874:	Address 0x874 is out of bounds.


Disassembly of section .debug_info:

00000000 <.debug_info>:
   0:	0031                	c.nop	12
   2:	0000                	unimp
   4:	0002                	c.slli64	zero
   6:	0000                	unimp
   8:	0000                	unimp
   a:	0104                	addi	s1,sp,128
   c:	0000                	unimp
   e:	0000                	unimp
  10:	0000                	unimp
  12:	0001                	nop
  14:	003c                	addi	a5,sp,8
  16:	0001                	nop
  18:	0000                	unimp
  1a:	0000                	unimp
  1c:	0008                	.insn	2, 0x0008
  1e:	0000                	unimp
  20:	0058                	addi	a4,sp,4
  22:	0000                	unimp
  24:	8001                	c.srli64	s0
  26:	6602                	.insn	2, 0x6602
  28:	0000                	unimp
  2a:	0100                	addi	s0,sp,128
  2c:	0000                	unimp
  2e:	0001                	nop
  30:	0040                	addi	s0,sp,4
  32:	0001                	nop
  34:	6200                	.insn	2, 0x6200
  36:	05000007          	.insn	4, 0x05000007
  3a:	0100                	addi	s0,sp,128
  3c:	2104                	.insn	2, 0x2104
  3e:	0000                	unimp
  40:	1100                	addi	s0,sp,160
  42:	01df 0000 501d      	.insn	6, 0x501d000001df
  48:	0000                	unimp
  4a:	0000                	unimp
  4c:	0000                	unimp
  4e:	3c00                	.insn	2, 0x3c00
  50:	0100                	addi	s0,sp,128
  52:	6400                	.insn	2, 0x6400
  54:	0010                	.insn	2, 0x0010
  56:	7500                	.insn	2, 0x7500
  58:	0000                	unimp
  5a:	0400                	addi	s0,sp,512
  5c:	0601                	addi	a2,a2,0
  5e:	00000187          	.insn	4, 0x0187
  62:	7405                	lui	s0,0xfffe1
  64:	0000                	unimp
  66:	0200                	addi	s0,sp,256
  68:	0039182b          	.insn	4, 0x0039182b
  6c:	0000                	unimp
  6e:	0104                	addi	s1,sp,128
  70:	8508                	.insn	2, 0x8508
  72:	0001                	nop
  74:	0400                	addi	s0,sp,512
  76:	0502                	c.slli64	a0
  78:	00000193          	li	gp,0
  7c:	b705                	j	ffffff9c <__stack_top+0xfffedd7c>
  7e:	0001                	nop
  80:	0200                	addi	s0,sp,256
  82:	1939                	addi	s2,s2,-18
  84:	00000053          	.insn	4, 0x0053
  88:	0204                	addi	s1,sp,256
  8a:	00012f07          	.insn	4, 0x00012f07
  8e:	0500                	addi	s0,sp,640
  90:	01c2                	slli	gp,gp,0x10
  92:	0000                	unimp
  94:	4d02                	lw	s10,0(sp)
  96:	6618                	.insn	2, 0x6618
  98:	0000                	unimp
  9a:	0400                	addi	s0,sp,512
  9c:	0504                	addi	s1,sp,640
  9e:	000000b3          	add	ra,zero,zero
  a2:	de05                	beqz	a2,ffffffda <__stack_top+0xfffeddba>
  a4:	0000                	unimp
  a6:	0200                	addi	s0,sp,256
  a8:	0079194f          	.insn	4, 0x0079194f
  ac:	0000                	unimp
  ae:	0404                	addi	s1,sp,512
  b0:	00009607          	.insn	4, 0x9607
  b4:	0400                	addi	s0,sp,512
  b6:	0508                	addi	a0,sp,640
  b8:	00ae                	slli	ra,ra,0xb
  ba:	0000                	unimp
  bc:	7505                	lui	a0,0xfffe1
  be:	0001                	nop
  c0:	0200                	addi	s0,sp,256
  c2:	1969                	addi	s2,s2,-6
  c4:	00000093          	li	ra,0
  c8:	0804                	addi	s1,sp,16
  ca:	00009107          	.insn	4, 0x9107
  ce:	1200                	addi	s0,sp,288
  d0:	0504                	addi	s1,sp,640
  d2:	6e69                	lui	t3,0x1a
  d4:	0074                	addi	a3,sp,12
  d6:	0404                	addi	s1,sp,512
  d8:	00009b07          	.insn	4, 0x9b07
  dc:	0500                	addi	s0,sp,640
  de:	0076                	c.slli	zero,0x1d
  e0:	0000                	unimp
  e2:	2d131803          	lh	a6,721(t1)
  e6:	0000                	unimp
  e8:	0c00                	addi	s0,sp,528
  ea:	00a8                	addi	a0,sp,72
  ec:	0000                	unimp
  ee:	b905                	j	fffffd1e <__stack_top+0xfffedafe>
  f0:	0001                	nop
  f2:	0300                	addi	s0,sp,384
  f4:	1424                	addi	s1,sp,552
  f6:	00000047          	.insn	4, 0x0047
  fa:	b90c                	.insn	2, 0xb90c
  fc:	0000                	unimp
  fe:	0500                	addi	s0,sp,640
 100:	01c4                	addi	s1,sp,196
 102:	0000                	unimp
 104:	5a132c03          	lw	s8,1441(t1)
 108:	0000                	unimp
 10a:	0500                	addi	s0,sp,640
 10c:	00e0                	addi	s0,sp,76
 10e:	0000                	unimp
 110:	6d143003          	.insn	4, 0x6d143003
 114:	0000                	unimp
 116:	0c00                	addi	s0,sp,528
 118:	00d6                	slli	ra,ra,0x15
 11a:	0000                	unimp
 11c:	7705                	lui	a4,0xfffe1
 11e:	0001                	nop
 120:	0300                	addi	s0,sp,384
 122:	143c                	addi	a5,sp,552
 124:	00000087          	.insn	4, 0x0087
 128:	6d05                	lui	s10,0x1
 12a:	0000                	unimp
 12c:	0400                	addi	s0,sp,512
 12e:	17d6                	slli	a5,a5,0x35
 130:	00a1                	addi	ra,ra,8
 132:	0000                	unimp
 134:	1004                	addi	s1,sp,32
 136:	5404                	lw	s1,40(s0)
 138:	0001                	nop
 13a:	1300                	addi	s0,sp,416
 13c:	0d04                	addi	s1,sp,656
 13e:	010d                	addi	sp,sp,3
 140:	0000                	unimp
 142:	0104                	addi	s1,sp,128
 144:	8e08                	.insn	2, 0x8e08
 146:	0001                	nop
 148:	0800                	addi	s0,sp,16
 14a:	010d                	addi	sp,sp,3
 14c:	0000                	unimp
 14e:	0124                	addi	s1,sp,136
 150:	0000                	unimp
 152:	a109                	j	554 <_start-0xfaac>
 154:	0000                	unimp
 156:	1800                	addi	s0,sp,48
 158:	0800                	addi	s0,sp,16
 15a:	00e2                	slli	ra,ra,0x18
 15c:	0000                	unimp
 15e:	0134                	addi	a3,sp,136
 160:	0000                	unimp
 162:	a109                	j	564 <_start-0xfa9c>
 164:	0000                	unimp
 166:	0f00                	addi	s0,sp,912
 168:	0c00                	addi	s0,sp,528
 16a:	0124                	addi	s1,sp,136
 16c:	0000                	unimp
 16e:	2401                	jal	36e <_start-0xfc92>
 170:	0002                	c.slli64	zero
 172:	9900                	.insn	2, 0x9900
 174:	00013417          	auipc	s0,0x13
 178:	0500                	addi	s0,sp,640
 17a:	0110f003          	.insn	4, 0x0110f003
 17e:	0800                	addi	s0,sp,16
 180:	00c5                	addi	ra,ra,17
 182:	0000                	unimp
 184:	015a                	slli	sp,sp,0x16
 186:	0000                	unimp
 188:	a109                	j	58a <_start-0xfa76>
 18a:	0000                	unimp
 18c:	1f00                	addi	s0,sp,944
 18e:	0c00                	addi	s0,sp,528
 190:	014a                	slli	sp,sp,0x12
 192:	0000                	unimp
 194:	1401                	addi	s0,s0,-32 # 13154 <__stack_top+0xf34>
 196:	0001                	nop
 198:	b400                	.insn	2, 0xb400
 19a:	00015a17          	auipc	s4,0x15
 19e:	0500                	addi	s0,sp,640
 1a0:	01113003          	.insn	4, 0x01113003
 1a4:	1400                	addi	s0,sp,544
 1a6:	00000233          	add	tp,zero,zero
 1aa:	0101                	addi	sp,sp,0
 1ac:	0501                	addi	a0,a0,0 # fffe1000 <__stack_top+0xfffcede0>
 1ae:	009a                	slli	ra,ra,0x6
 1b0:	0000                	unimp
 1b2:	0cb4                	addi	a3,sp,600
 1b4:	0001                	nop
 1b6:	03ec                	addi	a1,sp,460
 1b8:	0000                	unimp
 1ba:	9c01                	.insn	2, 0x9c01
 1bc:	02d5                	addi	t0,t0,21
 1be:	0000                	unimp
 1c0:	7215                	lui	tp,0xfffe5
 1c2:	7365                	lui	t1,0xffff9
 1c4:	0100                	addi	s0,sp,128
 1c6:	d60e0107          	.insn	4, 0xd60e0107
 1ca:	0000                	unimp
 1cc:	0200                	addi	s0,sp,256
 1ce:	6c91                	lui	s9,0x4
 1d0:	c406                	sw	ra,8(sp)
 1d2:	010c                	addi	a1,sp,128
 1d4:	6c00                	.insn	2, 0x6c00
 1d6:	0000                	unimp
 1d8:	b800                	.insn	2, 0xb800
 1da:	0001                	nop
 1dc:	0700                	addi	s0,sp,896
 1de:	0120                	addi	s0,sp,136
 1e0:	0000                	unimp
 1e2:	0102                	c.slli64	sp
 1e4:	02d5                	addi	t0,t0,21
 1e6:	0000                	unimp
 1e8:	7e809103          	lh	sp,2024(ra)
 1ec:	0600                	addi	s0,sp,768
 1ee:	0d30                	addi	a2,sp,664
 1f0:	0001                	nop
 1f2:	005c                	addi	a5,sp,4
 1f4:	0000                	unimp
 1f6:	01d4                	addi	a3,sp,196
 1f8:	0000                	unimp
 1fa:	00012007          	.insn	4, 0x00012007
 1fe:	0600                	addi	s0,sp,768
 200:	1401                	addi	s0,s0,-32
 202:	0001                	nop
 204:	0200                	addi	s0,sp,256
 206:	5091                	li	ra,-28
 208:	0600                	addi	s0,sp,768
 20a:	0d98                	addi	a4,sp,720
 20c:	0001                	nop
 20e:	0038                	addi	a4,sp,8
 210:	0000                	unimp
 212:	01f0                	addi	a2,sp,204
 214:	0000                	unimp
 216:	00012007          	.insn	4, 0x00012007
 21a:	0800                	addi	s0,sp,16
 21c:	e501                	bnez	a0,224 <_start-0xfddc>
 21e:	0002                	c.slli64	zero
 220:	0200                	addi	s0,sp,256
 222:	4491                	li	s1,4
 224:	0600                	addi	s0,sp,768
 226:	0dd8                	addi	a4,sp,724
 228:	0001                	nop
 22a:	005c                	addi	a5,sp,4
 22c:	0000                	unimp
 22e:	020d                	addi	tp,tp,3 # fffe5003 <__stack_top+0xfffd2de3>
 230:	0000                	unimp
 232:	00012007          	.insn	4, 0x00012007
 236:	0e00                	addi	s0,sp,784
 238:	1401                	addi	s0,s0,-32
 23a:	0001                	nop
 23c:	0300                	addi	s0,sp,384
 23e:	a891                	j	292 <_start-0xfd6e>
 240:	007f 4006 010e 3800 	.insn	10, 0x3800010e4006007f
 248:	0000 
 24a:	2a00                	.insn	2, 0x2a00
 24c:	0002                	c.slli64	zero
 24e:	0700                	addi	s0,sp,896
 250:	0120                	addi	s0,sp,136
 252:	0000                	unimp
 254:	0110                	addi	a2,sp,128
 256:	02e5                	addi	t0,t0,25
 258:	0000                	unimp
 25a:	7f9c9103          	lh	sp,2041(s9) # 47f9 <_start-0xb807>
 25e:	0600                	addi	s0,sp,768
 260:	0e80                	addi	s0,sp,848
 262:	0001                	nop
 264:	0064                	addi	s1,sp,12
 266:	0000                	unimp
 268:	00000247          	.insn	4, 0x0247
 26c:	00012007          	.insn	4, 0x00012007
 270:	1600                	addi	s0,sp,800
 272:	f501                	bnez	a0,17a <_start-0xfe86>
 274:	0002                	c.slli64	zero
 276:	0300                	addi	s0,sp,384
 278:	8091                	srli	s1,s1,0x4
 27a:	007f f006 010e 3800 	.insn	10, 0x3800010ef006007f
 282:	0000 
 284:	6400                	.insn	2, 0x6400
 286:	0002                	c.slli64	zero
 288:	0700                	addi	s0,sp,896
 28a:	0120                	addi	s0,sp,136
 28c:	0000                	unimp
 28e:	0118                	addi	a4,sp,128
 290:	02e5                	addi	t0,t0,25
 292:	0000                	unimp
 294:	7ef49103          	lh	sp,2031(s1)
 298:	0600                	addi	s0,sp,768
 29a:	0f30                	addi	a2,sp,920
 29c:	0001                	nop
 29e:	0064                	addi	s1,sp,12
 2a0:	0000                	unimp
 2a2:	0281                	addi	t0,t0,0
 2a4:	0000                	unimp
 2a6:	00012007          	.insn	4, 0x00012007
 2aa:	1d00                	addi	s0,sp,688
 2ac:	f501                	bnez	a0,1b4 <_start-0xfe4c>
 2ae:	0002                	c.slli64	zero
 2b0:	0300                	addi	s0,sp,384
 2b2:	d891                	beqz	s1,1c6 <_start-0xfe3a>
 2b4:	007e                	c.slli	zero,0x1f
 2b6:	a006                	.insn	2, 0xa006
 2b8:	3800010f          	.insn	4, 0x3800010f
 2bc:	0000                	unimp
 2be:	9e00                	.insn	2, 0x9e00
 2c0:	0002                	c.slli64	zero
 2c2:	0700                	addi	s0,sp,896
 2c4:	0120                	addi	s0,sp,136
 2c6:	0000                	unimp
 2c8:	011f 02e5 0000      	.insn	6, 0x02e5011f
 2ce:	7ecc9103          	lh	sp,2028(s9)
 2d2:	0600                	addi	s0,sp,768
 2d4:	0fe0                	addi	s0,sp,988
 2d6:	0001                	nop
 2d8:	005c                	addi	a5,sp,4
 2da:	0000                	unimp
 2dc:	000002bb          	.insn	4, 0x02bb
 2e0:	00012007          	.insn	4, 0x00012007
 2e4:	2400                	.insn	2, 0x2400
 2e6:	0501                	addi	a0,a0,0
 2e8:	03000003          	lb	zero,48(zero) # 30 <_start-0xffd0>
 2ec:	b091                	j	fffffb30 <__stack_top+0xfffed910>
 2ee:	007e                	c.slli	zero,0x1f
 2f0:	480a                	lw	a6,128(sp)
 2f2:	0110                	addi	a2,sp,128
 2f4:	3800                	.insn	2, 0x3800
 2f6:	0000                	unimp
 2f8:	0700                	addi	s0,sp,896
 2fa:	0120                	addi	s0,sp,136
 2fc:	0000                	unimp
 2fe:	0126                	slli	sp,sp,0x9
 300:	02e5                	addi	t0,t0,25
 302:	0000                	unimp
 304:	7ea49103          	lh	sp,2026(s1)
 308:	0000                	unimp
 30a:	0d08                	addi	a0,sp,656
 30c:	0001                	nop
 30e:	e500                	.insn	2, 0xe500
 310:	0002                	c.slli64	zero
 312:	0900                	addi	s0,sp,144
 314:	00a1                	addi	ra,ra,8
 316:	0000                	unimp
 318:	0d080023          	sb	a6,192(a6)
 31c:	0001                	nop
 31e:	f500                	.insn	2, 0xf500
 320:	0002                	c.slli64	zero
 322:	0900                	addi	s0,sp,144
 324:	00a1                	addi	ra,ra,8
 326:	0000                	unimp
 328:	0008                	.insn	2, 0x0008
 32a:	0d08                	addi	a0,sp,656
 32c:	0001                	nop
 32e:	0500                	addi	s0,sp,640
 330:	09000003          	lb	zero,144(zero) # 90 <_start-0xff70>
 334:	00a1                	addi	ra,ra,8
 336:	0000                	unimp
 338:	001a                	c.slli	zero,0x6
 33a:	0d08                	addi	a0,sp,656
 33c:	0001                	nop
 33e:	1500                	addi	s0,sp,672
 340:	09000003          	lb	zero,144(zero) # 90 <_start-0xff70>
 344:	00a1                	addi	ra,ra,8
 346:	0000                	unimp
 348:	e90f001b          	.insn	4, 0xe90f001b
 34c:	0000                	unimp
 34e:	ef00                	.insn	2, 0xef00
 350:	00d6                	slli	ra,ra,0x15
 352:	0000                	unimp
 354:	0aa8                	addi	a0,sp,344
 356:	0001                	nop
 358:	020c                	addi	a1,sp,256
 35a:	0000                	unimp
 35c:	9c01                	.insn	2, 0x9c01
 35e:	00000383          	lb	t2,0(zero) # 0 <_start-0x10000>
 362:	6402                	.insn	2, 0x6402
 364:	0078                	addi	a4,sp,12
 366:	00ca23ef          	jal	t2,a2372 <__stack_top+0x90152>
 36a:	0000                	unimp
 36c:	7fac9103          	lh	sp,2042(s9)
 370:	6402                	.insn	2, 0x6402
 372:	0079                	c.nop	30
 374:	00ca2fef          	jal	t6,a2380 <__stack_top+0x90160>
 378:	0000                	unimp
 37a:	7fa89103          	lh	sp,2042(a7)
 37e:	6402                	.insn	2, 0x6402
 380:	007a                	c.slli	zero,0x1e
 382:	00ca3bef          	jal	s7,a338e <__stack_top+0x9116e>
 386:	0000                	unimp
 388:	7fa49103          	lh	sp,2042(s1)
 38c:	6d01                	.insn	2, 0x6d01
 38e:	0001                	nop
 390:	f100                	.insn	2, 0xf100
 392:	e70e                	.insn	2, 0xe70e
 394:	0000                	unimp
 396:	0200                	addi	s0,sp,256
 398:	4891                	li	a7,4
 39a:	fa01                	bnez	a2,2aa <_start-0xfd56>
 39c:	0000                	unimp
 39e:	f800                	.insn	2, 0xf800
 3a0:	d60e                	sw	gp,44(sp)
 3a2:	0000                	unimp
 3a4:	0200                	addi	s0,sp,256
 3a6:	4491                	li	s1,4
 3a8:	fe01                	bnez	a2,2c0 <_start-0xfd40>
 3aa:	0000                	unimp
 3ac:	fb00                	.insn	2, 0xfb00
 3ae:	e70e                	.insn	2, 0xe70e
 3b0:	0000                	unimp
 3b2:	0300                	addi	s0,sp,384
 3b4:	b891                	j	fffffc08 <__stack_top+0xfffed9e8>
 3b6:	007f 6316 7a6c 0100 	.insn	10, 0x0cdf01007a6c6316007f
 3be:	0cdf 
 3c0:	009a                	slli	ra,ra,0x6
 3c2:	0000                	unimp
 3c4:	09c4                	addi	s1,sp,212
 3c6:	0001                	nop
 3c8:	00e4                	addi	s1,sp,76
 3ca:	0000                	unimp
 3cc:	9c01                	.insn	2, 0x9c01
 3ce:	03b6                	slli	t2,t2,0xd
 3d0:	0000                	unimp
 3d2:	7802                	.insn	2, 0x7802
 3d4:	df00                	sw	s0,56(a4)
 3d6:	d619                	beqz	a2,2e4 <_start-0xfd1c>
 3d8:	0000                	unimp
 3da:	0200                	addi	s0,sp,256
 3dc:	5c91                	li	s9,-28
 3de:	e1006e03          	.insn	4, 0xe1006e03
 3e2:	9a09                	andi	a2,a2,-30
 3e4:	0000                	unimp
 3e6:	0200                	addi	s0,sp,256
 3e8:	6c91                	lui	s9,0x4
 3ea:	0e00                	addi	s0,sp,784
 3ec:	010e                	slli	sp,sp,0x3
 3ee:	0000                	unimp
 3f0:	11d6                	slli	gp,gp,0x35
 3f2:	000000e7          	jalr	zero # 0 <_start-0x10000>
 3f6:	08d0                	addi	a2,sp,84
 3f8:	0001                	nop
 3fa:	00f4                	addi	a3,sp,76
 3fc:	0000                	unimp
 3fe:	9c01                	.insn	2, 0x9c01
 400:	040a                	slli	s0,s0,0x2
 402:	0000                	unimp
 404:	6102                	.insn	2, 0x6102
 406:	d600                	sw	s0,40(a2)
 408:	d620                	sw	s0,104(a2)
 40a:	0000                	unimp
 40c:	0200                	addi	s0,sp,256
 40e:	5c91                	li	s9,-28
 410:	6202                	.insn	2, 0x6202
 412:	d600                	sw	s0,40(a2)
 414:	d62c                	sw	a1,104(a2)
 416:	0000                	unimp
 418:	0200                	addi	s0,sp,256
 41a:	5891                	li	a7,-28
 41c:	d7007203          	.insn	4, 0xd7007203
 420:	e70e                	.insn	2, 0xe70e
 422:	0000                	unimp
 424:	0200                	addi	s0,sp,256
 426:	6891                	lui	a7,0x4
 428:	f80a                	.insn	2, 0xf80a
 42a:	0108                	addi	a0,sp,128
 42c:	ac00                	.insn	2, 0xac00
 42e:	0000                	unimp
 430:	0300                	addi	s0,sp,384
 432:	0069                	c.nop	26
 434:	0dd8                	addi	a4,sp,724
 436:	009a                	slli	ra,ra,0x6
 438:	0000                	unimp
 43a:	9102                	jalr	sp
 43c:	0064                	addi	s1,sp,12
 43e:	0f00                	addi	s0,sp,912
 440:	00000103          	lb	sp,0(zero) # 0 <_start-0x10000>
 444:	d6be                	sw	a5,108(sp)
 446:	0000                	unimp
 448:	5800                	lw	s0,48(s0)
 44a:	0106                	slli	sp,sp,0x1
 44c:	7800                	.insn	2, 0x7800
 44e:	0002                	c.slli64	zero
 450:	0100                	addi	s0,sp,128
 452:	c39c                	sw	a5,0(a5)
 454:	0004                	.insn	2, 0x0004
 456:	0200                	addi	s0,sp,256
 458:	0078                	addi	a4,sp,12
 45a:	1ebe                	slli	t4,t4,0x2f
 45c:	00d6                	slli	ra,ra,0x15
 45e:	0000                	unimp
 460:	7fac9103          	lh	sp,2042(s9) # 47fa <_start-0xb806>
 464:	70786503          	.insn	4, 0x70786503
 468:	c200                	sw	s0,0(a2)
 46a:	9a09                	andi	a2,a2,-30
 46c:	0000                	unimp
 46e:	0200                	addi	s0,sp,256
 470:	4491                	li	s1,4
 472:	c4007903          	.insn	4, 0xc4007903
 476:	d60e                	sw	gp,44(sp)
 478:	0000                	unimp
 47a:	0200                	addi	s0,sp,256
 47c:	4c91                	li	s9,4
 47e:	0006                	c.slli	zero,0x1
 480:	fc000107          	.insn	4, 0xfc000107
 484:	0000                	unimp
 486:	8300                	.insn	2, 0x8300
 488:	0004                	.insn	2, 0x0004
 48a:	0100                	addi	s0,sp,128
 48c:	019d                	addi	gp,gp,7
 48e:	0000                	unimp
 490:	00d612c7          	.insn	4, 0x00d612c7
 494:	0000                	unimp
 496:	9102                	jalr	sp
 498:	0140                	addi	s0,sp,132
 49a:	00a8                	addi	a0,sp,72
 49c:	0000                	unimp
 49e:	12c8                	addi	a0,sp,356
 4a0:	00d6                	slli	ra,ra,0x15
 4a2:	0000                	unimp
 4a4:	7fbc9103          	lh	sp,2043(s9)
 4a8:	8001                	c.srli64	s0
 4aa:	0001                	nop
 4ac:	c900                	sw	s0,16(a0)
 4ae:	d612                	sw	tp,44(sp)
 4b0:	0000                	unimp
 4b2:	0300                	addi	s0,sp,384
 4b4:	b891                	j	fffffd08 <__stack_top+0xfffedae8>
 4b6:	007f fc0a 0107 9400 	.insn	10, 0x94000107fc0a007f
 4be:	0000 
 4c0:	0100                	addi	s0,sp,128
 4c2:	0000014f          	.insn	4, 0x014f
 4c6:	0dcd                	addi	s11,s11,19
 4c8:	009a                	slli	ra,ra,0x6
 4ca:	0000                	unimp
 4cc:	9102                	jalr	sp
 4ce:	0a48                	addi	a0,sp,276
 4d0:	0804                	addi	s1,sp,16
 4d2:	0001                	nop
 4d4:	0074                	addi	a3,sp,12
 4d6:	0000                	unimp
 4d8:	00327903          	.insn	4, 0x00327903
 4dc:	12ce                	slli	t0,t0,0x33
 4de:	00d6                	slli	ra,ra,0x15
 4e0:	0000                	unimp
 4e2:	7fb49103          	lh	sp,2043(s1)
 4e6:	32797803          	.insn	4, 0x32797803
 4ea:	cf00                	sw	s0,24(a4)
 4ec:	d612                	sw	tp,44(sp)
 4ee:	0000                	unimp
 4f0:	0300                	addi	s0,sp,384
 4f2:	b091                	j	fffffd36 <__stack_top+0xfffedb16>
 4f4:	007f 0000 c910 0000 	.insn	10, 0xa4000000c9100000007f
 4fc:	a400 
 4fe:	04c4                	addi	s1,sp,580
 500:	0001                	nop
 502:	0194                	addi	a3,sp,192
 504:	0000                	unimp
 506:	9c01                	.insn	2, 0x9c01
 508:	051e                	slli	a0,a0,0x7
 50a:	0000                	unimp
 50c:	0001420b          	.insn	4, 0x0001420b
 510:	a400                	.insn	2, 0xa400
 512:	00051e23          	sh	zero,28(a0)
 516:	0300                	addi	s0,sp,384
 518:	bc91                	j	ffffff6c <__stack_top+0xfffedd4c>
 51a:	027f 0078 3aa4 00d6 	.insn	10, 0x00d63aa40078027f
 522:	0000 
 524:	7fb89103          	lh	sp,2043(a7) # 47fb <_start-0xb805>
 528:	3801                	jal	fffffd38 <__stack_top+0xfffedb18>
 52a:	0002                	c.slli64	zero
 52c:	a600                	.insn	2, 0xa600
 52e:	d60e                	sw	gp,44(sp)
 530:	0000                	unimp
 532:	0200                	addi	s0,sp,256
 534:	4c91                	li	s9,4
 536:	d101                	beqz	a0,436 <_start-0xfbca>
 538:	0001                	nop
 53a:	a600                	.insn	2, 0xa600
 53c:	0000d617          	auipc	a2,0xd
 540:	0200                	addi	s0,sp,256
 542:	4891                	li	a7,4
 544:	6c617603          	.insn	4, 0x6c617603
 548:	a700                	.insn	2, 0xa700
 54a:	e70e                	.insn	2, 0xe70e
 54c:	0000                	unimp
 54e:	0200                	addi	s0,sp,256
 550:	4091                	li	ra,4
 552:	0d00                	addi	s0,sp,656
 554:	00d6                	slli	ra,ra,0x15
 556:	0000                	unimp
 558:	8710                	.insn	2, 0x8710
 55a:	0000                	unimp
 55c:	7c00                	.insn	2, 0x7c00
 55e:	03d8                	addi	a4,sp,452
 560:	0001                	nop
 562:	00ec                	addi	a1,sp,76
 564:	0000                	unimp
 566:	9c01                	.insn	2, 0x9c01
 568:	0560                	addi	s0,sp,652
 56a:	0000                	unimp
 56c:	7602                	.insn	2, 0x7602
 56e:	6c61                	lui	s8,0x18
 570:	7c00                	.insn	2, 0x7c00
 572:	7925                	lui	s2,0xfffe9
 574:	0000                	unimp
 576:	0200                	addi	s0,sp,256
 578:	4c91                	li	s9,4
 57a:	66756203          	.insn	4, 0x66756203
 57e:	7e00                	.insn	2, 0x7e00
 580:	600a                	.insn	2, 0x600a
 582:	0005                	c.nop	1
 584:	0200                	addi	s0,sp,256
 586:	5891                	li	a7,-28
 588:	7f007003          	.insn	4, 0x7f007003
 58c:	0001080b          	.insn	4, 0x0001080b
 590:	0200                	addi	s0,sp,256
 592:	6c91                	lui	s9,0x4
 594:	0800                	addi	s0,sp,16
 596:	010d                	addi	sp,sp,3
 598:	0000                	unimp
 59a:	0570                	addi	a2,sp,652
 59c:	0000                	unimp
 59e:	a109                	j	9a0 <_start-0xf660>
 5a0:	0000                	unimp
 5a2:	1300                	addi	s0,sp,416
 5a4:	1700                	addi	s0,sp,928
 5a6:	0125                	addi	sp,sp,9
 5a8:	0000                	unimp
 5aa:	6401                	.insn	2, 0x6401
 5ac:	d00d                	beqz	s0,4ce <_start-0xfb32>
 5ae:	0102                	c.slli64	sp
 5b0:	0800                	addi	s0,sp,16
 5b2:	0001                	nop
 5b4:	0100                	addi	s0,sp,128
 5b6:	c79c                	sw	a5,8(a5)
 5b8:	0005                	c.nop	1
 5ba:	0200                	addi	s0,sp,256
 5bc:	6176                	.insn	2, 0x6176
 5be:	006c                	addi	a1,sp,12
 5c0:	2564                	.insn	2, 0x2564
 5c2:	0079                	c.nop	30
 5c4:	0000                	unimp
 5c6:	9102                	jalr	sp
 5c8:	034c                	addi	a1,sp,388
 5ca:	7562                	.insn	2, 0x7562
 5cc:	0066                	c.slli	zero,0x19
 5ce:	0a66                	slli	s4,s4,0x19
 5d0:	0560                	addi	s0,sp,652
 5d2:	0000                	unimp
 5d4:	9102                	jalr	sp
 5d6:	0354                	addi	a3,sp,388
 5d8:	0070                	addi	a2,sp,12
 5da:	01080b67          	jalr	s6,16(a6)
 5de:	0000                	unimp
 5e0:	9102                	jalr	sp
 5e2:	0a6c                	addi	a1,sp,284
 5e4:	032c                	addi	a1,sp,392
 5e6:	0001                	nop
 5e8:	005c                	addi	a5,sp,4
 5ea:	0000                	unimp
 5ec:	bc01                	j	fffffffc <__stack_top+0xfffedddc>
 5ee:	0000                	unimp
 5f0:	7000                	.insn	2, 0x7000
 5f2:	9a11                	andi	a2,a2,-28
 5f4:	0000                	unimp
 5f6:	0200                	addi	s0,sp,256
 5f8:	6891                	lui	a7,0x4
 5fa:	0000                	unimp
 5fc:	0001a40f          	.insn	4, 0x0001a40f
 600:	5e00                	lw	s0,56(a2)
 602:	00d6                	slli	ra,ra,0x15
 604:	0000                	unimp
 606:	0294                	addi	a3,sp,320
 608:	0001                	nop
 60a:	003c                	addi	a5,sp,8
 60c:	0000                	unimp
 60e:	9c01                	.insn	2, 0x9c01
 610:	05f8                	addi	a4,sp,716
 612:	0000                	unimp
 614:	6102                	.insn	2, 0x6102
 616:	5e00                	lw	s0,56(a2)
 618:	d61c                	sw	a5,40(a2)
 61a:	0000                	unimp
 61c:	0200                	addi	s0,sp,256
 61e:	6c91                	lui	s9,0x4
 620:	6202                	.insn	2, 0x6202
 622:	5e00                	lw	s0,56(a2)
 624:	d628                	sw	a0,104(a2)
 626:	0000                	unimp
 628:	0200                	addi	s0,sp,256
 62a:	6891                	lui	a7,0x4
 62c:	0e00                	addi	s0,sp,784
 62e:	01cc                	addi	a1,sp,196
 630:	0000                	unimp
 632:	1151                	addi	sp,sp,-12
 634:	00d6                	slli	ra,ra,0x15
 636:	0000                	unimp
 638:	0220                	addi	s0,sp,264
 63a:	0001                	nop
 63c:	0074                	addi	a3,sp,12
 63e:	0000                	unimp
 640:	9c01                	.insn	2, 0x9c01
 642:	0638                	addi	a4,sp,776
 644:	0000                	unimp
 646:	6102                	.insn	2, 0x6102
 648:	5100                	lw	s0,32(a0)
 64a:	d61f 0000 0200      	.insn	6, 0x02000000d61f
 650:	5c91                	li	s9,-28
 652:	6202                	.insn	2, 0x6202
 654:	5100                	lw	s0,32(a0)
 656:	0000d62b          	.insn	4, 0xd62b
 65a:	0200                	addi	s0,sp,256
 65c:	5891                	li	a7,-28
 65e:	4001                	c.li	zero,0
 660:	0002                	c.slli64	zero
 662:	5300                	lw	s0,32(a4)
 664:	d60e                	sw	gp,44(sp)
 666:	0000                	unimp
 668:	0200                	addi	s0,sp,256
 66a:	6c91                	lui	s9,0x4
 66c:	0e00                	addi	s0,sp,784
 66e:	00000247          	.insn	4, 0x0247
 672:	163d                	addi	a2,a2,-17 # d52b <_start-0x2ad5>
 674:	0079                	c.nop	30
 676:	0000                	unimp
 678:	0178                	addi	a4,sp,140
 67a:	0001                	nop
 67c:	00a8                	addi	a0,sp,72
 67e:	0000                	unimp
 680:	9c01                	.insn	2, 0x9c01
 682:	0692                	slli	a3,a3,0x4
 684:	0000                	unimp
 686:	0000d50b          	.insn	4, 0xd50b
 68a:	3d00                	.insn	2, 0x3d00
 68c:	7929                	lui	s2,0xfffea
 68e:	0000                	unimp
 690:	0200                	addi	s0,sp,256
 692:	5c91                	li	s9,-28
 694:	0001600b          	.insn	4, 0x0001600b
 698:	3d00                	.insn	2, 0x3d00
 69a:	7941                	lui	s2,0xffff0
 69c:	0000                	unimp
 69e:	0200                	addi	s0,sp,256
 6a0:	5891                	li	a7,-28
 6a2:	ad01                	j	cb2 <_start-0xf34e>
 6a4:	0001                	nop
 6a6:	4200                	lw	s0,0(a2)
 6a8:	00007913          	andi	s2,zero,0
 6ac:	0200                	addi	s0,sp,256
 6ae:	6c91                	lui	s9,0x4
 6b0:	a40a                	.insn	2, 0xa40a
 6b2:	0101                	addi	sp,sp,0
 6b4:	6400                	.insn	2, 0x6400
 6b6:	0000                	unimp
 6b8:	0300                	addi	s0,sp,384
 6ba:	0069                	c.nop	26
 6bc:	0e44                	addi	s1,sp,788
 6be:	009a                	slli	ra,ra,0x6
 6c0:	0000                	unimp
 6c2:	9102                	jalr	sp
 6c4:	0068                	addi	a0,sp,12
 6c6:	0e00                	addi	s0,sp,784
 6c8:	01da                	slli	gp,gp,0x16
 6ca:	0000                	unimp
 6cc:	1628                	addi	a0,sp,808
 6ce:	0079                	c.nop	30
 6d0:	0000                	unimp
 6d2:	00b4                	addi	a3,sp,72
 6d4:	0001                	nop
 6d6:	00c4                	addi	s1,sp,68
 6d8:	0000                	unimp
 6da:	9c01                	.insn	2, 0x9c01
 6dc:	06fa                	slli	a3,a3,0x1e
 6de:	0000                	unimp
 6e0:	0000d50b          	.insn	4, 0xd50b
 6e4:	2800                	.insn	2, 0x2800
 6e6:	7929                	lui	s2,0xfffea
 6e8:	0000                	unimp
 6ea:	0200                	addi	s0,sp,256
 6ec:	5c91                	li	s9,-28
 6ee:	0001600b          	.insn	4, 0x0001600b
 6f2:	2800                	.insn	2, 0x2800
 6f4:	7941                	lui	s2,0xffff0
 6f6:	0000                	unimp
 6f8:	0200                	addi	s0,sp,256
 6fa:	5891                	li	a7,-28
 6fc:	7e01                	lui	t3,0xfffe0
 6fe:	0000                	unimp
 700:	2d00                	.insn	2, 0x2d00
 702:	00007913          	andi	s2,zero,0
 706:	0200                	addi	s0,sp,256
 708:	6c91                	lui	s9,0x4
 70a:	ad01                	j	d1a <_start-0xf2e6>
 70c:	0001                	nop
 70e:	2e00                	.insn	2, 0x2e00
 710:	00007913          	andi	s2,zero,0
 714:	0200                	addi	s0,sp,256
 716:	6891                	lui	a7,0x4
 718:	e40a                	.insn	2, 0xe40a
 71a:	0100                	addi	s0,sp,128
 71c:	7c00                	.insn	2, 0x7c00
 71e:	0000                	unimp
 720:	0300                	addi	s0,sp,384
 722:	0069                	c.nop	26
 724:	0e30                	addi	a2,sp,792
 726:	009a                	slli	ra,ra,0x6
 728:	0000                	unimp
 72a:	9102                	jalr	sp
 72c:	0064                	addi	s1,sp,12
 72e:	1800                	addi	s0,sp,48
 730:	00c2                	slli	ra,ra,0x10
 732:	0000                	unimp
 734:	1f05                	addi	t5,t5,-31
 736:	0609                	addi	a2,a2,2
 738:	0001                	nop
 73a:	3c00                	.insn	2, 0x3c00
 73c:	0100                	addi	s0,sp,128
 73e:	7800                	.insn	2, 0x7800
 740:	0000                	unimp
 742:	0100                	addi	s0,sp,128
 744:	559c                	lw	a5,40(a1)
 746:	0b000007          	.insn	4, 0x0b000007
 74a:	0168                	addi	a0,sp,140
 74c:	0000                	unimp
 74e:	141e                	slli	s0,s0,0x27
 750:	0106                	slli	sp,sp,0x1
 752:	0000                	unimp
 754:	9102                	jalr	sp
 756:	025c                	addi	a5,sp,260
 758:	00637273          	.insn	4, 0x00637273
 75c:	261e                	.insn	2, 0x261e
 75e:	0755                	addi	a4,a4,21 # fffe1015 <__stack_top+0xfffcedf5>
 760:	0000                	unimp
 762:	9102                	jalr	sp
 764:	0258                	addi	a4,sp,260
 766:	006e                	c.slli	zero,0x1b
 768:	321e                	.insn	2, 0x321e
 76a:	000000f3          	.insn	4, 0x00f3
 76e:	9102                	jalr	sp
 770:	0354                	addi	a3,sp,388
 772:	0064                	addi	s1,sp,12
 774:	0e20                	addi	s0,sp,792
 776:	0000075b          	.insn	4, 0x075b
 77a:	9102                	jalr	sp
 77c:	036c                	addi	a1,sp,396
 77e:	14210073          	.insn	4, 0x14210073
 782:	0760                	addi	s0,sp,908
 784:	0000                	unimp
 786:	9102                	jalr	sp
 788:	0068                	addi	a0,sp,12
 78a:	5a0d                	li	s4,-29
 78c:	19000007          	.insn	4, 0x19000007
 790:	a80d                	j	7c2 <_start-0xf83e>
 792:	0000                	unimp
 794:	0d00                	addi	s0,sp,656
 796:	00b4                	addi	a3,sp,72
 798:	0000                	unimp
	...

Disassembly of section .debug_abbrev:

00000000 <.debug_abbrev>:
   0:	1101                	addi	sp,sp,-32
   2:	1001                	c.nop	-32
   4:	1106                	slli	sp,sp,0x21
   6:	1201                	addi	tp,tp,-32 # ffffffe0 <__stack_top+0xfffeddc0>
   8:	0301                	addi	t1,t1,0 # ffff9000 <__stack_top+0xfffe6de0>
   a:	1b0e                	slli	s6,s6,0x23
   c:	250e                	.insn	2, 0x250e
   e:	130e                	slli	t1,t1,0x23
  10:	0005                	c.nop	1
  12:	0200                	addi	s0,sp,256
  14:	002e                	c.slli	zero,0xb
  16:	0c3f0e03          	lb	t3,195(t5)
  1a:	0111                	addi	sp,sp,4
  1c:	0112                	slli	sp,sp,0x4
  1e:	0000                	unimp
  20:	0100                	addi	s0,sp,128
  22:	0034                	addi	a3,sp,8
  24:	213a0e03          	lb	t3,531(s4) # 153ad <__stack_top+0x318d>
  28:	3b01                	jal	fffffd38 <__stack_top+0xfffedb18>
  2a:	490b390b          	.insn	4, 0x490b390b
  2e:	00180213          	addi	tp,a6,1
  32:	0200                	addi	s0,sp,256
  34:	0005                	c.nop	1
  36:	213a0803          	lb	a6,531(s4)
  3a:	3b01                	jal	fffffd4a <__stack_top+0xfffedb2a>
  3c:	490b390b          	.insn	4, 0x490b390b
  40:	00180213          	addi	tp,a6,1
  44:	0300                	addi	s0,sp,384
  46:	0034                	addi	a3,sp,8
  48:	213a0803          	lb	a6,531(s4)
  4c:	3b01                	jal	fffffd5c <__stack_top+0xfffedb3c>
  4e:	490b390b          	.insn	4, 0x490b390b
  52:	00180213          	addi	tp,a6,1
  56:	0400                	addi	s0,sp,512
  58:	0024                	addi	s1,sp,8
  5a:	0b3e0b0b          	.insn	4, 0x0b3e0b0b
  5e:	00000e03          	lb	t3,0(zero) # 0 <_start-0x10000>
  62:	1605                	addi	a2,a2,-31
  64:	0300                	addi	s0,sp,384
  66:	3a0e                	.insn	2, 0x3a0e
  68:	390b3b0b          	.insn	4, 0x390b3b0b
  6c:	0013490b          	.insn	4, 0x0013490b
  70:	0600                	addi	s0,sp,768
  72:	0111010b          	.insn	4, 0x0111010b
  76:	0612                	slli	a2,a2,0x4
  78:	1301                	addi	t1,t1,-32
  7a:	0000                	unimp
  7c:	03003407          	.insn	4, 0x03003407
  80:	3a0e                	.insn	2, 0x3a0e
  82:	0121                	addi	sp,sp,8
  84:	2139053b          	.insn	4, 0x2139053b
  88:	4905                	li	s2,1
  8a:	00180213          	addi	tp,a6,1
  8e:	0800                	addi	s0,sp,16
  90:	0101                	addi	sp,sp,0
  92:	1349                	addi	t1,t1,-14
  94:	1301                	addi	t1,t1,-32
  96:	0000                	unimp
  98:	2109                	jal	49a <_start-0xfb66>
  9a:	4900                	lw	s0,16(a0)
  9c:	000b2f13          	slti	t5,s6,0
  a0:	0a00                	addi	s0,sp,272
  a2:	0111010b          	.insn	4, 0x0111010b
  a6:	0612                	slli	a2,a2,0x4
  a8:	0000                	unimp
  aa:	0300050b          	.insn	4, 0x0300050b
  ae:	3a0e                	.insn	2, 0x3a0e
  b0:	0121                	addi	sp,sp,8
  b2:	0b390b3b          	.insn	4, 0x0b390b3b
  b6:	1349                	addi	t1,t1,-14
  b8:	1802                	slli	a6,a6,0x20
  ba:	0000                	unimp
  bc:	260c                	.insn	2, 0x260c
  be:	4900                	lw	s0,16(a0)
  c0:	0d000013          	li	zero,208
  c4:	210b000f          	.insn	4, 0x210b000f
  c8:	4904                	lw	s1,16(a0)
  ca:	0e000013          	li	zero,224
  ce:	012e                	slli	sp,sp,0xb
  d0:	213a0e03          	lb	t3,531(s4)
  d4:	3b01                	jal	fffffde4 <__stack_top+0xfffedbc4>
  d6:	270b390b          	.insn	4, 0x270b390b
  da:	4919                	li	s2,6
  dc:	12011113          	.insn	4, 0x12011113
  e0:	4006                	.insn	2, 0x4006
  e2:	7a18                	.insn	2, 0x7a18
  e4:	0119                	addi	sp,sp,6
  e6:	0f000013          	li	zero,240
  ea:	012e                	slli	sp,sp,0xb
  ec:	0e03193f 3b01213a 	.insn	8, 0x3b01213a0e03193f
  f4:	0a21390b          	.insn	4, 0x0a21390b
  f8:	13491927          	.insn	4, 0x13491927
  fc:	0111                	addi	sp,sp,4
  fe:	0612                	slli	a2,a2,0x4
 100:	1840                	addi	s0,sp,52
 102:	197c                	addi	a5,sp,188
 104:	1301                	addi	t1,t1,-32
 106:	0000                	unimp
 108:	2e10                	.insn	2, 0x2e10
 10a:	0301                	addi	t1,t1,0
 10c:	3a0e                	.insn	2, 0x3a0e
 10e:	0121                	addi	sp,sp,8
 110:	21390b3b          	.insn	4, 0x21390b3b
 114:	270d                	jal	836 <_start-0xf7ca>
 116:	1119                	addi	sp,sp,-26
 118:	1201                	addi	tp,tp,-32 # ffffffe0 <__stack_top+0xfffeddc0>
 11a:	4006                	.insn	2, 0x4006
 11c:	7c18                	.insn	2, 0x7c18
 11e:	0119                	addi	sp,sp,6
 120:	11000013          	li	zero,272
 124:	0111                	addi	sp,sp,4
 126:	0e25                	addi	t3,t3,9 # fffe0009 <__stack_top+0xfffcdde9>
 128:	1f030b13          	addi	s6,t1,496
 12c:	01111f1b          	.insn	4, 0x01111f1b
 130:	0612                	slli	a2,a2,0x4
 132:	1710                	addi	a2,sp,928
 134:	0000                	unimp
 136:	2412                	.insn	2, 0x2412
 138:	0b00                	addi	s0,sp,400
 13a:	030b3e0b          	.insn	4, 0x030b3e0b
 13e:	0008                	.insn	2, 0x0008
 140:	1300                	addi	s0,sp,416
 142:	0b0b000f          	.insn	4, 0x0b0b000f
 146:	0000                	unimp
 148:	2e14                	.insn	2, 0x2e14
 14a:	3f01                	jal	5a <_start-0xffa6>
 14c:	0319                	addi	t1,t1,6
 14e:	3a0e                	.insn	2, 0x3a0e
 150:	39053b0b          	.insn	4, 0x39053b0b
 154:	1113490b          	.insn	4, 0x1113490b
 158:	1201                	addi	tp,tp,-32 # ffffffe0 <__stack_top+0xfffeddc0>
 15a:	4006                	.insn	2, 0x4006
 15c:	7c18                	.insn	2, 0x7c18
 15e:	0119                	addi	sp,sp,6
 160:	15000013          	li	zero,336
 164:	0034                	addi	a3,sp,8
 166:	0b3a0803          	lb	a6,179(s4)
 16a:	0b39053b          	.insn	4, 0x0b39053b
 16e:	1349                	addi	t1,t1,-14
 170:	1802                	slli	a6,a6,0x20
 172:	0000                	unimp
 174:	2e16                	.insn	2, 0x2e16
 176:	0301                	addi	t1,t1,0
 178:	3a08                	.insn	2, 0x3a08
 17a:	390b3b0b          	.insn	4, 0x390b3b0b
 17e:	4919270b          	.insn	4, 0x4919270b
 182:	12011113          	.insn	4, 0x12011113
 186:	4006                	.insn	2, 0x4006
 188:	7a18                	.insn	2, 0x7a18
 18a:	0119                	addi	sp,sp,6
 18c:	17000013          	li	zero,368
 190:	012e                	slli	sp,sp,0xb
 192:	0b3a0e03          	lb	t3,179(s4)
 196:	0b390b3b          	.insn	4, 0x0b390b3b
 19a:	01111927          	.insn	4, 0x01111927
 19e:	0612                	slli	a2,a2,0x4
 1a0:	1840                	addi	s0,sp,52
 1a2:	197a                	slli	s2,s2,0x3e
 1a4:	1301                	addi	t1,t1,-32
 1a6:	0000                	unimp
 1a8:	2e18                	.insn	2, 0x2e18
 1aa:	3f01                	jal	ba <_start-0xff46>
 1ac:	0319                	addi	t1,t1,6
 1ae:	3a0e                	.insn	2, 0x3a0e
 1b0:	390b3b0b          	.insn	4, 0x390b3b0b
 1b4:	4919270b          	.insn	4, 0x4919270b
 1b8:	12011113          	.insn	4, 0x12011113
 1bc:	4006                	.insn	2, 0x4006
 1be:	7a18                	.insn	2, 0x7a18
 1c0:	0119                	addi	sp,sp,6
 1c2:	19000013          	li	zero,400
 1c6:	0026                	c.slli	zero,0x9
 1c8:	0000                	unimp
	...

Disassembly of section .debug_aranges:

00000000 <.debug_aranges>:
   0:	001c                	.insn	2, 0x001c
   2:	0000                	unimp
   4:	0002                	c.slli64	zero
   6:	0000                	unimp
   8:	0000                	unimp
   a:	0004                	.insn	2, 0x0004
   c:	0000                	unimp
   e:	0000                	unimp
  10:	0000                	unimp
  12:	0001                	nop
  14:	003c                	addi	a5,sp,8
	...
  1e:	0000                	unimp
  20:	001c                	.insn	2, 0x001c
  22:	0000                	unimp
  24:	0002                	c.slli64	zero
  26:	0035                	c.nop	13
  28:	0000                	unimp
  2a:	0004                	.insn	2, 0x0004
  2c:	0000                	unimp
  2e:	0000                	unimp
  30:	003c                	addi	a5,sp,8
  32:	0001                	nop
  34:	1064                	addi	s1,sp,44
	...

Disassembly of section .debug_str:

00000000 <.debug_str>:
   0:	72617473          	.insn	4, 0x72617473
   4:	2e74                	.insn	2, 0x2e74
   6:	682f0053          	.insn	4, 0x682f0053
   a:	2f656d6f          	jal	s10,56300 <__stack_top+0x440e0>
   e:	67666667          	.insn	4, 0x67666667
  12:	69722f33          	.insn	4, 0x69722f33
  16:	2d766373          	.insn	4, 0x2d766373
  1a:	6f6e                	.insn	2, 0x6f6e
  1c:	656e                	.insn	2, 0x656e
  1e:	652d                	lui	a0,0xb
  20:	666c                	.insn	2, 0x666c
  22:	672d                	lui	a4,0xb
  24:	722f6363          	bltu	t5,sp,74a <_start-0xf8b6>
  28:	3376                	.insn	2, 0x3376
  2a:	6532                	.insn	2, 0x6532
  2c:	756d                	lui	a0,0xffffb
  2e:	3130                	.insn	2, 0x3130
  30:	3230                	.insn	2, 0x3230
  32:	3376722f          	.insn	4, 0x3376722f
  36:	6532                	.insn	2, 0x6532
  38:	756d                	lui	a0,0xffffb
  3a:	7365742f          	.insn	4, 0x7365742f
  3e:	7374                	.insn	2, 0x7374
  40:	7379732f          	.insn	4, 0x7379732f
  44:	6574                	.insn	2, 0x6574
  46:	2f6d                	jal	800 <_start-0xf800>
  48:	7571                	lui	a0,0xffffc
  4a:	7a69                	lui	s4,0xffffa
  4c:	72705f33          	.insn	4, 0x72705f33
  50:	656c626f          	jal	tp,c66a6 <__stack_top+0xb4486>
  54:	5f6d                	li	t5,-5
  56:	4e470063          	beq	a4,tp,536 <_start-0xfaca>
  5a:	2055                	jal	fe <_start-0xff02>
  5c:	5341                	li	t1,-16
  5e:	3220                	.insn	2, 0x3220
  60:	342e                	.insn	2, 0x342e
  62:	00312e33          	slt	t3,sp,gp
  66:	735f 6174 7472      	.insn	6, 0x74726174735f
  6c:	7300                	.insn	2, 0x7300
  6e:	7a69                	lui	s4,0xffffa
  70:	5f65                	li	t5,-7
  72:	0074                	addi	a3,sp,12
  74:	5f5f 6975 746e      	.insn	6, 0x746e69755f5f
  7a:	5f38                	lw	a4,120(a4)
  7c:	0074                	addi	a3,sp,12
  7e:	7571                	lui	a0,0xffffc
  80:	6569746f          	jal	s0,976d6 <__stack_top+0x854b6>
  84:	746e                	.insn	2, 0x746e
  86:	7000                	.insn	2, 0x7000
  88:	6972                	.insn	2, 0x6972
  8a:	746e                	.insn	2, 0x746e
  8c:	645f 6365 6c00      	.insn	6, 0x6c006365645f
  92:	20676e6f          	jal	t3,76298 <__stack_top+0x64078>
  96:	6f6c                	.insn	2, 0x6f6c
  98:	676e                	.insn	2, 0x676e
  9a:	7520                	.insn	2, 0x7520
  9c:	736e                	.insn	2, 0x736e
  9e:	6769                	lui	a4,0x1a
  a0:	656e                	.insn	2, 0x656e
  a2:	2064                	.insn	2, 0x2064
  a4:	6e69                	lui	t3,0x1a
  a6:	0074                	addi	a3,sp,12
  a8:	6564                	.insn	2, 0x6564
  aa:	746c                	.insn	2, 0x746c
  ac:	0061                	c.nop	24
  ae:	6f6c                	.insn	2, 0x6f6c
  b0:	676e                	.insn	2, 0x676e
  b2:	6c20                	.insn	2, 0x6c20
  b4:	20676e6f          	jal	t3,762ba <__stack_top+0x6409a>
  b8:	6e69                	lui	t3,0x1a
  ba:	0074                	addi	a3,sp,12
  bc:	6964                	.insn	2, 0x6964
  be:	00746967          	.insn	4, 0x00746967
  c2:	656d                	lui	a0,0x1b
  c4:	636d                	lui	t1,0x1b
  c6:	7970                	.insn	2, 0x7970
  c8:	6e00                	.insn	2, 0x6e00
  ca:	7765                	lui	a4,0xffff9
  cc:	6f74                	.insn	2, 0x6f74
  ce:	5f6e                	lw	t5,248(sp)
  d0:	70657473          	.insn	4, 0x70657473
  d4:	6400                	.insn	2, 0x6400
  d6:	7669                	lui	a2,0xffffa
  d8:	6469                	lui	s0,0x1a
  da:	6e65                	lui	t3,0x19
  dc:	0064                	addi	s1,sp,12
  de:	5f5f 6975 746e      	.insn	6, 0x746e69755f5f
  e4:	745f3233          	.insn	4, 0x745f3233
  e8:	6600                	.insn	2, 0x6600
  ea:	7361                	lui	t1,0xffff8
  ec:	5f74                	lw	a3,124(a4)
  ee:	6964                	.insn	2, 0x6964
  f0:	6e617473          	.insn	4, 0x6e617473
  f4:	335f6563          	bltu	t5,s5,41e <_start-0xfbe2>
  f8:	0064                	addi	s1,sp,12
  fa:	6e69                	lui	t3,0x1a
  fc:	5f76                	lw	t5,124(sp)
  fe:	6964                	.insn	2, 0x6964
 100:	66007473          	.insn	4, 0x66007473
 104:	7361                	lui	t1,0xffff8
 106:	5f74                	lw	a3,124(a4)
 108:	7372                	.insn	2, 0x7372
 10a:	7271                	lui	tp,0xffffc
 10c:	0074                	addi	a3,sp,12
 10e:	756d                	lui	a0,0xffffb
 110:	336c                	.insn	2, 0x336c
 112:	0032                	c.slli	zero,0xc
 114:	7372                	.insn	2, 0x7372
 116:	7271                	lui	tp,0xffffc
 118:	5f74                	lw	a3,124(a4)
 11a:	6174                	.insn	2, 0x6174
 11c:	6c62                	.insn	2, 0x6c62
 11e:	0065                	c.nop	25
 120:	6d5f 6773 7000      	.insn	6, 0x700067736d5f
 126:	6972                	.insn	2, 0x6972
 128:	746e                	.insn	2, 0x746e
 12a:	685f 7865 7300      	.insn	6, 0x73007865685f
 130:	6f68                	.insn	2, 0x6f68
 132:	7472                	.insn	2, 0x7472
 134:	7520                	.insn	2, 0x7520
 136:	736e                	.insn	2, 0x736e
 138:	6769                	lui	a4,0x1a
 13a:	656e                	.insn	2, 0x656e
 13c:	2064                	.insn	2, 0x2064
 13e:	6e69                	lui	t3,0x1a
 140:	0074                	addi	a3,sp,12
 142:	6572                	.insn	2, 0x6572
 144:	6e695f63          	bge	s2,t1,842 <_start-0xf7be>
 148:	5f76                	lw	t5,124(sp)
 14a:	74727173          	.insn	4, 0x74727173
 14e:	6900                	.insn	2, 0x6900
 150:	6574                	.insn	2, 0x6574
 152:	0072                	c.slli	zero,0x1c
 154:	6f6c                	.insn	2, 0x6f6c
 156:	676e                	.insn	2, 0x676e
 158:	6420                	.insn	2, 0x6420
 15a:	6c62756f          	jal	a0,27820 <__stack_top+0x15600>
 15e:	0065                	c.nop	25
 160:	6964                	.insn	2, 0x6964
 162:	6976                	.insn	2, 0x6976
 164:	00726f73          	.insn	4, 0x00726f73
 168:	6564                	.insn	2, 0x6564
 16a:	64007473          	.insn	4, 0x64007473
 16e:	7369                	lui	t1,0xffffa
 170:	5f74                	lw	a3,124(a4)
 172:	5f007173          	.insn	4, 0x5f007173
 176:	755f 6e69 3674      	.insn	6, 0x36746e69755f
 17c:	5f34                	lw	a3,120(a4)
 17e:	0074                	addi	a3,sp,12
 180:	7266                	.insn	2, 0x7266
 182:	6361                	lui	t1,0x18
 184:	7500                	.insn	2, 0x7500
 186:	736e                	.insn	2, 0x736e
 188:	6769                	lui	a4,0x1a
 18a:	656e                	.insn	2, 0x656e
 18c:	2064                	.insn	2, 0x2064
 18e:	72616863          	bltu	sp,t1,8be <_start-0xf742>
 192:	7300                	.insn	2, 0x7300
 194:	6f68                	.insn	2, 0x6f68
 196:	7472                	.insn	2, 0x7472
 198:	6920                	.insn	2, 0x6920
 19a:	746e                	.insn	2, 0x746e
 19c:	7900                	.insn	2, 0x7900
 19e:	6e5f 7865 0074      	.insn	6, 0x007478656e5f
 1a4:	5f5f 756d 736c      	.insn	6, 0x736c756d5f5f
 1aa:	3369                	jal	ffffff34 <__stack_top+0xfffedd14>
 1ac:	7200                	.insn	2, 0x7200
 1ae:	6d65                	lui	s10,0x19
 1b0:	6961                	lui	s2,0x18
 1b2:	646e                	.insn	2, 0x646e
 1b4:	7265                	lui	tp,0xffff9
 1b6:	5f00                	lw	s0,56(a4)
 1b8:	755f 6e69 3174      	.insn	6, 0x31746e69755f
 1be:	5f36                	lw	t5,108(sp)
 1c0:	0074                	addi	a3,sp,12
 1c2:	5f5f 6e69 3374      	.insn	6, 0x33746e695f5f
 1c8:	5f32                	lw	t5,44(sp)
 1ca:	0074                	addi	a3,sp,12
 1cc:	6d75                	lui	s10,0x1d
 1ce:	6c75                	lui	s8,0x1d
 1d0:	6900                	.insn	2, 0x6900
 1d2:	766e                	.insn	2, 0x766e
 1d4:	74727173          	.insn	4, 0x74727173
 1d8:	0032                	c.slli	zero,0xc
 1da:	6475                	lui	s0,0x1d
 1dc:	7669                	lui	a2,0xffffa
 1de:	4700                	lw	s0,8(a4)
 1e0:	554e                	lw	a0,240(sp)
 1e2:	4320                	lw	s0,64(a4)
 1e4:	3731                	jal	f0 <_start-0xff10>
 1e6:	3120                	.insn	2, 0x3120
 1e8:	2e34                	.insn	2, 0x2e34
 1ea:	2e32                	.insn	2, 0x2e32
 1ec:	2030                	.insn	2, 0x2030
 1ee:	6d2d                	lui	s10,0xb
 1f0:	6261                	lui	tp,0x18
 1f2:	3d69                	jal	8c <_start-0xff74>
 1f4:	6c69                	lui	s8,0x1a
 1f6:	3370                	.insn	2, 0x3370
 1f8:	2032                	.insn	2, 0x2032
 1fa:	6d2d                	lui	s10,0xb
 1fc:	7369                	lui	t1,0xffffa
 1fe:	2d61                	jal	896 <_start-0xf76a>
 200:	63657073          	.insn	4, 0x63657073
 204:	323d                	jal	fffffb32 <__stack_top+0xfffed912>
 206:	3130                	.insn	2, 0x3130
 208:	3139                	jal	fffffe16 <__stack_top+0xfffedbf6>
 20a:	3132                	.insn	2, 0x3132
 20c:	6d2d2033          	.insn	4, 0x6d2d2033
 210:	7261                	lui	tp,0xffff8
 212:	723d6863          	bltu	s10,gp,942 <_start-0xf6be>
 216:	3376                	.insn	2, 0x3376
 218:	6932                	.insn	2, 0x6932
 21a:	7a5f 6369 7273      	.insn	6, 0x727363697a5f
 220:	2d20                	.insn	2, 0x2d20
 222:	6e690067          	jr	1766(s2) # 186e6 <__stack_top+0x64c6>
 226:	5f76                	lw	t5,124(sp)
 228:	74727173          	.insn	4, 0x74727173
 22c:	635f 6361 6568      	.insn	6, 0x65686361635f
 232:	6d00                	.insn	2, 0x6d00
 234:	6961                	lui	s2,0x18
 236:	006e                	c.slli	zero,0x1b
 238:	6e69                	lui	t3,0x1a
 23a:	7376                	.insn	2, 0x7376
 23c:	7271                	lui	tp,0xffffc
 23e:	0074                	addi	a3,sp,12
 240:	6572                	.insn	2, 0x6572
 242:	746c7573          	.insn	4, 0x746c7573
 246:	7500                	.insn	2, 0x7500
 248:	6f6d                	lui	t5,0x1b
 24a:	0064                	addi	s1,sp,12

Disassembly of section .debug_line_str:

00000000 <.debug_line_str>:
   0:	6d6f682f          	.insn	4, 0x6d6f682f
   4:	2f65                	jal	7bc <_start-0xf844>
   6:	67666667          	.insn	4, 0x67666667
   a:	69722f33          	.insn	4, 0x69722f33
   e:	2d766373          	.insn	4, 0x2d766373
  12:	6f6e                	.insn	2, 0x6f6e
  14:	656e                	.insn	2, 0x656e
  16:	652d                	lui	a0,0xb
  18:	666c                	.insn	2, 0x666c
  1a:	672d                	lui	a4,0xb
  1c:	722f6363          	bltu	t5,sp,742 <_start-0xf8be>
  20:	3376                	.insn	2, 0x3376
  22:	6532                	.insn	2, 0x6532
  24:	756d                	lui	a0,0xffffb
  26:	3130                	.insn	2, 0x3130
  28:	3230                	.insn	2, 0x3230
  2a:	3376722f          	.insn	4, 0x3376722f
  2e:	6532                	.insn	2, 0x6532
  30:	756d                	lui	a0,0xffffb
  32:	7365742f          	.insn	4, 0x7365742f
  36:	7374                	.insn	2, 0x7374
  38:	7379732f          	.insn	4, 0x7379732f
  3c:	6574                	.insn	2, 0x6574
  3e:	2f6d                	jal	7f8 <_start-0xf808>
  40:	7571                	lui	a0,0xffffc
  42:	7a69                	lui	s4,0xffffa
  44:	72705f33          	.insn	4, 0x72705f33
  48:	656c626f          	jal	tp,c669e <__stack_top+0xb447e>
  4c:	5f6d                	li	t5,-5
  4e:	616d0063          	beq	s10,s6,64e <_start-0xf9b2>
  52:	6e69                	lui	t3,0x1a
  54:	632e                	.insn	2, 0x632e
  56:	2f00                	.insn	2, 0x2f00
  58:	6f68                	.insn	2, 0x6f68
  5a:	656d                	lui	a0,0x1b
  5c:	6666672f          	.insn	4, 0x6666672f
  60:	722f3367          	.insn	4, 0x722f3367
  64:	7369                	lui	t1,0xffffa
  66:	6e2d7663          	bgeu	s10,sp,752 <_start-0xf8ae>
  6a:	2d656e6f          	jal	t3,56340 <__stack_top+0x44120>
  6e:	6c65                	lui	s8,0x19
  70:	2d66                	.insn	2, 0x2d66
  72:	2f636367          	.insn	4, 0x2f636367
  76:	7078                	.insn	2, 0x7078
  78:	6361                	lui	t1,0x18
  7a:	69722d6b          	.insn	4, 0x69722d6b
  7e:	2d766373          	.insn	4, 0x2d766373
  82:	6f6e                	.insn	2, 0x6f6e
  84:	656e                	.insn	2, 0x656e
  86:	652d                	lui	a0,0xb
  88:	666c                	.insn	2, 0x666c
  8a:	672d                	lui	a4,0xb
  8c:	312d6363          	bltu	s10,s2,392 <_start-0xfc6e>
  90:	2e34                	.insn	2, 0x2e34
  92:	2e32                	.insn	2, 0x2e32
  94:	2d30                	.insn	2, 0x2d30
  96:	69722f33          	.insn	4, 0x69722f33
  9a:	2d766373          	.insn	4, 0x2d766373
  9e:	6f6e                	.insn	2, 0x6f6e
  a0:	656e                	.insn	2, 0x656e
  a2:	652d                	lui	a0,0xb
  a4:	666c                	.insn	2, 0x666c
  a6:	636e692f          	.insn	4, 0x636e692f
  aa:	756c                	.insn	2, 0x756c
  ac:	6564                	.insn	2, 0x6564
  ae:	63616d2f          	.insn	4, 0x63616d2f
  b2:	6968                	.insn	2, 0x6968
  b4:	656e                	.insn	2, 0x656e
  b6:	2f00                	.insn	2, 0x2f00
  b8:	6f68                	.insn	2, 0x6f68
  ba:	656d                	lui	a0,0x1b
  bc:	6666672f          	.insn	4, 0x6666672f
  c0:	722f3367          	.insn	4, 0x722f3367
  c4:	7369                	lui	t1,0xffffa
  c6:	6e2d7663          	bgeu	s10,sp,7b2 <_start-0xf84e>
  ca:	2d656e6f          	jal	t3,563a0 <__stack_top+0x44180>
  ce:	6c65                	lui	s8,0x19
  d0:	2d66                	.insn	2, 0x2d66
  d2:	2f636367          	.insn	4, 0x2f636367
  d6:	7078                	.insn	2, 0x7078
  d8:	6361                	lui	t1,0x18
  da:	69722d6b          	.insn	4, 0x69722d6b
  de:	2d766373          	.insn	4, 0x2d766373
  e2:	6f6e                	.insn	2, 0x6f6e
  e4:	656e                	.insn	2, 0x656e
  e6:	652d                	lui	a0,0xb
  e8:	666c                	.insn	2, 0x666c
  ea:	672d                	lui	a4,0xb
  ec:	312d6363          	bltu	s10,s2,3f2 <_start-0xfc0e>
  f0:	2e34                	.insn	2, 0x2e34
  f2:	2e32                	.insn	2, 0x2e32
  f4:	2d30                	.insn	2, 0x2d30
  f6:	69722f33          	.insn	4, 0x69722f33
  fa:	2d766373          	.insn	4, 0x2d766373
  fe:	6f6e                	.insn	2, 0x6f6e
 100:	656e                	.insn	2, 0x656e
 102:	652d                	lui	a0,0xb
 104:	666c                	.insn	2, 0x666c
 106:	636e692f          	.insn	4, 0x636e692f
 10a:	756c                	.insn	2, 0x756c
 10c:	6564                	.insn	2, 0x6564
 10e:	7379732f          	.insn	4, 0x7379732f
 112:	2f00                	.insn	2, 0x2f00
 114:	6f68                	.insn	2, 0x6f68
 116:	656d                	lui	a0,0x1b
 118:	6666672f          	.insn	4, 0x6666672f
 11c:	722f3367          	.insn	4, 0x722f3367
 120:	7369                	lui	t1,0xffffa
 122:	6e2d7663          	bgeu	s10,sp,80e <_start-0xf7f2>
 126:	2d656e6f          	jal	t3,563fc <__stack_top+0x441dc>
 12a:	6c65                	lui	s8,0x19
 12c:	2d66                	.insn	2, 0x2d66
 12e:	2f636367          	.insn	4, 0x2f636367
 132:	7078                	.insn	2, 0x7078
 134:	6361                	lui	t1,0x18
 136:	69722d6b          	.insn	4, 0x69722d6b
 13a:	2d766373          	.insn	4, 0x2d766373
 13e:	6f6e                	.insn	2, 0x6f6e
 140:	656e                	.insn	2, 0x656e
 142:	652d                	lui	a0,0xb
 144:	666c                	.insn	2, 0x666c
 146:	672d                	lui	a4,0xb
 148:	312d6363          	bltu	s10,s2,44e <_start-0xfbb2>
 14c:	2e34                	.insn	2, 0x2e34
 14e:	2e32                	.insn	2, 0x2e32
 150:	2d30                	.insn	2, 0x2d30
 152:	696c2f33          	.insn	4, 0x696c2f33
 156:	2f62                	.insn	2, 0x2f62
 158:	2f636367          	.insn	4, 0x2f636367
 15c:	6972                	.insn	2, 0x6972
 15e:	2d766373          	.insn	4, 0x2d766373
 162:	6f6e                	.insn	2, 0x6f6e
 164:	656e                	.insn	2, 0x656e
 166:	652d                	lui	a0,0xb
 168:	666c                	.insn	2, 0x666c
 16a:	2e34312f          	.insn	4, 0x2e34312f
 16e:	2e32                	.insn	2, 0x2e32
 170:	2f30                	.insn	2, 0x2f30
 172:	6e69                	lui	t3,0x1a
 174:	64756c63          	bltu	a0,t2,7cc <_start-0xf834>
 178:	0065                	c.nop	25
 17a:	6d6f682f          	.insn	4, 0x6d6f682f
 17e:	2f65                	jal	936 <_start-0xf6ca>
 180:	67666667          	.insn	4, 0x67666667
 184:	69722f33          	.insn	4, 0x69722f33
 188:	2d766373          	.insn	4, 0x2d766373
 18c:	6f6e                	.insn	2, 0x6f6e
 18e:	656e                	.insn	2, 0x656e
 190:	652d                	lui	a0,0xb
 192:	666c                	.insn	2, 0x666c
 194:	672d                	lui	a4,0xb
 196:	782f6363          	bltu	t5,sp,91c <_start-0xf6e4>
 19a:	6170                	.insn	2, 0x6170
 19c:	722d6b63          	bltu	s10,sp,8d2 <_start-0xf72e>
 1a0:	7369                	lui	t1,0xffffa
 1a2:	6e2d7663          	bgeu	s10,sp,88e <_start-0xf772>
 1a6:	2d656e6f          	jal	t3,5647c <__stack_top+0x4425c>
 1aa:	6c65                	lui	s8,0x19
 1ac:	2d66                	.insn	2, 0x2d66
 1ae:	2d636367          	.insn	4, 0x2d636367
 1b2:	3431                	jal	fffffbbe <__stack_top+0xfffed99e>
 1b4:	322e                	.insn	2, 0x322e
 1b6:	302e                	.insn	2, 0x302e
 1b8:	332d                	jal	fffffee2 <__stack_top+0xfffedcc2>
 1ba:	7369722f          	.insn	4, 0x7369722f
 1be:	6e2d7663          	bgeu	s10,sp,8aa <_start-0xf756>
 1c2:	2d656e6f          	jal	t3,56498 <__stack_top+0x44278>
 1c6:	6c65                	lui	s8,0x19
 1c8:	2f66                	.insn	2, 0x2f66
 1ca:	6e69                	lui	t3,0x1a
 1cc:	64756c63          	bltu	a0,t2,824 <_start-0xf7dc>
 1d0:	0065                	c.nop	25
 1d2:	645f 6665 7561      	.insn	6, 0x75616665645f
 1d8:	746c                	.insn	2, 0x746c
 1da:	745f 7079 7365      	.insn	6, 0x73657079745f
 1e0:	682e                	.insn	2, 0x682e
 1e2:	5f00                	lw	s0,56(a4)
 1e4:	69647473          	.insn	4, 0x69647473
 1e8:	746e                	.insn	2, 0x746e
 1ea:	682e                	.insn	2, 0x682e
 1ec:	7300                	.insn	2, 0x7300
 1ee:	6474                	.insn	2, 0x6474
 1f0:	6564                	.insn	2, 0x6564
 1f2:	2e66                	.insn	2, 0x2e66
 1f4:	0068                	addi	a0,sp,12
 1f6:	69727473          	.insn	4, 0x69727473
 1fa:	676e                	.insn	2, 0x676e
 1fc:	682e                	.insn	2, 0x682e
	...

Disassembly of section .debug_frame:

00000000 <.debug_frame>:
   0:	000c                	.insn	2, 0x000c
   2:	0000                	unimp
   4:	ffff                	.insn	2, 0xffff
   6:	ffff                	.insn	2, 0xffff
   8:	7c010003          	lb	zero,1984(sp)
   c:	0c01                	addi	s8,s8,0 # 19000 <__stack_top+0x6de0>
   e:	0002                	c.slli64	zero
  10:	0024                	addi	s1,sp,8
  12:	0000                	unimp
  14:	0000                	unimp
  16:	0000                	unimp
  18:	003c                	addi	a5,sp,8
  1a:	0001                	nop
  1c:	0078                	addi	a4,sp,12
  1e:	0000                	unimp
  20:	0e44                	addi	s1,sp,788
  22:	4830                	lw	a2,80(s0)
  24:	0181                	addi	gp,gp,0
  26:	0288                	addi	a0,sp,320
  28:	0c44                	addi	s1,sp,532
  2a:	0008                	.insn	2, 0x0008
  2c:	5c02                	lw	s8,32(sp)
  2e:	44c1                	li	s1,16
  30:	0cc8                	addi	a0,sp,596
  32:	3002                	.insn	2, 0x3002
  34:	0e44                	addi	s1,sp,788
  36:	0000                	unimp
  38:	0024                	addi	s1,sp,8
  3a:	0000                	unimp
  3c:	0000                	unimp
  3e:	0000                	unimp
  40:	00b4                	addi	a3,sp,72
  42:	0001                	nop
  44:	00c4                	addi	s1,sp,68
  46:	0000                	unimp
  48:	0e44                	addi	s1,sp,788
  4a:	4830                	lw	a2,80(s0)
  4c:	0181                	addi	gp,gp,0
  4e:	0288                	addi	a0,sp,320
  50:	0c44                	addi	s1,sp,532
  52:	0008                	.insn	2, 0x0008
  54:	a802                	.insn	2, 0xa802
  56:	44c1                	li	s1,16
  58:	0cc8                	addi	a0,sp,596
  5a:	3002                	.insn	2, 0x3002
  5c:	0e44                	addi	s1,sp,788
  5e:	0000                	unimp
  60:	0024                	addi	s1,sp,8
  62:	0000                	unimp
  64:	0000                	unimp
  66:	0000                	unimp
  68:	0178                	addi	a4,sp,140
  6a:	0001                	nop
  6c:	00a8                	addi	a0,sp,72
  6e:	0000                	unimp
  70:	0e44                	addi	s1,sp,788
  72:	4830                	lw	a2,80(s0)
  74:	0181                	addi	gp,gp,0
  76:	0288                	addi	a0,sp,320
  78:	0c44                	addi	s1,sp,532
  7a:	0008                	.insn	2, 0x0008
  7c:	8c02                	jr	s8
  7e:	44c1                	li	s1,16
  80:	0cc8                	addi	a0,sp,596
  82:	3002                	.insn	2, 0x3002
  84:	0e44                	addi	s1,sp,788
  86:	0000                	unimp
  88:	0024                	addi	s1,sp,8
  8a:	0000                	unimp
  8c:	0000                	unimp
  8e:	0000                	unimp
  90:	0220                	addi	s0,sp,264
  92:	0001                	nop
  94:	0074                	addi	a3,sp,12
  96:	0000                	unimp
  98:	0e44                	addi	s1,sp,788
  9a:	4830                	lw	a2,80(s0)
  9c:	0181                	addi	gp,gp,0
  9e:	0288                	addi	a0,sp,320
  a0:	0c44                	addi	s1,sp,532
  a2:	0008                	.insn	2, 0x0008
  a4:	5802                	lw	a6,32(sp)
  a6:	44c1                	li	s1,16
  a8:	0cc8                	addi	a0,sp,596
  aa:	3002                	.insn	2, 0x3002
  ac:	0e44                	addi	s1,sp,788
  ae:	0000                	unimp
  b0:	0024                	addi	s1,sp,8
  b2:	0000                	unimp
  b4:	0000                	unimp
  b6:	0000                	unimp
  b8:	0294                	addi	a3,sp,320
  ba:	0001                	nop
  bc:	003c                	addi	a5,sp,8
  be:	0000                	unimp
  c0:	0e44                	addi	s1,sp,788
  c2:	4820                	lw	s0,80(s0)
  c4:	0181                	addi	gp,gp,0
  c6:	0288                	addi	a0,sp,320
  c8:	0c44                	addi	s1,sp,532
  ca:	0008                	.insn	2, 0x0008
  cc:	c160                	sw	s0,68(a0)
  ce:	c844                	sw	s1,20(s0)
  d0:	020c                	addi	a1,sp,256
  d2:	4420                	lw	s0,72(s0)
  d4:	000e                	c.slli	zero,0x3
  d6:	0000                	unimp
  d8:	0024                	addi	s1,sp,8
  da:	0000                	unimp
  dc:	0000                	unimp
  de:	0000                	unimp
  e0:	02d0                	addi	a2,sp,324
  e2:	0001                	nop
  e4:	0108                	addi	a0,sp,128
  e6:	0000                	unimp
  e8:	0e44                	addi	s1,sp,788
  ea:	4840                	lw	s0,20(s0)
  ec:	0181                	addi	gp,gp,0
  ee:	0288                	addi	a0,sp,320
  f0:	0c44                	addi	s1,sp,532
  f2:	0008                	.insn	2, 0x0008
  f4:	ec02                	.insn	2, 0xec02
  f6:	44c1                	li	s1,16
  f8:	0cc8                	addi	a0,sp,596
  fa:	4002                	.insn	2, 0x4002
  fc:	0e44                	addi	s1,sp,788
  fe:	0000                	unimp
 100:	0024                	addi	s1,sp,8
 102:	0000                	unimp
 104:	0000                	unimp
 106:	0000                	unimp
 108:	03d8                	addi	a4,sp,452
 10a:	0001                	nop
 10c:	00ec                	addi	a1,sp,76
 10e:	0000                	unimp
 110:	0e44                	addi	s1,sp,788
 112:	4840                	lw	s0,20(s0)
 114:	0181                	addi	gp,gp,0
 116:	0288                	addi	a0,sp,320
 118:	0c44                	addi	s1,sp,532
 11a:	0008                	.insn	2, 0x0008
 11c:	d002                	sw	zero,32(sp)
 11e:	44c1                	li	s1,16
 120:	0cc8                	addi	a0,sp,596
 122:	4002                	.insn	2, 0x4002
 124:	0e44                	addi	s1,sp,788
 126:	0000                	unimp
 128:	004c                	addi	a1,sp,4
 12a:	0000                	unimp
 12c:	0000                	unimp
 12e:	0000                	unimp
 130:	04c4                	addi	s1,sp,580
 132:	0001                	nop
 134:	0194                	addi	a3,sp,192
 136:	0000                	unimp
 138:	0e44                	addi	s1,sp,788
 13a:	7050                	.insn	2, 0x7050
 13c:	0181                	addi	gp,gp,0
 13e:	0288                	addi	a0,sp,320
 140:	0392                	slli	t2,t2,0x4
 142:	05940493          	addi	s1,s0,89 # 1d059 <__stack_top+0xae39>
 146:	0695                	addi	a3,a3,5
 148:	0796                	slli	a5,a5,0x5
 14a:	09980897          	auipc	a7,0x9980
 14e:	0a99                	addi	s5,s5,6
 150:	0b9a                	slli	s7,s7,0x6
 152:	0c440c9b          	.insn	4, 0x0c440c9b
 156:	0008                	.insn	2, 0x0008
 158:	c1012803          	lw	a6,-1008(sp)
 15c:	c844                	sw	s1,20(s0)
 15e:	020c                	addi	a1,sp,256
 160:	4450                	lw	a2,12(s0)
 162:	44d2                	lw	s1,20(sp)
 164:	44d444d3          	.insn	4, 0x44d444d3
 168:	44d5                	li	s1,21
 16a:	44d6                	lw	s1,84(sp)
 16c:	44d844d7          	.insn	4, 0x44d844d7
 170:	44d9                	li	s1,22
 172:	44da                	lw	s1,148(sp)
 174:	000e44db          	.insn	4, 0x000e44db
 178:	004c                	addi	a1,sp,4
 17a:	0000                	unimp
 17c:	0000                	unimp
 17e:	0000                	unimp
 180:	0658                	addi	a4,sp,772
 182:	0001                	nop
 184:	0278                	addi	a4,sp,268
 186:	0000                	unimp
 188:	0e44                	addi	s1,sp,788
 18a:	7060                	.insn	2, 0x7060
 18c:	0181                	addi	gp,gp,0
 18e:	0288                	addi	a0,sp,320
 190:	0392                	slli	t2,t2,0x4
 192:	05940493          	addi	s1,s0,89
 196:	0695                	addi	a3,a3,5
 198:	0796                	slli	a5,a5,0x5
 19a:	09980897          	auipc	a7,0x9980
 19e:	0a99                	addi	s5,s5,6
 1a0:	0b9a                	slli	s7,s7,0x6
 1a2:	0c440c9b          	.insn	4, 0x0c440c9b
 1a6:	0008                	.insn	2, 0x0008
 1a8:	c1020c03          	lb	s8,-1008(tp) # ffffbc10 <__stack_top+0xfffe99f0>
 1ac:	c844                	sw	s1,20(s0)
 1ae:	020c                	addi	a1,sp,256
 1b0:	4460                	lw	s0,76(s0)
 1b2:	44d2                	lw	s1,20(sp)
 1b4:	44d444d3          	.insn	4, 0x44d444d3
 1b8:	44d5                	li	s1,21
 1ba:	44d6                	lw	s1,84(sp)
 1bc:	44d844d7          	.insn	4, 0x44d844d7
 1c0:	44d9                	li	s1,22
 1c2:	44da                	lw	s1,148(sp)
 1c4:	000e44db          	.insn	4, 0x000e44db
 1c8:	0024                	addi	s1,sp,8
 1ca:	0000                	unimp
 1cc:	0000                	unimp
 1ce:	0000                	unimp
 1d0:	08d0                	addi	a2,sp,84
 1d2:	0001                	nop
 1d4:	00f4                	addi	a3,sp,76
 1d6:	0000                	unimp
 1d8:	0e44                	addi	s1,sp,788
 1da:	4830                	lw	a2,80(s0)
 1dc:	0181                	addi	gp,gp,0
 1de:	0288                	addi	a0,sp,320
 1e0:	0c44                	addi	s1,sp,532
 1e2:	0008                	.insn	2, 0x0008
 1e4:	d802                	sw	zero,48(sp)
 1e6:	44c1                	li	s1,16
 1e8:	0cc8                	addi	a0,sp,596
 1ea:	3002                	.insn	2, 0x3002
 1ec:	0e44                	addi	s1,sp,788
 1ee:	0000                	unimp
 1f0:	0024                	addi	s1,sp,8
 1f2:	0000                	unimp
 1f4:	0000                	unimp
 1f6:	0000                	unimp
 1f8:	09c4                	addi	s1,sp,212
 1fa:	0001                	nop
 1fc:	00e4                	addi	s1,sp,76
 1fe:	0000                	unimp
 200:	0e44                	addi	s1,sp,788
 202:	4830                	lw	a2,80(s0)
 204:	0181                	addi	gp,gp,0
 206:	0288                	addi	a0,sp,320
 208:	0c44                	addi	s1,sp,532
 20a:	0008                	.insn	2, 0x0008
 20c:	c802                	sw	zero,16(sp)
 20e:	44c1                	li	s1,16
 210:	0cc8                	addi	a0,sp,596
 212:	3002                	.insn	2, 0x3002
 214:	0e44                	addi	s1,sp,788
 216:	0000                	unimp
 218:	004c                	addi	a1,sp,4
 21a:	0000                	unimp
 21c:	0000                	unimp
 21e:	0000                	unimp
 220:	0aa8                	addi	a0,sp,344
 222:	0001                	nop
 224:	020c                	addi	a1,sp,256
 226:	0000                	unimp
 228:	0e44                	addi	s1,sp,788
 22a:	7070                	.insn	2, 0x7070
 22c:	0181                	addi	gp,gp,0
 22e:	0288                	addi	a0,sp,320
 230:	0392                	slli	t2,t2,0x4
 232:	05940493          	addi	s1,s0,89
 236:	0695                	addi	a3,a3,5
 238:	0796                	slli	a5,a5,0x5
 23a:	09980897          	auipc	a7,0x9980
 23e:	0a99                	addi	s5,s5,6
 240:	0b9a                	slli	s7,s7,0x6
 242:	0c440c9b          	.insn	4, 0x0c440c9b
 246:	0008                	.insn	2, 0x0008
 248:	c101a003          	lw	zero,-1008(gp)
 24c:	c844                	sw	s1,20(s0)
 24e:	020c                	addi	a1,sp,256
 250:	4470                	lw	a2,76(s0)
 252:	44d2                	lw	s1,20(sp)
 254:	44d444d3          	.insn	4, 0x44d444d3
 258:	44d5                	li	s1,21
 25a:	44d6                	lw	s1,84(sp)
 25c:	44d844d7          	.insn	4, 0x44d844d7
 260:	44d9                	li	s1,22
 262:	44da                	lw	s1,148(sp)
 264:	000e44db          	.insn	4, 0x000e44db
 268:	0028                	addi	a0,sp,8
 26a:	0000                	unimp
 26c:	0000                	unimp
 26e:	0000                	unimp
 270:	0cb4                	addi	a3,sp,600
 272:	0001                	nop
 274:	03ec                	addi	a1,sp,460
 276:	0000                	unimp
 278:	0e44                	addi	s1,sp,788
 27a:	0280                	addi	s0,sp,320
 27c:	8148                	.insn	2, 0x8148
 27e:	8801                	andi	s0,s0,0
 280:	4402                	lw	s0,0(sp)
 282:	080c                	addi	a1,sp,16
 284:	0300                	addi	s0,sp,384
 286:	03d0                	addi	a2,sp,452
 288:	44c1                	li	s1,16
 28a:	0cc8                	addi	a0,sp,596
 28c:	8002                	.insn	2, 0x8002
 28e:	4402                	lw	s0,0(sp)
 290:	000e                	c.slli	zero,0x3
	...
