riscv-none-elf-objdump -Ds test.elf | less

test.elf:     file format elf32-littleriscv

Contents of section .text:
 10000 17210000 1301010a 97120000 9382e208  .!..............
 10010 17130000 13036308 63d86200 23a00200  ......c.c.b.#...
 10020 93824200 6ff05fff ef100003 9308d005  ..B.o._.........
 10030 13050000 73000000 6f000000 130101fe  ....s...o.......
 10040 232e1100 232c8100 13040102 2316a4fe  #...#,......#...
 10050 8357c4fe 13870700 b7870000 938707f8  .W..............
 10060 3377f700 b7870000 938707f8 631cf700  3w..........c...
 10070 8357c4fe 93f7f707 63860700 93071000  .W......c.......
 10080 6f008000 93070000 93f71700 93f7f70f  o...............
 10090 13850700 8320c101 03248101 13010102  ..... ...$......
 100a0 67800000 130101fe 232e1100 232c8100  g.......#...#,..
 100b0 13040102 2316a4fe 8357c4fe 13870700  ....#....W......
 100c0 b7870000 938707f8 3377f700 b7870000  ........3w......
 100d0 938707f8 631cf700 8357c4fe 93f7f707  ....c....W......
 100e0 63960700 93071000 6f008000 93070000  c.......o.......
 100f0 93f71700 93f7f70f 13850700 8320c101  ............. ..
 10100 03248101 13010102 67800000 130101fe  .$......g.......
 10110 232e1100 232c8100 13040102 2316a4fe  #...#,......#...
 10120 8357c4fe 13870700 b7870000 9387f7ff  .W..............
 10130 b377f700 93b71700 93f7f70f 13850700  .w..............
 10140 8320c101 03248101 13010102 67800000  . ...$......g...
 10150 130101fd 23261102 23248102 13040103  ....#&..#$......
 10160 232ea4fc 8327c4fd 2326f4fe 8327c4fe  #....'..#&...'..
 10170 93d77701 13f7f70f 9307f00f 631cf700  ..w.........c...
 10180 8327c4fe 93d70701 93970701 93d70701  .'..............
 10190 6f008003 8327c4fe 93d70701 13f71700  o....'..........
 101a0 8327c4fe 3307f700 b7870000 9387f7ff  .'..3...........
 101b0 b307f700 2326f4fe 8327c4fe 93d70701  ....#&...'......
 101c0 93970701 93d70701 13850700 8320c102  ............. ..
 101d0 03248102 13010103 67800000 130101fd  .$......g.......
 101e0 23261102 23248102 13040103 231ea4fc  #&..#$......#...
 101f0 8357c4fd 93970701 2326f4fe 8327c4fe  .W......#&...'..
 10200 2324f4fe 832784fe 13850700 8320c102  #$...'....... ..
 10210 03248102 13010103 67800000 130101fc  .$......g.......
 10220 232e1102 232c8102 13040104 2316a4fc  #...#,......#...
 10230 2314b4fc 8357c4fc 93d7f700 2311f4fe  #....W......#...
 10240 835784fc 93d7f700 2310f4fe 8357c4fc  .W......#....W..
 10250 93d77700 93970701 93d70701 93970701  ..w.............
 10260 93d70741 93f7f70f 231ff4fc 835784fc  ...A....#....W..
 10270 93d77700 93970701 93d70701 93970701  ..w.............
 10280 93d70741 93f7f70f 231ef4fc 8357c4fc  ...A....#....W..
 10290 93f7f707 2317f4fe 835784fc 93f7f707  ....#....W......
 102a0 2316f4fe 0317e4fd 9307f00f 6318f704  #...........c...
 102b0 8357e4fe 63860700 8357c4fc 6f00402c  .W..c....W..o.@,
 102c0 0317c4fd 9307f00f 6316f702 8357c4fe  ........c....W..
 102d0 639e0700 035724fe 835704fe 6308f700  c....W$..W..c...
 102e0 b787ffff 93c707fc 6f008029 835784fc  ........o..).W..
 102f0 6f000029 8357c4fc 6f008028 0317c4fd  o..).W..o..(....
 10300 9307f00f 6316f700 835784fc 6f004027  ....c....W..o.@'
 10310 8317e4fd 639a0700 8357e4fe 63960700  ....c....W..c...
 10320 835784fc 6f00c025 8317c4fd 639a0700  .W..o..%....c...
 10330 8357c4fe 63960700 8357c4fc 6f004024  .W..c....W..o.@$
 10340 8317e4fd 63880700 8357e4fe 93e70708  ....c....W......
 10350 2317f4fe 8317c4fd 63880700 8357c4fe  #.......c....W..
 10360 93e70708 2316f4fe 0357e4fd 8357c4fd  ....#....W...W..
 10370 b307f740 93970701 93d70701 231df4fc  ...@........#...
 10380 8317a4fd 635af002 8357e4fd 2314f4fe  ....cZ...W..#...
 10390 0317a4fd 93078000 63d6e700 8357c4fc  ........c....W..
 103a0 6f00001e 0357c4fe 8317a4fd b357f740  o....W.......W.@
 103b0 2316f4fe 6f008004 8317a4fd 63dc0702  #...o.......c...
 103c0 8357c4fd 2314f4fe 0317a4fd 930780ff  .W..#...........
 103d0 6356f700 835784fc 6f00801a 0357e4fe  cV...W..o....W..
 103e0 8317a4fd b307f040 b357f740 2317f4fe  .......@.W.@#...
 103f0 6f00c000 8357e4fd 2314f4fe 035724fe  o....W..#....W$.
 10400 835704fe 6312f708 835724fe 2315f4fe  .W..c....W$.#...
 10410 0357e4fe 8357c4fe b307f700 2322f4fe  .W...W......#"..
 10420 832744fe 93f70710 6386070e 832744fe  .'D.....c....'D.
 10430 93d71700 2322f4fe 835784fe 93871700  ....#"...W......
 10440 93970701 93d70701 2314f4fe 031784fe  ........#.......
 10450 9307e00f 63d0e70c 8317a4fe 9397f700  ....c...........
 10460 13970701 13570741 b7870000 938707f8  .....W.A........
 10470 b367f700 93970701 93d70741 93970701  .g.........A....
 10480 93d70701 6f00c00f 0357e4fe 8357c4fe  ....o....W...W..
 10490 6360f702 835724fe 2315f4fe 0357e4fe  c`...W$.#....W..
 104a0 8357c4fe b307f740 2322f4fe 6f00c001  .W.....@#"..o...
 104b0 835704fe 2315f4fe 0357c4fe 8357e4fe  .W..#....W...W..
 104c0 b307f740 2322f4fe 832744fe 639e0702  ...@#"...'D.c...
 104d0 93070000 6f00c00a 832744fe 93971700  ....o....'D.....
 104e0 2322f4fe 835784fe 9387f7ff 93970701  #"...W..........
 104f0 93d70701 2314f4fe 831784fe 6346f000  ....#.......cF..
 10500 93070000 6f00c007 832744fe 93f70708  ....o....'D.....
 10510 e38407fc 8317a4fe 9397f700 13970701  ................
 10520 13570741 835784fe 93977700 93960701  .W.A.W....w.....
 10530 93d60641 b7870000 938707f8 b3f7f600  ...A............
 10540 93970701 93d70741 b367f700 93970701  .......A.g......
 10550 93d70741 13970701 13570701 832744fe  ...A.....W...'D.
 10560 93970701 93d70701 93f7f707 93970701  ................
 10570 93d70701 b367f700 93970701 93d70701  .....g..........
 10580 13850700 8320c103 03248103 13010104  ..... ...$......
 10590 67800000 130101fe 232e1100 232c8100  g.......#...#,..
 105a0 13040102 2316a4fe 2314b4fe 035784fe  ....#...#....W..
 105b0 b787ffff b347f700 93970701 93d70701  .....G..........
 105c0 2314f4fe 835784fe 93850700 8357c4fe  #....W.......W..
 105d0 13850700 eff09fc4 93070500 13850700  ................
 105e0 8320c101 03248101 13010102 67800000  . ...$......g...
 105f0 130101fc 232e1102 232c8102 13040104  ....#...#,......
 10600 2316a4fc 2314b4fc 8357c4fc 93d7f700  #...#....W......
 10610 231df4fc 835784fc 93d7f700 231cf4fc  #....W......#...
 10620 8357c4fc 93d77700 93970701 93d70701  .W....w.........
 10630 93970701 93d70741 93f7f70f 2317f4fe  .......A....#...
 10640 835784fc 93d77700 93970701 93d70701  .W....w.........
 10650 93970701 93d70741 93f7f70f 2316f4fe  .......A....#...
 10660 8357c4fc 93f7f707 2315f4fe 835784fc  .W......#....W..
 10670 93f7f707 2314f4fe 8357a4fd 13870700  ....#....W......
 10680 835784fd b347f700 231bf4fc 0317e4fe  .W...G..#.......
 10690 9307f00f 6310f706 8357a4fe 63860700  ....c....W..c...
 106a0 8357c4fc 6f00c030 8317c4fe 639c0700  .W..o..0....c...
 106b0 835784fe 63980700 b787ffff 93c707fc  .W..c...........
 106c0 6f00002f 831764fd 9397f700 13970701  o../..d.........
 106d0 13570741 b7870000 938707f8 b367f700  .W.A.........g..
 106e0 93970701 93d70741 93970701 93d70701  .......A........
 106f0 6f00002c 0317c4fe 9307f00f 6310f706  o..,........c...
 10700 835784fe 63860700 835784fc 6f00402a  .W..c....W..o.@*
 10710 8317e4fe 639c0700 8357a4fe 63980700  ....c....W..c...
 10720 b787ffff 93c707fc 6f008028 831764fd  ........o..(..d.
 10730 9397f700 13970701 13570741 b7870000  .........W.A....
 10740 938707f8 b367f700 93970701 93d70741  .....g.........A
 10750 93970701 93d70701 6f008025 8317e4fe  ........o..%....
 10760 63960700 8357a4fe 638a0700 8317c4fe  c....W..c.......
 10770 63900702 835784fe 639c0700 835764fd  c....W..c....Wd.
 10780 9397f700 93970701 93d70701 6f004022  ............o.@"
 10790 231304fe 8317e4fe 63940704 6f00c002  #.......c...o...
 107a0 8357a4fe 93971700 2315f4fe 831764fe  .W......#.....d.
 107b0 93970701 93d70701 9387f7ff 93970701  ................
 107c0 93d70701 2313f4fe 8357a4fe 93f70708  ....#....W......
 107d0 e38807fc 93071000 2317f4fe 6f000001  ........#...o...
 107e0 8357a4fe 93e70708 2315f4fe 8317c4fe  .W......#.......
 107f0 63940704 6f00c002 835784fe 93971700  c...o....W......
 10800 2314f4fe 831764fe 93970701 93d70701  #.....d.........
 10810 9387f7ff 93970701 93d70701 2313f4fe  ............#...
 10820 835784fe 93f70708 e38807fc 93071000  .W..............
 10830 2316f4fe 6f000001 835784fe 93e70708  #...o....W......
 10840 2314f4fe 8357a4fe 035784fe 93050700  #....W...W......
 10850 13850700 ef00d002 93070500 2320f4fe  ............# ..
 10860 0317e4fe 8317c4fe b307f700 138717f8  ................
 10870 831764fe b307f700 232ef4fc 032704fe  ..d.....#....'..
 10880 b7870000 b377f700 63820702 832704fe  .....w..c....'..
 10890 93d78700 93f7f707 2320f4fe 8327c4fd  ........# ...'..
 108a0 93871700 232ef4fc 6f004001 832704fe  ....#...o.@..'..
 108b0 93d77700 93f7f707 2320f4fe 0327c4fd  ..w.....# ...'..
 108c0 9307e00f 63dae702 831764fd 9397f700  ....c.....d.....
 108d0 13970701 13570741 b7870000 938707f8  .....W.A........
 108e0 b367f700 93970701 93d70741 93970701  .g.........A....
 108f0 93d70701 6f00c00b 8327c4fd 6340f004  ....o....'..c@..
 10900 0327c4fd 9307a0ff 635cf700 835764fd  .'......c\...Wd.
 10910 9397f700 93970701 93d70701 6f004009  ............o.@.
 10920 13071000 8327c4fd b307f740 032704fe  .....'.....@.'..
 10930 b357f700 2320f4fe 232e04fc 831764fd  .W..# ..#.....d.
 10940 9397f700 13970701 13570741 8327c4fd  .........W.A.'..
 10950 93970701 93d70741 93977700 93960701  .......A..w.....
 10960 93d60641 b7870000 938707f8 b3f7f600  ...A............
 10970 93970701 93d70741 b367f700 93970701  .......A.g......
 10980 93d70741 13970701 13570701 832704fe  ...A.....W...'..
 10990 93970701 93d70701 93f7f707 93970701  ................
 109a0 93d70701 b367f700 93970701 93d70701  .....g..........
 109b0 13850700 8320c103 03248103 13010104  ..... ...$......
 109c0 67800000 130101fb 23261104 23248104  g.......#&..#$..
 109d0 13040105 231ea4fa 231cb4fa 8357c4fb  ....#...#....W..
 109e0 93d7f700 231df4fc 835784fb 93d7f700  ....#....W......
 109f0 231cf4fc 8357c4fb 93d77700 93970701  #....W....w.....
 10a00 93d70701 93970701 93d70741 93f7f70f  ...........A....
 10a10 231bf4fc 835784fb 93d77700 93970701  #....W....w.....
 10a20 93d70701 93970701 93d70741 93f7f70f  ...........A....
 10a30 231af4fc 8357c4fb 93f7f707 2317f4fe  #....W......#...
 10a40 835784fb 93f7f707 2316f4fe 8357a4fd  .W......#....W..
 10a50 13870700 835784fd b347f700 2319f4fc  .....W...G..#...
 10a60 031744fd 9307f00f 6314f704 8357c4fe  ..D.....c....W..
 10a70 63860700 835784fb 6f00c032 031764fd  c....W..o..2..d.
 10a80 9307f00f 631cf700 8357e4fe 63980700  ....c....W..c...
 10a90 b787ffff 93c707fc 6f00c030 835724fd  ........o..0.W$.
 10aa0 9397f700 93970701 93d70701 6f00802f  ............o../
 10ab0 831744fd 639c0704 8357c4fe 63980704  ..D.c....W..c...
 10ac0 831764fd 639c0700 8357e4fe 63980700  ..d.c....W..c...
 10ad0 b787ffff 93c707fc 6f00c02c 831724fd  ........o..,..$.
 10ae0 9397f700 13970701 13570741 b7870000  .........W.A....
 10af0 938707f8 b367f700 93970701 93d70741  .....g.........A
 10b00 93970701 93d70701 6f00c029 031764fd  ........o..)..d.
 10b10 9307f00f 6312f704 8357e4fe 63860700  ....c....W..c...
 10b20 8357c4fb 6f000028 831724fd 9397f700  .W..o..(..$.....
 10b30 13970701 13570741 b7870000 938707f8  .....W.A........
 10b40 b367f700 93970701 93d70741 93970701  .g.........A....
 10b50 93d70701 6f000025 831764fd 63900702  ....o..%..d.c...
 10b60 8357e4fe 639c0700 835724fd 9397f700  .W..c....W$.....
 10b70 93970701 93d70701 6f00c022 831764fd  ........o.."..d.
 10b80 63880700 8357e4fe 93e70708 2317f4fe  c....W......#...
 10b90 831744fd 63880700 8357c4fe 93e70708  ..D.c....W......
 10ba0 2316f4fe 8357e4fe 9397f700 2324f4fe  #....W......#$..
 10bb0 8357c4fe 2326f4fc 232204fe 232004fe  .W..#&..#"..# ..
 10bc0 6f004006 832744fe 93971700 2322f4fe  o.@..'D.....#"..
 10bd0 1307f000 832704fe b307f740 0327c4fc  .....'.....@.'..
 10be0 b317f700 032784fe 6368f702 1307f000  .....'..ch......
 10bf0 832704fe b307f740 0327c4fc b317f700  .'.....@.'......
 10c00 032784fe b307f740 2324f4fe 832744fe  .'.....@#$...'D.
 10c10 93e71700 2322f4fe 832704fe 93871700  ....#"...'......
 10c20 2320f4fe 032704fe 9307f000 e3dce7f8  # ...'..........
 10c30 031764fd 831744fd b307f740 9387f707  ..d...D....@....
 10c40 232ef4fc 831764fd 63980700 8327c4fd  #.....d.c....'..
 10c50 9387f7ff 232ef4fc 831744fd 63980700  ....#.....D.c...
 10c60 8327c4fd 93871700 232ef4fc 032744fe  .'......#....'D.
 10c70 b7870000 b377f700 63860702 832744fe  .....w..c....'D.
 10c80 93d78700 2322f4fe 6f004004 832744fe  ....#"..o.@..'D.
 10c90 93971700 2322f4fe 8327c4fd 9387f7ff  ....#"...'......
 10ca0 232ef4fc 032744fe b7870000 b377f700  #....'D......w..
 10cb0 63980700 0327c4fd 93071000 e3c8e7fc  c....'..........
 10cc0 832744fe 93d78700 2322f4fe 832744fe  .'D.....#"...'D.
 10cd0 93f7f707 2322f4fe 0327c4fd 9307e00f  ....#"...'......
 10ce0 63dae702 831724fd 9397f700 13970701  c.....$.........
 10cf0 13570741 b7870000 938707f8 b367f700  .W.A.........g..
 10d00 93970701 93d70741 93970701 93d70701  .......A........
 10d10 6f004009 8327c4fd 634cf000 835724fd  o.@..'..cL...W$.
 10d20 9397f700 93970701 93d70701 6f008007  ............o...
 10d30 831724fd 9397f700 13970701 13570741  ..$..........W.A
 10d40 8327c4fd 93970701 93d70741 93977700  .'.........A..w.
 10d50 93960701 93d60641 b7870000 938707f8  .......A........
 10d60 b3f7f600 93970701 93d70741 b367f700  ...........A.g..
 10d70 93970701 93d70741 13970701 13570701  .......A.....W..
 10d80 832744fe 93970701 93d70701 93f7f707  .'D.............
 10d90 93970701 93d70701 b367f700 93970701  .........g......
 10da0 93d70701 13850700 8320c104 03248104  ......... ...$..
 10db0 13010105 67800000 130101fb 23261104  ....g.......#&..
 10dc0 23248104 13040105 231ea4fa 8357c4fb  #$......#....W..
 10dd0 93d7f700 231df4fc 8357c4fb 93d77700  ....#....W....w.
 10de0 93970701 93d70701 93970701 93d70741  ...............A
 10df0 93f7f70f 231cf4fc 8357c4fb 93f7f707  ....#....W......
 10e00 231bf4fc 031784fd 9307f00f 6318f702  #...........c...
 10e10 835764fd 63860700 8357c4fb 6f008022  .Wd.c....W..o.."
 10e20 8357a4fd 63880700 b787ffff 93c707fc  .W..c...........
 10e30 6f004021 8357c4fb 6f00c020 831784fd  o.@!.W..o.. ....
 10e40 639a0700 835764fd 63960700 93070000  c....Wd.c.......
 10e50 6f00401f 8357a4fd 63880700 b787ffff  o.@..W..c.......
 10e60 93c707fc 6f00001e 831784fd 63960700  ....o.......c...
 10e70 93070000 6f00001d 831784fd 938717f8  ....o...........
 10e80 2328f4fc 835764fd 93e70708 93970701  #(...Wd.........
 10e90 93d70701 2324f4fe 832704fd 93f71700  ....#$...'......
 10ea0 63840702 832784fe 93971700 2324f4fe  c....'......#$..
 10eb0 832704fd 9387f7ff 93d71740 9387f707  .'.........@....
 10ec0 2326f4fe 6f004001 832704fd 93d71740  #&..o.@..'.....@
 10ed0 9387f707 2326f4fe 9307a005 2322f4fe  ....#&......#"..
 10ee0 93070010 2320f4fe 93070008 232ef4fc  ....# ......#...
 10ef0 6f000006 032744fe 832704fe b307f700  o....'D..'......
 10f00 93d71700 2324f4fc 832584fc 032584fc  ....#$...%...%..
 10f10 ef000017 93070500 93d77700 2322f4fc  ..........w.#"..
 10f20 032744fc 832784fe 63eee700 832784fc  .'D..'..c....'..
 10f30 232ef4fc 832784fc 93871700 2322f4fe  #....'......#"..
 10f40 6f000001 832784fc 9387f7ff 2320f4fe  o....'......# ..
 10f50 032744fe 832704fe e3fee7f8 0327c4fd  .'D..'.......'..
 10f60 9307f00f 63f0e702 8327c4fd 93d71700  ....c....'......
 10f70 232ef4fc 8327c4fe 93871700 2326f4fe  #....'......#&..
 10f80 6f004004 0327c4fd 9307f007 63ece702  o.@..'......c...
 10f90 6f00c001 8327c4fd 93971700 232ef4fc  o....'......#...
 10fa0 8327c4fe 9387f7ff 2326f4fe 0327c4fd  .'......#&...'..
 10fb0 9307f007 63e8e700 0327c4fe 93071000  ....c....'......
 10fc0 e3cae7fc 8327c4fd 93970701 93d70701  .....'..........
 10fd0 93f7f707 2317f4fc 0327c4fe 9307e00f  ....#....'......
 10fe0 63d8e700 b787ffff 93c707f8 6f008005  c...........o...
 10ff0 8327c4fe 6346f000 93070000 6f008004  .'..cF......o...
 11000 8327c4fe 93970701 93d70741 93977700  .'.........A..w.
 11010 13970701 13570741 b7870000 938707f8  .....W.A........
 11020 b377f700 13970701 13570741 8317e4fc  .w.......W.A....
 11030 b367f700 93970701 93d70741 93970701  .g.........A....
 11040 93d70701 13850700 8320c104 03248104  ......... ...$..
 11050 13010105 67800000 130101ff 23261100  ....g.......#&..
 11060 23248100 13040101 93070000 13850700  #$..............
 11070 8320c100 03248100 13010101 67800000  . ...$......g...
 11080 2a860145 93f61500 91c23295 85810606  *..E......2.....
 11090 f5f98280 0000                        ......          
Contents of section .riscv.attributes:
 0000 414f0000 00726973 63760001 45000000  AO...riscv..E...
 0010 04100572 76333269 3270315f 6d327030  ...rv32i2p1_m2p0
 0020 5f613270 315f6332 70305f7a 69637372  _a2p1_c2p0_zicsr
 0030 3270305f 7a6d6d75 6c317030 5f7a6161  2p0_zmmul1p0_zaa
 0040 6d6f3170 305f7a61 6c727363 31703000  mo1p0_zalrsc1p0.
Contents of section .comment:
 0000 4743433a 20287850 61636b20 474e5520  GCC: (xPack GNU 
 0010 52495343 2d562045 6d626564 64656420  RISC-V Embedded 
 0020 47434320 7838365f 36342920 31342e32  GCC x86_64) 14.2
 0030 2e3000                               .0.             
Contents of section .debug_line:
 0000 71000000 02001b00 00000101 fb0e0a00  q...............
 0010 01010101 00000001 00737461 72742e53  .........start.S
 0020 00000000 00000502 00000100 16030309  ................
 0030 08000103 01090800 01030209 08000103  ................
 0040 01090400 01030109 04000103 01090400  ................
 0050 01030409 04000103 03090400 01030109  ................
 0060 04000103 01090400 01030409 04000109  ................
 0070 04000001 012a0c00 00050004 003c0000  .....*.......<..
 0080 00010101 fb0e0d00 01010101 00000001  ................
 0090 00000101 011f0300 00000057 000000b7  ...........W....
 00a0 00000002 011f020f 04500000 00005000  .........P....P.
 00b0 00000013 01000001 24010000 02050100  ........$.......
 00c0 05023c00 01000311 01050f03 01091400  ..<.............
 00d0 01051503 00090400 01053803 00091000  ..........8.....
 00e0 01050e03 01090c00 01051403 00090400  ................
 00f0 01053800 02040103 7f090400 01000204  ..8.............
 0100 03060300 09040001 03000904 00010002  ................
 0110 04040300 09040001 00020406 03000904  ................
 0120 00010501 06030209 08000103 03091400  ................
 0130 01050f03 01091400 01051503 00090400  ................
 0140 01053803 00091000 01050f03 01090c00  ..8.............
 0150 01051503 00090400 01053800 02040103  ..........8.....
 0160 7f090400 01000204 03060300 09040001  ................
 0170 03000904 00010002 04040300 09040001  ................
 0180 00020406 03000904 00010501 06030209  ................
 0190 08000103 03091400 01050f03 01091400  ................
 01a0 01051503 00090400 01050c03 00091000  ................
 01b0 01050103 01090800 01030309 14000105  ................
 01c0 05030209 14000105 13030109 08000105  ................
 01d0 1a030009 08000105 08030009 04000105  ................
 01e0 2b030109 08000105 10030009 08000105  +...............
 01f0 1a030109 0c000105 21030009 08000105  ........!.......
 0200 0d030009 04000105 26030109 18000105  ........&.......
 0210 0c030009 08000105 01030109 08000103  ................
 0220 03091400 01052703 01091400 01052e03  ......'.........
 0230 00090400 01050e03 00090400 01050503  ................
 0240 02090400 01050c03 01090800 01050103  ................
 0250 01090400 01030309 14000105 19030109  ................
 0260 18000105 0e030009 04000105 19030109  ................
 0270 08000105 0e030009 04000105 18030109  ................
 0280 08000105 24030009 04000105 0d030009  ....$...........
 0290 14000105 18030109 08000105 24030009  ............$...
 02a0 04000105 0d030009 14000105 18030109  ................
 02b0 08000105 0e030009 04000105 18030109  ................
 02c0 08000105 0e030009 04000105 08030209  ................
 02d0 08000105 0c030109 0c000105 14030109  ................
 02e0 08000105 0c030109 08000105 35030109  ............5...
 02f0 0c000105 1c000204 01030009 08000105  ................
 0300 35000204 03030009 0c000106 03000908  5...............
 0310 00010002 04040300 09040001 03000904  ................
 0320 00010510 06030109 04000105 08030209  ................
 0330 08000105 10030109 0c000105 08030109  ................
 0340 08000105 10000204 01030009 08000103  ................
 0350 01090800 01050803 01090800 01051000  ................
 0360 02040103 00090800 01030109 08000105  ................
 0370 08030109 08000105 10030109 08000105  ................
 0380 08030109 0c000105 10030109 08000105  ................
 0390 1e030209 0c000105 0d030009 14000105  ................
 03a0 08030509 04000105 14030109 08000105  ................
 03b0 0c030109 08000105 14030109 0c000105  ................
 03c0 10030109 08000105 0f030109 14000105  ................
 03d0 14030109 08000105 0c030109 08000105  ................
 03e0 14030109 0c000105 10030109 08000105  ................
 03f0 14030009 04000105 10030009 08000105  ................
 0400 14030209 0c000105 08030309 08000105  ................
 0410 15030109 0c000105 17030109 08000105  ................
 0420 29030009 04000105 15030009 04000105  )...............
 0430 19030209 08000105 0c030009 08000105  ................
 0440 19030109 04000105 11030109 0c000105  ................
 0450 10030009 10000105 3e030109 10000105  ........>.......
 0460 0c030309 30000105 19030109 0c000105  ....0...........
 0470 22030109 08000105 19030009 0c000103  "...............
 0480 02090800 01052203 01090800 01051903  ......".........
 0490 00090c00 01050c03 03090400 01051403  ................
 04a0 01090800 01051903 02090800 01051103  ................
 04b0 01090c00 01051003 00091000 01051803  ................
 04c0 01090c00 01051e03 7d090800 01051003  ........}.......
 04d0 00090800 01052503 08090400 01053c03  ......%.......<.
 04e0 00091000 01052503 00092400 01051e03  ......%...$.....
 04f0 01091400 01054203 7f091800 01050103  ......B.........
 0500 03090c00 01030309 14000105 06030109  ................
 0510 18000105 0c030009 04000103 01091400  ................
 0520 01050103 01091800 01030309 14000105  ................
 0530 19030109 18000105 0e030009 04000105  ................
 0540 19030109 08000105 0e030009 04000105  ................
 0550 18030109 08000105 24030009 04000105  ........$.......
 0560 0d030009 14000105 18030109 08000105  ................
 0570 24030009 04000105 0d030009 14000105  $...............
 0580 18030109 08000105 0e030009 04000105  ................
 0590 18030109 08000105 0e030009 04000103  ................
 05a0 02090800 01050803 02091400 01050c03  ................
 05b0 01090c00 01051403 01090800 01050c03  ................
 05c0 01090800 01051400 02040103 00090800  ................
 05d0 01030109 08000105 36030109 0c000105  ........6.......
 05e0 10030009 2c000105 08030209 04000105  ....,...........
 05f0 0c030109 0c000105 14030109 08000105  ................
 0600 0c030109 08000105 14000204 01030009  ................
 0610 08000103 01090800 01053603 01090c00  ..........6.....
 0620 01051003 00092c00 01050803 02090400  ......,.........
 0630 01051100 02040103 00090800 01051d00  ................
 0640 02040303 00090800 01052800 02040403  ..........(.....
 0650 00090800 01052e03 01090800 01050d03  ................
 0660 02091400 01050803 01090400 01050f03  ................
 0670 01090800 01051403 01090400 01051703  ................
 0680 01090c00 01051903 7e091c00 01051003  ........~.......
 0690 00090800 01050f03 04090400 01051003  ................
 06a0 02090c00 01050803 01090c00 01050f03  ................
 06b0 01090800 01051403 01090400 01051703  ................
 06c0 01090c00 01051903 7e091c00 01051003  ........~.......
 06d0 00090800 01050f03 04090400 01051003  ................
 06e0 02090c00 01051c03 02090c00 01052e03  ................
 06f0 00090400 01050e03 00090400 01051a03  ................
 0700 02091400 01052a03 00090400 01053203  ......*.......2.
 0710 00090800 01054203 00090400 01050d03  ......B.........
 0720 00090400 01051503 02090800 01050803  ................
 0730 00090c00 01052403 01090400 01051503  ......$.........
 0740 00090800 01051303 01090800 01052403  ..............$.
 0750 02091000 01051503 00090800 01050803  ................
 0760 02090800 01053603 01090c00 01050803  ......6.........
 0770 01093000 01050c03 01090800 01053203  ..0...........2.
 0780 01090c00 01051c03 01091400 01051503  ................
 0790 00090c00 01051403 01090c00 01053203  ..............2.
 07a0 03090400 01054903 00091000 01053203  ......I.......2.
 07b0 00092c00 01052b03 01091400 01054f03  ..,...+.......O.
 07c0 7f091800 01050103 02090c00 01030309  ................
 07d0 14000105 19030109 18000105 0e030009  ................
 07e0 04000105 19030109 08000105 0e030009  ................
 07f0 04000105 18030109 08000105 24030009  ............$...
 0800 04000105 0d030009 14000105 18030109  ................
 0810 08000105 24030009 04000105 0d030009  ....$...........
 0820 14000105 18030109 08000105 0e030009  ................
 0830 04000105 18030109 08000105 0e030009  ................
 0840 04000103 02090800 01050803 02091400  ................
 0850 01050c03 01090c00 01051403 01090800  ................
 0860 01050c03 02090800 01051b00 02040103  ................
 0870 00090c00 01051403 01090800 01052e03  ................
 0880 01090c00 01051003 00091000 01050803  ................
 0890 02090400 01051000 02040103 00090800  ................
 08a0 01050c03 01090800 01051400 02040103  ................
 08b0 00090800 01030109 08000105 36030109  ............6...
 08c0 0c000105 10030009 2c000105 08030209  ........,.......
 08d0 04000105 0c030109 0c000105 14030109  ................
 08e0 08000105 36030109 08000105 10030009  ....6...........
 08f0 2c000105 08030209 04000105 10000204  ,...............
 0900 01030009 08000105 2e030109 08000105  ................
 0910 08030209 14000105 10030109 08000105  ................
 0920 08030109 0c000105 10030109 08000105  ................
 0930 19030209 0c000105 0e030009 04000103  ................
 0940 01090800 01030109 08000103 02090400  ................
 0950 01050503 00090400 01051203 01090400  ................
 0960 01052903 01090c00 01052203 00090c00  ..).......".....
 0970 01050c03 00090800 01052903 01090800  ..........).....
 0980 01052203 00090c00 01051603 00090800  ..".............
 0990 01030109 0c000105 1e000204 02037c09  ..............|.
 09a0 0c000105 17000204 01030009 0c000105  ................
 09b0 1a030809 0c000105 2a030009 04000105  ........*.......
 09c0 0d030009 08000105 08030209 08000105  ................
 09d0 13030109 08000105 08030109 0c000105  ................
 09e0 13030109 08000105 12030209 0c000105  ................
 09f0 08030009 0c000105 12030109 04000105  ................
 0a00 16030309 10000105 17030109 0c000105  ................
 0a10 1b037e09 0c000105 25030009 0c000100  ..~.....%.......
 0a20 02040106 03000904 00010512 06030409  ................
 0a30 0c000105 0e030209 0c000105 08030209  ................
 0a40 0c000105 36030109 0c000105 08030109  ....6...........
 0a50 30000105 2e030109 08000105 32030109  0...........2...
 0a60 14000105 49030009 10000105 32030009  ....I.......2...
 0a70 2c000105 28030109 14000105 4f037f09  ,...(.......O...
 0a80 18000105 01030209 0c000103 03091400  ................
 0a90 01051703 01091400 01050e03 00090400  ................
 0aa0 01051603 01090800 01052203 00090400  ..........".....
 0ab0 01050d03 00091400 01051603 01090800  ................
 0ac0 01050e03 00090400 01050803 03090800  ................
 0ad0 01050c03 01090c00 01051403 01090800  ................
 0ae0 01050c03 01090800 01051403 01090800  ................
 0af0 01051003 01090c00 01050803 04090800  ................
 0b00 01050e00 02040103 00090800 01051003  ................
 0b10 01090800 01050803 03090800 01051003  ................
 0b20 01090800 01050803 03090c00 01051003  ................
 0b30 01090800 01051503 04090800 01050d03  ................
 0b40 00090400 01051703 04090800 01050e03  ................
 0b50 00091000 01050b03 03090400 01050803  ................
 0b60 00090800 01050b03 01090400 01051703  ................
 0b70 01090c00 01051c03 00090800 01051103  ................
 0b80 00090400 01051603 02090c00 01051103  ................
 0b90 00090800 01050e03 07090800 01030109  ................
 0ba0 08000103 01090800 01050b03 03090800  ................
 0bb0 01051d03 01090400 01051203 00090c00  ................
 0bc0 01051c03 01090800 01051203 00091000  ................
 0bd0 01050c03 02090800 01051403 01090c00  ................
 0be0 01051103 01090800 01051203 02091000  ................
 0bf0 01051003 78090c00 01050803 11090c00  ....x...........
 0c00 01051003 01090c00 01030109 0c000105  ................
 0c10 0f030109 10000103 01090c00 01051403  ................
 0c20 01090400 01030109 0c000105 1d037e09  ..............~.
 0c30 0c000100 02040106 0300090c 00010520  ............... 
 0c40 06030709 0c000105 0e030009 0c000105  ................
 0c50 08030309 08000105 10030109 0c000105  ................
 0c60 08030109 0c000105 10030109 08000105  ................
 0c70 30030209 08000105 36030009 2c000105  0.......6...,...
 0c80 01030109 18000103 03091400 01050c03  ................
 0c90 01091000 01050103 01090400 01091400  ................
 0ca0 000101                               ...             
Contents of section .debug_info:
 0000 31000000 02000000 00000401 00000000  1...............
 0010 00000100 3c000100 00000000 08000000  ....<...........
 0020 58000000 01800266 00000001 00000100  X......f........
 0030 40000100 007d0500 00050001 04210000  @....}.......!..
 0040 000a0502 00001d50 00000000 0000003c  .......P.......<
 0050 00010044 10000075 00000002 0106b701  ...D...u........
 0060 00000201 08b50100 00040201 00000237  ...............7
 0070 18400000 00020205 cf010000 04eb0100  .@..............
 0080 00023919 53000000 02020733 01000004  ..9.S......3....
 0090 f6010000 024d1866 00000002 0405c200  .....M.f........
 00a0 000004f7 00000002 4f197900 00000204  ........O.y.....
 00b0 07ab0000 00020805 bd000000 020807a6  ................
 00c0 0000000b 0405696e 74000204 07b00000  ......int.......
 00d0 00040401 00000320 13340000 0004ed01  ....... .4......
 00e0 00000324 14470000 0004f801 0000032c  ...$.G.........,
 00f0 135a0000 0004f900 00000330 146d0000  .Z.........0.m..
 0100 00021004 8a010000 020108be 0100000c  ................
 0110 02010509 f1000000 0d2e0100 0001060e  ................
 0120 a8000000 00000496 00000001 0703da00  ................
 0130 00000e4a 02000001 7401058e 00000058  ...J....t......X
 0140 10010028 00000001 9c0f0c01 00000119  ...(............
 0150 0108f100 0000b80d 0100a002 0000019c  ................
 0160 f8010000 10610001 190119f1 00000003  .....a..........
 0170 91bc7f05 85010000 1b010ea8 00000002  ................
 0180 915a0665 7870001c 010d9c00 00000291  .Z.exp..........
 0190 58059100 00001d01 0ea80000 00029156  X..............V
 01a0 06650036 010db400 00000291 5005ad01  .e.6........P...
 01b0 00003701 0db40000 0002916c 066d003a  ..7........l.m.:
 01c0 010ec000 00000291 68066c6f 77004801  ........h.low.H.
 01d0 0ec00000 00029164 05000200 0049010e  .......d.....I..
 01e0 c0000000 02916005 4f020000 4a010ec0  ......`.O...J...
 01f0 00000002 915c059d 00000069 010ea800  .....\.....i....
 0200 00000291 4e08f40e 01005c00 0000066d  ....N.....\....m
 0210 6964004e 0112c000 00000291 48067371  id.N........H.sq
 0220 004f0112 c0000000 02914400 00071601  .O........D.....
 0230 0000ce08 f1000000 c4090100 f4030000  ................
 0240 019cdd02 00000361 00ce18f1 00000003  .......a........
 0250 91bc7f03 6200ce22 f1000000 0391b87f  ....b.."........
 0260 01670100 00d00ea8 00000002 915a016e  .g...........Z.n
 0270 010000d1 0ea80000 00029158 01cb0000  ...........X....
 0280 00d20d9c 00000002 915601d1 000000d3  .........V......
 0290 0d9c0000 00029154 01d70000 00d40ea8  .......T........
 02a0 00000002 916e01de 000000d5 0ea80000  .....n..........
 02b0 0002916c 017e0100 00d70ea8 00000002  ...l.~..........
 02c0 915201ee 000000f3 0ec00000 00029168  .R.............h
 02d0 01960100 00f40ec0 00000002 914c0181  .............L..
 02e0 000000f5 0ec00000 00029164 01460100  ...........d.F..
 02f0 00ff0db4 00000002 915c08bc 0b010074  .........\.....t
 0300 00000011 690001f7 0e8e0000 00029160  ....i..........`
 0310 000009e5 00000089 f1000000 f0050100  ................
 0320 d4030000 019c9a03 00000361 008918f1  ...........a....
 0330 00000002 914c0362 008922f1 00000002  .....L.b..".....
 0340 91480167 0100008b 0ea80000 0002915a  .H.g...........Z
 0350 016e0100 008c0ea8 00000002 915801cb  .n...........X..
 0360 0000008d 0d9c0000 0002916e 01d10000  ...........n....
 0370 008e0d9c 00000002 916c01d7 0000008f  .........l......
 0380 0ea80000 0002916a 01de0000 00900ea8  .......j........
 0390 00000002 9168017e 01000092 0ea80000  .....h.~........
 03a0 00029156 01510100 00a50d9c 00000002  ...V.Q..........
 03b0 9166018a 000000b7 0ec00000 00029160  .f.............`
 03c0 01460100 00b90db4 00000002 915c0009  .F...........\..
 03d0 78000000 83f10000 00940501 005c0000  x............\..
 03e0 00019ccb 03000003 61008318 f1000000  ........a.......
 03f0 02916c03 62008322 f1000000 02916800  ..l.b.."......h.
 0400 07750100 003408f1 0000001c 02010078  .u...4.........x
 0410 03000001 9c890400 00036100 3418f100  ..........a.4...
 0420 00000291 4c036200 3422f100 00000291  ....L.b.4"......
 0430 48016701 0000360e a8000000 02916201  H.g...6.......b.
 0440 6e010000 370ea800 00000291 6001cb00  n...7.......`...
 0450 0000380d 9c000000 02915e01 d1000000  ..8.......^.....
 0460 390d9c00 00000291 5c01d700 00003a0e  9.......\.....:.
 0470 a8000000 02916e01 de000000 3b0ea800  ......n.....;...
 0480 00000291 6c01a401 00004f0d 9c000000  ....l.....O.....
 0490 02915a01 7e010000 500ea800 00000291  ..Z.~...P.......
 04a0 6a014601 0000510d 9c000000 02916801  j.F...Q.......h.
 04b0 8a000000 520ec000 00000291 640007d9  ....R.......d...
 04c0 0100002c 07cd0400 00dc0101 00400000  ...,.........@..
 04d0 00019ccd 04000003 76616c00 2c1af100  ........val.,...
 04e0 00000291 5c012b01 00002e0e c0000000  ....\.+.........
 04f0 02916c01 4f020000 2f0bcd04 00000291  ..l.O.../.......
 0500 68000204 049e0100 0007c301 00002208  h.............".
 0510 f1000000 50010100 8c000000 019c0a05  ....P...........
 0520 00000376 616c0022 1acd0400 0002915c  ...val.".......\
 0530 012b0100 00240ec0 00000002 916c0007  .+...$.......l..
 0540 1f010000 1d063005 00000c01 01004400  ......0.......D.
 0550 0000019c 30050000 0361001d 19f10000  ....0....a......
 0560 0002916c 00020102 e5010000 076d0000  ...l.........m..
 0570 00170630 050000a4 00010068 00000001  ...0.......h....
 0580 9c5d0500 00036100 1718f100 00000291  .]....a.........
 0590 6c00125c 01000001 11063005 00003c00  l..\......0...<.
 05a0 01006800 0000019c 03610011 18f10000  ..h......a......
 05b0 0002916c 0000                        ...l..          
Contents of section .debug_abbrev:
 0000 01110110 06110112 01030e1b 0e250e13  .............%..
 0010 05000002 2e00030e 3f0c1101 12010000  ........?.......
 0020 00013400 030e3a21 013b0b39 0b491302  ..4...:!.;.9.I..
 0030 18000002 24000b0b 3e0b030e 00000305  ....$...>.......
 0040 0003083a 21013b0b 390b4913 02180000  ...:!.;.9.I.....
 0050 04160003 0e3a0b3b 0b390b49 13000005  .....:.;.9.I....
 0060 3400030e 3a21013b 05390b49 13021800  4...:!.;.9.I....
 0070 00063400 03083a21 013b0539 0b491302  ..4...:!.;.9.I..
 0080 18000007 2e013f19 030e3a21 013b0b39  ......?...:!.;.9
 0090 0b271949 13110112 0640187a 19011300  .'.I.....@.z....
 00a0 00080b01 11011206 0000092e 013f1903  .............?..
 00b0 0e3a2101 3b0b3921 08271949 13110112  .:!.;.9!.'.I....
 00c0 0640187c 19011300 000a1101 250e130b  .@.|........%...
 00d0 031f1b1f 11011206 10170000 0b24000b  .............$..
 00e0 0b3e0b03 0800000c 13010b0b 3a0b3b0b  .>..........:.;.
 00f0 390b0113 00000d0d 00030e3a 0b3b0b39  9..........:.;.9
 0100 0b491338 0b00000e 2e003f19 030e3a0b  .I.8......?...:.
 0110 3b05390b 27194913 11011206 40187a19  ;.9.'.I.....@.z.
 0120 00000f2e 013f1903 0e3a0b3b 05390b27  .....?...:.;.9.'
 0130 19491311 01120640 187c1901 13000010  .I.....@.|......
 0140 05000308 3a0b3b05 390b4913 02180000  ....:.;.9.I.....
 0150 11340003 083a0b3b 0b390b49 13021800  .4...:.;.9.I....
 0160 00122e01 3f19030e 3a0b3b0b 390b2719  ....?...:.;.9.'.
 0170 49131101 12064018 7a190000 00        I.....@.z....   
Contents of section .debug_aranges:
 0000 1c000000 02000000 00000400 00000000  ................
 0010 00000100 3c000000 00000000 00000000  ....<...........
 0020 1c000000 02003500 00000400 00000000  ......5.........
 0030 3c000100 44100000 00000000 00000000  <...D...........
Contents of section .debug_str:
 0000 73746172 742e5300 2f686f6d 652f6766  start.S./home/gf
 0010 6667332f 72697363 762d6e6f 6e652d65  fg3/riscv-none-e
 0020 6c662d67 63632f72 76333265 6d753031  lf-gcc/rv32emu01
 0030 30322f72 76333265 6d752f74 65737473  02/rv32emu/tests
 0040 2f737973 74656d2f 7175697a 315f7072  /system/quiz1_pr
 0050 6f626c65 6d5f6300 474e5520 41532032  oblem_c.GNU AS 2
 0060 2e34332e 31005f73 74617274 00626631  .43.1._start.bf1
 0070 365f6973 696e6600 62663136 5f737562  6_isinf.bf16_sub
 0080 0071756f 7469656e 74007265 73756c74  .quotient.result
 0090 5f6d616e 74006266 31365f74 006e6577  _mant.bf16_t.new
 00a0 5f6d616e 74006c6f 6e67206c 6f6e6720  _mant.long long 
 00b0 756e7369 676e6564 20696e74 006c6f6e  unsigned int.lon
 00c0 67206c6f 6e672069 6e740065 78705f61  g long int.exp_a
 00d0 00657870 5f62006d 616e745f 61006d61  .exp_b.mant_a.ma
 00e0 6e745f62 00626631 365f6d75 6c006469  nt_b.bf16_mul.di
 00f0 76696465 6e64005f 5f75696e 7433325f  vidend.__uint32_
 0100 74005f5f 696e7431 365f7400 62663136  t.__int16_t.bf16
 0110 5f737172 74006266 31365f64 69760062  _sqrt.bf16_div.b
 0120 6631365f 69737a65 726f0066 33326269  f16_iszero.f32bi
 0130 74730073 686f7274 20756e73 69676e65  ts.short unsigne
 0140 6420696e 74007265 73756c74 5f657870  d int.result_exp
 0150 00657870 5f61646a 75737400 62663136  .exp_adjust.bf16
 0160 5f69736e 616e0073 69676e5f 61007369  _isnan.sign_a.si
 0170 676e5f62 00626631 365f6164 64007265  gn_b.bf16_add.re
 0180 73756c74 5f736967 6e006c6f 6e672064  sult_sign.long d
 0190 6f75626c 65006469 7669736f 7200666c  ouble.divisor.fl
 01a0 6f617400 6578705f 64696666 006e6577  oat.exp_diff.new
 01b0 5f657870 00756e73 69676e65 64206368  _exp.unsigned ch
 01c0 61720066 33325f74 6f5f6266 31360073  ar.f32_to_bf16.s
 01d0 686f7274 20696e74 00626631 365f746f  hort int.bf16_to
 01e0 5f663332 005f426f 6f6c005f 5f75696e  _f32._Bool.__uin
 01f0 7431365f 74005f5f 696e7433 325f7400  t16_t.__int32_t.
 0200 68696768 00474e55 20433137 2031342e  high.GNU C17 14.
 0210 322e3020 2d6d6162 693d696c 70333220  2.0 -mabi=ilp32 
 0220 2d6d6973 612d7370 65633d32 30313931  -misa-spec=20191
 0230 32313320 2d6d6172 63683d72 76333269  213 -march=rv32i
 0240 5f7a6963 7372202d 67006d61 696e0072  _zicsr -g.main.r
 0250 6573756c 7400                        esult.          
Contents of section .debug_line_str:
 0000 2f686f6d 652f6766 6667332f 72697363  /home/gffg3/risc
 0010 762d6e6f 6e652d65 6c662d67 63632f72  v-none-elf-gcc/r
 0020 76333265 6d753031 30322f72 76333265  v32emu0102/rv32e
 0030 6d752f74 65737473 2f737973 74656d2f  mu/tests/system/
 0040 7175697a 315f7072 6f626c65 6d5f6300  quiz1_problem_c.
 0050 6d61696e 2e63002f 686f6d65 2f676666  main.c./home/gff
 0060 67332f72 69736376 2d6e6f6e 652d656c  g3/riscv-none-el
 0070 662d6763 632f7870 61636b2d 72697363  f-gcc/xpack-risc
 0080 762d6e6f 6e652d65 6c662d67 63632d31  v-none-elf-gcc-1
 0090 342e322e 302d332f 72697363 762d6e6f  4.2.0-3/riscv-no
 00a0 6e652d65 6c662f69 6e636c75 64652f6d  ne-elf/include/m
 00b0 61636869 6e65002f 686f6d65 2f676666  achine./home/gff
 00c0 67332f72 69736376 2d6e6f6e 652d656c  g3/riscv-none-el
 00d0 662d6763 632f7870 61636b2d 72697363  f-gcc/xpack-risc
 00e0 762d6e6f 6e652d65 6c662d67 63632d31  v-none-elf-gcc-1
 00f0 342e322e 302d332f 72697363 762d6e6f  4.2.0-3/riscv-no
 0100 6e652d65 6c662f69 6e636c75 64652f73  ne-elf/include/s
 0110 7973005f 64656661 756c745f 74797065  ys._default_type
 0120 732e6800 5f737464 696e742e 6800      s.h._stdint.h.  
Contents of section .debug_frame:
 0000 0c000000 ffffffff 0300017c 010c0200  ...........|....
 0010 24000000 00000000 3c000100 68000000  $.......<...h...
 0020 440e2048 81018802 440c0800 024cc144  D. H....D....L.D
 0030 c80c0220 440e0000 24000000 00000000  ... D...$.......
 0040 a4000100 68000000 440e2048 81018802  ....h...D. H....
 0050 440c0800 024cc144 c80c0220 440e0000  D....L.D... D...
 0060 24000000 00000000 0c010100 44000000  $...........D...
 0070 440e2048 81018802 440c0800 68c144c8  D. H....D...h.D.
 0080 0c022044 0e000000 24000000 00000000  .. D....$.......
 0090 50010100 8c000000 440e3048 81018802  P.......D.0H....
 00a0 440c0800 0270c144 c80c0230 440e0000  D....p.D...0D...
 00b0 24000000 00000000 dc010100 40000000  $...........@...
 00c0 440e3048 81018802 440c0800 64c144c8  D.0H....D...d.D.
 00d0 0c023044 0e000000 24000000 00000000  ..0D....$.......
 00e0 1c020100 78030000 440e4048 81018802  ....x...D.@H....
 00f0 440c0800 035c03c1 44c80c02 40440e00  D....\..D...@D..
 0100 24000000 00000000 94050100 5c000000  $...........\...
 0110 440e2048 81018802 440c0800 0240c144  D. H....D....@.D
 0120 c80c0220 440e0000 24000000 00000000  ... D...$.......
 0130 f0050100 d4030000 440e4048 81018802  ........D.@H....
 0140 440c0800 03b803c1 44c80c02 40440e00  D.......D...@D..
 0150 24000000 00000000 c4090100 f4030000  $...............
 0160 440e5048 81018802 440c0800 03d803c1  D.PH....D.......
 0170 44c80c02 50440e00 24000000 00000000  D...PD..$.......
 0180 b80d0100 a0020000 440e5048 81018802  ........D.PH....
 0190 440c0800 038402c1 44c80c02 50440e00  D.......D...PD..
 01a0 24000000 00000000 58100100 28000000  $.......X...(...
 01b0 440e1048 81018802 440c0800 4cc144c8  D..H....D...L.D.
 01c0 0c021044 0e000000                    ...D....        

Disassembly of section .text:

00010000 <_start>:
   10000:	00002117          	auipc	sp,0x2
   10004:	0a010113          	addi	sp,sp,160 # 120a0 <__stack_top>
   10008:	00001297          	auipc	t0,0x1
   1000c:	08e28293          	addi	t0,t0,142 # 11096 <__bss_end>
   10010:	00001317          	auipc	t1,0x1
   10014:	08630313          	addi	t1,t1,134 # 11096 <__bss_end>
   10018:	0062d863          	bge	t0,t1,10028 <_start+0x28>
   1001c:	0002a023          	sw	zero,0(t0)
   10020:	00428293          	addi	t0,t0,4
   10024:	ff5ff06f          	j	10018 <_start+0x18>
   10028:	030010ef          	jal	11058 <main>
   1002c:	05d00893          	li	a7,93
   10030:	00000513          	li	a0,0
   10034:	00000073          	ecall
   10038:	0000006f          	j	10038 <_start+0x38>

0001003c <bf16_isnan>:
   1003c:	fe010113          	addi	sp,sp,-32
   10040:	00112e23          	sw	ra,28(sp)
   10044:	00812c23          	sw	s0,24(sp)
   10048:	02010413          	addi	s0,sp,32
   1004c:	fea41623          	sh	a0,-20(s0)
   10050:	fec45783          	lhu	a5,-20(s0)
   10054:	00078713          	mv	a4,a5
   10058:	000087b7          	lui	a5,0x8
   1005c:	f8078793          	addi	a5,a5,-128 # 7f80 <_start-0x8080>
   10060:	00f77733          	and	a4,a4,a5
   10064:	000087b7          	lui	a5,0x8
   10068:	f8078793          	addi	a5,a5,-128 # 7f80 <_start-0x8080>
   1006c:	00f71c63          	bne	a4,a5,10084 <bf16_isnan+0x48>
   10070:	fec45783          	lhu	a5,-20(s0)
   10074:	07f7f793          	andi	a5,a5,127
   10078:	00078663          	beqz	a5,10084 <bf16_isnan+0x48>
   1007c:	00100793          	li	a5,1
   10080:	0080006f          	j	10088 <bf16_isnan+0x4c>
   10084:	00000793          	li	a5,0
   10088:	0017f793          	andi	a5,a5,1
   1008c:	0ff7f793          	zext.b	a5,a5
   10090:	00078513          	mv	a0,a5
   10094:	01c12083          	lw	ra,28(sp)
   10098:	01812403          	lw	s0,24(sp)
   1009c:	02010113          	addi	sp,sp,32
   100a0:	00008067          	ret

000100a4 <bf16_isinf>:
   100a4:	fe010113          	addi	sp,sp,-32
   100a8:	00112e23          	sw	ra,28(sp)
   100ac:	00812c23          	sw	s0,24(sp)
   100b0:	02010413          	addi	s0,sp,32
   100b4:	fea41623          	sh	a0,-20(s0)
   100b8:	fec45783          	lhu	a5,-20(s0)
   100bc:	00078713          	mv	a4,a5
   100c0:	000087b7          	lui	a5,0x8
   100c4:	f8078793          	addi	a5,a5,-128 # 7f80 <_start-0x8080>
   100c8:	00f77733          	and	a4,a4,a5
   100cc:	000087b7          	lui	a5,0x8
   100d0:	f8078793          	addi	a5,a5,-128 # 7f80 <_start-0x8080>
   100d4:	00f71c63          	bne	a4,a5,100ec <bf16_isinf+0x48>
   100d8:	fec45783          	lhu	a5,-20(s0)
   100dc:	07f7f793          	andi	a5,a5,127
   100e0:	00079663          	bnez	a5,100ec <bf16_isinf+0x48>
   100e4:	00100793          	li	a5,1
   100e8:	0080006f          	j	100f0 <bf16_isinf+0x4c>
   100ec:	00000793          	li	a5,0
   100f0:	0017f793          	andi	a5,a5,1
   100f4:	0ff7f793          	zext.b	a5,a5
   100f8:	00078513          	mv	a0,a5
   100fc:	01c12083          	lw	ra,28(sp)
   10100:	01812403          	lw	s0,24(sp)
   10104:	02010113          	addi	sp,sp,32
   10108:	00008067          	ret

0001010c <bf16_iszero>:
   1010c:	fe010113          	addi	sp,sp,-32
   10110:	00112e23          	sw	ra,28(sp)
   10114:	00812c23          	sw	s0,24(sp)
   10118:	02010413          	addi	s0,sp,32
   1011c:	fea41623          	sh	a0,-20(s0)
   10120:	fec45783          	lhu	a5,-20(s0)
   10124:	00078713          	mv	a4,a5
   10128:	000087b7          	lui	a5,0x8
   1012c:	fff78793          	addi	a5,a5,-1 # 7fff <_start-0x8001>
   10130:	00f777b3          	and	a5,a4,a5
   10134:	0017b793          	seqz	a5,a5
   10138:	0ff7f793          	zext.b	a5,a5
   1013c:	00078513          	mv	a0,a5
   10140:	01c12083          	lw	ra,28(sp)
   10144:	01812403          	lw	s0,24(sp)
   10148:	02010113          	addi	sp,sp,32
   1014c:	00008067          	ret

00010150 <f32_to_bf16>:
   10150:	fd010113          	addi	sp,sp,-48
   10154:	02112623          	sw	ra,44(sp)
   10158:	02812423          	sw	s0,40(sp)
   1015c:	03010413          	addi	s0,sp,48
   10160:	fca42e23          	sw	a0,-36(s0)
   10164:	fdc42783          	lw	a5,-36(s0)
   10168:	fef42623          	sw	a5,-20(s0)
   1016c:	fec42783          	lw	a5,-20(s0)
   10170:	0177d793          	srli	a5,a5,0x17
   10174:	0ff7f713          	zext.b	a4,a5
   10178:	0ff00793          	li	a5,255
   1017c:	00f71c63          	bne	a4,a5,10194 <f32_to_bf16+0x44>
   10180:	fec42783          	lw	a5,-20(s0)
   10184:	0107d793          	srli	a5,a5,0x10
   10188:	01079793          	slli	a5,a5,0x10
   1018c:	0107d793          	srli	a5,a5,0x10
   10190:	0380006f          	j	101c8 <f32_to_bf16+0x78>
   10194:	fec42783          	lw	a5,-20(s0)
   10198:	0107d793          	srli	a5,a5,0x10
   1019c:	0017f713          	andi	a4,a5,1
   101a0:	fec42783          	lw	a5,-20(s0)
   101a4:	00f70733          	add	a4,a4,a5
   101a8:	000087b7          	lui	a5,0x8
   101ac:	fff78793          	addi	a5,a5,-1 # 7fff <_start-0x8001>
   101b0:	00f707b3          	add	a5,a4,a5
   101b4:	fef42623          	sw	a5,-20(s0)
   101b8:	fec42783          	lw	a5,-20(s0)
   101bc:	0107d793          	srli	a5,a5,0x10
   101c0:	01079793          	slli	a5,a5,0x10
   101c4:	0107d793          	srli	a5,a5,0x10
   101c8:	00078513          	mv	a0,a5
   101cc:	02c12083          	lw	ra,44(sp)
   101d0:	02812403          	lw	s0,40(sp)
   101d4:	03010113          	addi	sp,sp,48
   101d8:	00008067          	ret

000101dc <bf16_to_f32>:
   101dc:	fd010113          	addi	sp,sp,-48
   101e0:	02112623          	sw	ra,44(sp)
   101e4:	02812423          	sw	s0,40(sp)
   101e8:	03010413          	addi	s0,sp,48
   101ec:	fca41e23          	sh	a0,-36(s0)
   101f0:	fdc45783          	lhu	a5,-36(s0)
   101f4:	01079793          	slli	a5,a5,0x10
   101f8:	fef42623          	sw	a5,-20(s0)
   101fc:	fec42783          	lw	a5,-20(s0)
   10200:	fef42423          	sw	a5,-24(s0)
   10204:	fe842783          	lw	a5,-24(s0)
   10208:	00078513          	mv	a0,a5
   1020c:	02c12083          	lw	ra,44(sp)
   10210:	02812403          	lw	s0,40(sp)
   10214:	03010113          	addi	sp,sp,48
   10218:	00008067          	ret

0001021c <bf16_add>:
   1021c:	fc010113          	addi	sp,sp,-64
   10220:	02112e23          	sw	ra,60(sp)
   10224:	02812c23          	sw	s0,56(sp)
   10228:	04010413          	addi	s0,sp,64
   1022c:	fca41623          	sh	a0,-52(s0)
   10230:	fcb41423          	sh	a1,-56(s0)
   10234:	fcc45783          	lhu	a5,-52(s0)
   10238:	00f7d793          	srli	a5,a5,0xf
   1023c:	fef41123          	sh	a5,-30(s0)
   10240:	fc845783          	lhu	a5,-56(s0)
   10244:	00f7d793          	srli	a5,a5,0xf
   10248:	fef41023          	sh	a5,-32(s0)
   1024c:	fcc45783          	lhu	a5,-52(s0)
   10250:	0077d793          	srli	a5,a5,0x7
   10254:	01079793          	slli	a5,a5,0x10
   10258:	0107d793          	srli	a5,a5,0x10
   1025c:	01079793          	slli	a5,a5,0x10
   10260:	4107d793          	srai	a5,a5,0x10
   10264:	0ff7f793          	zext.b	a5,a5
   10268:	fcf41f23          	sh	a5,-34(s0)
   1026c:	fc845783          	lhu	a5,-56(s0)
   10270:	0077d793          	srli	a5,a5,0x7
   10274:	01079793          	slli	a5,a5,0x10
   10278:	0107d793          	srli	a5,a5,0x10
   1027c:	01079793          	slli	a5,a5,0x10
   10280:	4107d793          	srai	a5,a5,0x10
   10284:	0ff7f793          	zext.b	a5,a5
   10288:	fcf41e23          	sh	a5,-36(s0)
   1028c:	fcc45783          	lhu	a5,-52(s0)
   10290:	07f7f793          	andi	a5,a5,127
   10294:	fef41723          	sh	a5,-18(s0)
   10298:	fc845783          	lhu	a5,-56(s0)
   1029c:	07f7f793          	andi	a5,a5,127
   102a0:	fef41623          	sh	a5,-20(s0)
   102a4:	fde41703          	lh	a4,-34(s0)
   102a8:	0ff00793          	li	a5,255
   102ac:	04f71863          	bne	a4,a5,102fc <bf16_add+0xe0>
   102b0:	fee45783          	lhu	a5,-18(s0)
   102b4:	00078663          	beqz	a5,102c0 <bf16_add+0xa4>
   102b8:	fcc45783          	lhu	a5,-52(s0)
   102bc:	2c40006f          	j	10580 <bf16_add+0x364>
   102c0:	fdc41703          	lh	a4,-36(s0)
   102c4:	0ff00793          	li	a5,255
   102c8:	02f71663          	bne	a4,a5,102f4 <bf16_add+0xd8>
   102cc:	fec45783          	lhu	a5,-20(s0)
   102d0:	00079e63          	bnez	a5,102ec <bf16_add+0xd0>
   102d4:	fe245703          	lhu	a4,-30(s0)
   102d8:	fe045783          	lhu	a5,-32(s0)
   102dc:	00f70863          	beq	a4,a5,102ec <bf16_add+0xd0>
   102e0:	ffff87b7          	lui	a5,0xffff8
   102e4:	fc07c793          	xori	a5,a5,-64
   102e8:	2980006f          	j	10580 <bf16_add+0x364>
   102ec:	fc845783          	lhu	a5,-56(s0)
   102f0:	2900006f          	j	10580 <bf16_add+0x364>
   102f4:	fcc45783          	lhu	a5,-52(s0)
   102f8:	2880006f          	j	10580 <bf16_add+0x364>
   102fc:	fdc41703          	lh	a4,-36(s0)
   10300:	0ff00793          	li	a5,255
   10304:	00f71663          	bne	a4,a5,10310 <bf16_add+0xf4>
   10308:	fc845783          	lhu	a5,-56(s0)
   1030c:	2740006f          	j	10580 <bf16_add+0x364>
   10310:	fde41783          	lh	a5,-34(s0)
   10314:	00079a63          	bnez	a5,10328 <bf16_add+0x10c>
   10318:	fee45783          	lhu	a5,-18(s0)
   1031c:	00079663          	bnez	a5,10328 <bf16_add+0x10c>
   10320:	fc845783          	lhu	a5,-56(s0)
   10324:	25c0006f          	j	10580 <bf16_add+0x364>
   10328:	fdc41783          	lh	a5,-36(s0)
   1032c:	00079a63          	bnez	a5,10340 <bf16_add+0x124>
   10330:	fec45783          	lhu	a5,-20(s0)
   10334:	00079663          	bnez	a5,10340 <bf16_add+0x124>
   10338:	fcc45783          	lhu	a5,-52(s0)
   1033c:	2440006f          	j	10580 <bf16_add+0x364>
   10340:	fde41783          	lh	a5,-34(s0)
   10344:	00078863          	beqz	a5,10354 <bf16_add+0x138>
   10348:	fee45783          	lhu	a5,-18(s0)
   1034c:	0807e793          	ori	a5,a5,128
   10350:	fef41723          	sh	a5,-18(s0)
   10354:	fdc41783          	lh	a5,-36(s0)
   10358:	00078863          	beqz	a5,10368 <bf16_add+0x14c>
   1035c:	fec45783          	lhu	a5,-20(s0)
   10360:	0807e793          	ori	a5,a5,128
   10364:	fef41623          	sh	a5,-20(s0)
   10368:	fde45703          	lhu	a4,-34(s0)
   1036c:	fdc45783          	lhu	a5,-36(s0)
   10370:	40f707b3          	sub	a5,a4,a5
   10374:	01079793          	slli	a5,a5,0x10
   10378:	0107d793          	srli	a5,a5,0x10
   1037c:	fcf41d23          	sh	a5,-38(s0)
   10380:	fda41783          	lh	a5,-38(s0)
   10384:	02f05a63          	blez	a5,103b8 <bf16_add+0x19c>
   10388:	fde45783          	lhu	a5,-34(s0)
   1038c:	fef41423          	sh	a5,-24(s0)
   10390:	fda41703          	lh	a4,-38(s0)
   10394:	00800793          	li	a5,8
   10398:	00e7d663          	bge	a5,a4,103a4 <bf16_add+0x188>
   1039c:	fcc45783          	lhu	a5,-52(s0)
   103a0:	1e00006f          	j	10580 <bf16_add+0x364>
   103a4:	fec45703          	lhu	a4,-20(s0)
   103a8:	fda41783          	lh	a5,-38(s0)
   103ac:	40f757b3          	sra	a5,a4,a5
   103b0:	fef41623          	sh	a5,-20(s0)
   103b4:	0480006f          	j	103fc <bf16_add+0x1e0>
   103b8:	fda41783          	lh	a5,-38(s0)
   103bc:	0207dc63          	bgez	a5,103f4 <bf16_add+0x1d8>
   103c0:	fdc45783          	lhu	a5,-36(s0)
   103c4:	fef41423          	sh	a5,-24(s0)
   103c8:	fda41703          	lh	a4,-38(s0)
   103cc:	ff800793          	li	a5,-8
   103d0:	00f75663          	bge	a4,a5,103dc <bf16_add+0x1c0>
   103d4:	fc845783          	lhu	a5,-56(s0)
   103d8:	1a80006f          	j	10580 <bf16_add+0x364>
   103dc:	fee45703          	lhu	a4,-18(s0)
   103e0:	fda41783          	lh	a5,-38(s0)
   103e4:	40f007b3          	neg	a5,a5
   103e8:	40f757b3          	sra	a5,a4,a5
   103ec:	fef41723          	sh	a5,-18(s0)
   103f0:	00c0006f          	j	103fc <bf16_add+0x1e0>
   103f4:	fde45783          	lhu	a5,-34(s0)
   103f8:	fef41423          	sh	a5,-24(s0)
   103fc:	fe245703          	lhu	a4,-30(s0)
   10400:	fe045783          	lhu	a5,-32(s0)
   10404:	08f71263          	bne	a4,a5,10488 <bf16_add+0x26c>
   10408:	fe245783          	lhu	a5,-30(s0)
   1040c:	fef41523          	sh	a5,-22(s0)
   10410:	fee45703          	lhu	a4,-18(s0)
   10414:	fec45783          	lhu	a5,-20(s0)
   10418:	00f707b3          	add	a5,a4,a5
   1041c:	fef42223          	sw	a5,-28(s0)
   10420:	fe442783          	lw	a5,-28(s0)
   10424:	1007f793          	andi	a5,a5,256
   10428:	0e078663          	beqz	a5,10514 <bf16_add+0x2f8>
   1042c:	fe442783          	lw	a5,-28(s0)
   10430:	0017d793          	srli	a5,a5,0x1
   10434:	fef42223          	sw	a5,-28(s0)
   10438:	fe845783          	lhu	a5,-24(s0)
   1043c:	00178793          	addi	a5,a5,1 # ffff8001 <__stack_top+0xfffe5f61>
   10440:	01079793          	slli	a5,a5,0x10
   10444:	0107d793          	srli	a5,a5,0x10
   10448:	fef41423          	sh	a5,-24(s0)
   1044c:	fe841703          	lh	a4,-24(s0)
   10450:	0fe00793          	li	a5,254
   10454:	0ce7d063          	bge	a5,a4,10514 <bf16_add+0x2f8>
   10458:	fea41783          	lh	a5,-22(s0)
   1045c:	00f79793          	slli	a5,a5,0xf
   10460:	01079713          	slli	a4,a5,0x10
   10464:	41075713          	srai	a4,a4,0x10
   10468:	000087b7          	lui	a5,0x8
   1046c:	f8078793          	addi	a5,a5,-128 # 7f80 <_start-0x8080>
   10470:	00f767b3          	or	a5,a4,a5
   10474:	01079793          	slli	a5,a5,0x10
   10478:	4107d793          	srai	a5,a5,0x10
   1047c:	01079793          	slli	a5,a5,0x10
   10480:	0107d793          	srli	a5,a5,0x10
   10484:	0fc0006f          	j	10580 <bf16_add+0x364>
   10488:	fee45703          	lhu	a4,-18(s0)
   1048c:	fec45783          	lhu	a5,-20(s0)
   10490:	02f76063          	bltu	a4,a5,104b0 <bf16_add+0x294>
   10494:	fe245783          	lhu	a5,-30(s0)
   10498:	fef41523          	sh	a5,-22(s0)
   1049c:	fee45703          	lhu	a4,-18(s0)
   104a0:	fec45783          	lhu	a5,-20(s0)
   104a4:	40f707b3          	sub	a5,a4,a5
   104a8:	fef42223          	sw	a5,-28(s0)
   104ac:	01c0006f          	j	104c8 <bf16_add+0x2ac>
   104b0:	fe045783          	lhu	a5,-32(s0)
   104b4:	fef41523          	sh	a5,-22(s0)
   104b8:	fec45703          	lhu	a4,-20(s0)
   104bc:	fee45783          	lhu	a5,-18(s0)
   104c0:	40f707b3          	sub	a5,a4,a5
   104c4:	fef42223          	sw	a5,-28(s0)
   104c8:	fe442783          	lw	a5,-28(s0)
   104cc:	02079e63          	bnez	a5,10508 <bf16_add+0x2ec>
   104d0:	00000793          	li	a5,0
   104d4:	0ac0006f          	j	10580 <bf16_add+0x364>
   104d8:	fe442783          	lw	a5,-28(s0)
   104dc:	00179793          	slli	a5,a5,0x1
   104e0:	fef42223          	sw	a5,-28(s0)
   104e4:	fe845783          	lhu	a5,-24(s0)
   104e8:	fff78793          	addi	a5,a5,-1
   104ec:	01079793          	slli	a5,a5,0x10
   104f0:	0107d793          	srli	a5,a5,0x10
   104f4:	fef41423          	sh	a5,-24(s0)
   104f8:	fe841783          	lh	a5,-24(s0)
   104fc:	00f04663          	bgtz	a5,10508 <bf16_add+0x2ec>
   10500:	00000793          	li	a5,0
   10504:	07c0006f          	j	10580 <bf16_add+0x364>
   10508:	fe442783          	lw	a5,-28(s0)
   1050c:	0807f793          	andi	a5,a5,128
   10510:	fc0784e3          	beqz	a5,104d8 <bf16_add+0x2bc>
   10514:	fea41783          	lh	a5,-22(s0)
   10518:	00f79793          	slli	a5,a5,0xf
   1051c:	01079713          	slli	a4,a5,0x10
   10520:	41075713          	srai	a4,a4,0x10
   10524:	fe845783          	lhu	a5,-24(s0)
   10528:	00779793          	slli	a5,a5,0x7
   1052c:	01079693          	slli	a3,a5,0x10
   10530:	4106d693          	srai	a3,a3,0x10
   10534:	000087b7          	lui	a5,0x8
   10538:	f8078793          	addi	a5,a5,-128 # 7f80 <_start-0x8080>
   1053c:	00f6f7b3          	and	a5,a3,a5
   10540:	01079793          	slli	a5,a5,0x10
   10544:	4107d793          	srai	a5,a5,0x10
   10548:	00f767b3          	or	a5,a4,a5
   1054c:	01079793          	slli	a5,a5,0x10
   10550:	4107d793          	srai	a5,a5,0x10
   10554:	01079713          	slli	a4,a5,0x10
   10558:	01075713          	srli	a4,a4,0x10
   1055c:	fe442783          	lw	a5,-28(s0)
   10560:	01079793          	slli	a5,a5,0x10
   10564:	0107d793          	srli	a5,a5,0x10
   10568:	07f7f793          	andi	a5,a5,127
   1056c:	01079793          	slli	a5,a5,0x10
   10570:	0107d793          	srli	a5,a5,0x10
   10574:	00f767b3          	or	a5,a4,a5
   10578:	01079793          	slli	a5,a5,0x10
   1057c:	0107d793          	srli	a5,a5,0x10
   10580:	00078513          	mv	a0,a5
   10584:	03c12083          	lw	ra,60(sp)
   10588:	03812403          	lw	s0,56(sp)
   1058c:	04010113          	addi	sp,sp,64
   10590:	00008067          	ret

00010594 <bf16_sub>:
   10594:	fe010113          	addi	sp,sp,-32
   10598:	00112e23          	sw	ra,28(sp)
   1059c:	00812c23          	sw	s0,24(sp)
   105a0:	02010413          	addi	s0,sp,32
   105a4:	fea41623          	sh	a0,-20(s0)
   105a8:	feb41423          	sh	a1,-24(s0)
   105ac:	fe845703          	lhu	a4,-24(s0)
   105b0:	ffff87b7          	lui	a5,0xffff8
   105b4:	00f747b3          	xor	a5,a4,a5
   105b8:	01079793          	slli	a5,a5,0x10
   105bc:	0107d793          	srli	a5,a5,0x10
   105c0:	fef41423          	sh	a5,-24(s0)
   105c4:	fe845783          	lhu	a5,-24(s0)
   105c8:	00078593          	mv	a1,a5
   105cc:	fec45783          	lhu	a5,-20(s0)
   105d0:	00078513          	mv	a0,a5
   105d4:	c49ff0ef          	jal	1021c <bf16_add>
   105d8:	00050793          	mv	a5,a0
   105dc:	00078513          	mv	a0,a5
   105e0:	01c12083          	lw	ra,28(sp)
   105e4:	01812403          	lw	s0,24(sp)
   105e8:	02010113          	addi	sp,sp,32
   105ec:	00008067          	ret

000105f0 <bf16_mul>:
   105f0:	fc010113          	addi	sp,sp,-64
   105f4:	02112e23          	sw	ra,60(sp)
   105f8:	02812c23          	sw	s0,56(sp)
   105fc:	04010413          	addi	s0,sp,64
   10600:	fca41623          	sh	a0,-52(s0)
   10604:	fcb41423          	sh	a1,-56(s0)
   10608:	fcc45783          	lhu	a5,-52(s0)
   1060c:	00f7d793          	srli	a5,a5,0xf
   10610:	fcf41d23          	sh	a5,-38(s0)
   10614:	fc845783          	lhu	a5,-56(s0)
   10618:	00f7d793          	srli	a5,a5,0xf
   1061c:	fcf41c23          	sh	a5,-40(s0)
   10620:	fcc45783          	lhu	a5,-52(s0)
   10624:	0077d793          	srli	a5,a5,0x7
   10628:	01079793          	slli	a5,a5,0x10
   1062c:	0107d793          	srli	a5,a5,0x10
   10630:	01079793          	slli	a5,a5,0x10
   10634:	4107d793          	srai	a5,a5,0x10
   10638:	0ff7f793          	zext.b	a5,a5
   1063c:	fef41723          	sh	a5,-18(s0)
   10640:	fc845783          	lhu	a5,-56(s0)
   10644:	0077d793          	srli	a5,a5,0x7
   10648:	01079793          	slli	a5,a5,0x10
   1064c:	0107d793          	srli	a5,a5,0x10
   10650:	01079793          	slli	a5,a5,0x10
   10654:	4107d793          	srai	a5,a5,0x10
   10658:	0ff7f793          	zext.b	a5,a5
   1065c:	fef41623          	sh	a5,-20(s0)
   10660:	fcc45783          	lhu	a5,-52(s0)
   10664:	07f7f793          	andi	a5,a5,127
   10668:	fef41523          	sh	a5,-22(s0)
   1066c:	fc845783          	lhu	a5,-56(s0)
   10670:	07f7f793          	andi	a5,a5,127
   10674:	fef41423          	sh	a5,-24(s0)
   10678:	fda45783          	lhu	a5,-38(s0)
   1067c:	00078713          	mv	a4,a5
   10680:	fd845783          	lhu	a5,-40(s0)
   10684:	00f747b3          	xor	a5,a4,a5
   10688:	fcf41b23          	sh	a5,-42(s0)
   1068c:	fee41703          	lh	a4,-18(s0)
   10690:	0ff00793          	li	a5,255
   10694:	06f71063          	bne	a4,a5,106f4 <bf16_mul+0x104>
   10698:	fea45783          	lhu	a5,-22(s0)
   1069c:	00078663          	beqz	a5,106a8 <bf16_mul+0xb8>
   106a0:	fcc45783          	lhu	a5,-52(s0)
   106a4:	30c0006f          	j	109b0 <bf16_mul+0x3c0>
   106a8:	fec41783          	lh	a5,-20(s0)
   106ac:	00079c63          	bnez	a5,106c4 <bf16_mul+0xd4>
   106b0:	fe845783          	lhu	a5,-24(s0)
   106b4:	00079863          	bnez	a5,106c4 <bf16_mul+0xd4>
   106b8:	ffff87b7          	lui	a5,0xffff8
   106bc:	fc07c793          	xori	a5,a5,-64
   106c0:	2f00006f          	j	109b0 <bf16_mul+0x3c0>
   106c4:	fd641783          	lh	a5,-42(s0)
   106c8:	00f79793          	slli	a5,a5,0xf
   106cc:	01079713          	slli	a4,a5,0x10
   106d0:	41075713          	srai	a4,a4,0x10
   106d4:	000087b7          	lui	a5,0x8
   106d8:	f8078793          	addi	a5,a5,-128 # 7f80 <_start-0x8080>
   106dc:	00f767b3          	or	a5,a4,a5
   106e0:	01079793          	slli	a5,a5,0x10
   106e4:	4107d793          	srai	a5,a5,0x10
   106e8:	01079793          	slli	a5,a5,0x10
   106ec:	0107d793          	srli	a5,a5,0x10
   106f0:	2c00006f          	j	109b0 <bf16_mul+0x3c0>
   106f4:	fec41703          	lh	a4,-20(s0)
   106f8:	0ff00793          	li	a5,255
   106fc:	06f71063          	bne	a4,a5,1075c <bf16_mul+0x16c>
   10700:	fe845783          	lhu	a5,-24(s0)
   10704:	00078663          	beqz	a5,10710 <bf16_mul+0x120>
   10708:	fc845783          	lhu	a5,-56(s0)
   1070c:	2a40006f          	j	109b0 <bf16_mul+0x3c0>
   10710:	fee41783          	lh	a5,-18(s0)
   10714:	00079c63          	bnez	a5,1072c <bf16_mul+0x13c>
   10718:	fea45783          	lhu	a5,-22(s0)
   1071c:	00079863          	bnez	a5,1072c <bf16_mul+0x13c>
   10720:	ffff87b7          	lui	a5,0xffff8
   10724:	fc07c793          	xori	a5,a5,-64
   10728:	2880006f          	j	109b0 <bf16_mul+0x3c0>
   1072c:	fd641783          	lh	a5,-42(s0)
   10730:	00f79793          	slli	a5,a5,0xf
   10734:	01079713          	slli	a4,a5,0x10
   10738:	41075713          	srai	a4,a4,0x10
   1073c:	000087b7          	lui	a5,0x8
   10740:	f8078793          	addi	a5,a5,-128 # 7f80 <_start-0x8080>
   10744:	00f767b3          	or	a5,a4,a5
   10748:	01079793          	slli	a5,a5,0x10
   1074c:	4107d793          	srai	a5,a5,0x10
   10750:	01079793          	slli	a5,a5,0x10
   10754:	0107d793          	srli	a5,a5,0x10
   10758:	2580006f          	j	109b0 <bf16_mul+0x3c0>
   1075c:	fee41783          	lh	a5,-18(s0)
   10760:	00079663          	bnez	a5,1076c <bf16_mul+0x17c>
   10764:	fea45783          	lhu	a5,-22(s0)
   10768:	00078a63          	beqz	a5,1077c <bf16_mul+0x18c>
   1076c:	fec41783          	lh	a5,-20(s0)
   10770:	02079063          	bnez	a5,10790 <bf16_mul+0x1a0>
   10774:	fe845783          	lhu	a5,-24(s0)
   10778:	00079c63          	bnez	a5,10790 <bf16_mul+0x1a0>
   1077c:	fd645783          	lhu	a5,-42(s0)
   10780:	00f79793          	slli	a5,a5,0xf
   10784:	01079793          	slli	a5,a5,0x10
   10788:	0107d793          	srli	a5,a5,0x10
   1078c:	2240006f          	j	109b0 <bf16_mul+0x3c0>
   10790:	fe041323          	sh	zero,-26(s0)
   10794:	fee41783          	lh	a5,-18(s0)
   10798:	04079463          	bnez	a5,107e0 <bf16_mul+0x1f0>
   1079c:	02c0006f          	j	107c8 <bf16_mul+0x1d8>
   107a0:	fea45783          	lhu	a5,-22(s0)
   107a4:	00179793          	slli	a5,a5,0x1
   107a8:	fef41523          	sh	a5,-22(s0)
   107ac:	fe641783          	lh	a5,-26(s0)
   107b0:	01079793          	slli	a5,a5,0x10
   107b4:	0107d793          	srli	a5,a5,0x10
   107b8:	fff78793          	addi	a5,a5,-1
   107bc:	01079793          	slli	a5,a5,0x10
   107c0:	0107d793          	srli	a5,a5,0x10
   107c4:	fef41323          	sh	a5,-26(s0)
   107c8:	fea45783          	lhu	a5,-22(s0)
   107cc:	0807f793          	andi	a5,a5,128
   107d0:	fc0788e3          	beqz	a5,107a0 <bf16_mul+0x1b0>
   107d4:	00100793          	li	a5,1
   107d8:	fef41723          	sh	a5,-18(s0)
   107dc:	0100006f          	j	107ec <bf16_mul+0x1fc>
   107e0:	fea45783          	lhu	a5,-22(s0)
   107e4:	0807e793          	ori	a5,a5,128
   107e8:	fef41523          	sh	a5,-22(s0)
   107ec:	fec41783          	lh	a5,-20(s0)
   107f0:	04079463          	bnez	a5,10838 <bf16_mul+0x248>
   107f4:	02c0006f          	j	10820 <bf16_mul+0x230>
   107f8:	fe845783          	lhu	a5,-24(s0)
   107fc:	00179793          	slli	a5,a5,0x1
   10800:	fef41423          	sh	a5,-24(s0)
   10804:	fe641783          	lh	a5,-26(s0)
   10808:	01079793          	slli	a5,a5,0x10
   1080c:	0107d793          	srli	a5,a5,0x10
   10810:	fff78793          	addi	a5,a5,-1
   10814:	01079793          	slli	a5,a5,0x10
   10818:	0107d793          	srli	a5,a5,0x10
   1081c:	fef41323          	sh	a5,-26(s0)
   10820:	fe845783          	lhu	a5,-24(s0)
   10824:	0807f793          	andi	a5,a5,128
   10828:	fc0788e3          	beqz	a5,107f8 <bf16_mul+0x208>
   1082c:	00100793          	li	a5,1
   10830:	fef41623          	sh	a5,-20(s0)
   10834:	0100006f          	j	10844 <bf16_mul+0x254>
   10838:	fe845783          	lhu	a5,-24(s0)
   1083c:	0807e793          	ori	a5,a5,128
   10840:	fef41423          	sh	a5,-24(s0)
   10844:	fea45783          	lhu	a5,-22(s0)
   10848:	fe845703          	lhu	a4,-24(s0)
   1084c:	00070593          	mv	a1,a4
   10850:	00078513          	mv	a0,a5
   10854:	02d000ef          	jal	11080 <__mulsi3>
   10858:	00050793          	mv	a5,a0
   1085c:	fef42023          	sw	a5,-32(s0)
   10860:	fee41703          	lh	a4,-18(s0)
   10864:	fec41783          	lh	a5,-20(s0)
   10868:	00f707b3          	add	a5,a4,a5
   1086c:	f8178713          	addi	a4,a5,-127
   10870:	fe641783          	lh	a5,-26(s0)
   10874:	00f707b3          	add	a5,a4,a5
   10878:	fcf42e23          	sw	a5,-36(s0)
   1087c:	fe042703          	lw	a4,-32(s0)
   10880:	000087b7          	lui	a5,0x8
   10884:	00f777b3          	and	a5,a4,a5
   10888:	02078263          	beqz	a5,108ac <bf16_mul+0x2bc>
   1088c:	fe042783          	lw	a5,-32(s0)
   10890:	0087d793          	srli	a5,a5,0x8
   10894:	07f7f793          	andi	a5,a5,127
   10898:	fef42023          	sw	a5,-32(s0)
   1089c:	fdc42783          	lw	a5,-36(s0)
   108a0:	00178793          	addi	a5,a5,1 # 8001 <_start-0x7fff>
   108a4:	fcf42e23          	sw	a5,-36(s0)
   108a8:	0140006f          	j	108bc <bf16_mul+0x2cc>
   108ac:	fe042783          	lw	a5,-32(s0)
   108b0:	0077d793          	srli	a5,a5,0x7
   108b4:	07f7f793          	andi	a5,a5,127
   108b8:	fef42023          	sw	a5,-32(s0)
   108bc:	fdc42703          	lw	a4,-36(s0)
   108c0:	0fe00793          	li	a5,254
   108c4:	02e7da63          	bge	a5,a4,108f8 <bf16_mul+0x308>
   108c8:	fd641783          	lh	a5,-42(s0)
   108cc:	00f79793          	slli	a5,a5,0xf
   108d0:	01079713          	slli	a4,a5,0x10
   108d4:	41075713          	srai	a4,a4,0x10
   108d8:	000087b7          	lui	a5,0x8
   108dc:	f8078793          	addi	a5,a5,-128 # 7f80 <_start-0x8080>
   108e0:	00f767b3          	or	a5,a4,a5
   108e4:	01079793          	slli	a5,a5,0x10
   108e8:	4107d793          	srai	a5,a5,0x10
   108ec:	01079793          	slli	a5,a5,0x10
   108f0:	0107d793          	srli	a5,a5,0x10
   108f4:	0bc0006f          	j	109b0 <bf16_mul+0x3c0>
   108f8:	fdc42783          	lw	a5,-36(s0)
   108fc:	04f04063          	bgtz	a5,1093c <bf16_mul+0x34c>
   10900:	fdc42703          	lw	a4,-36(s0)
   10904:	ffa00793          	li	a5,-6
   10908:	00f75c63          	bge	a4,a5,10920 <bf16_mul+0x330>
   1090c:	fd645783          	lhu	a5,-42(s0)
   10910:	00f79793          	slli	a5,a5,0xf
   10914:	01079793          	slli	a5,a5,0x10
   10918:	0107d793          	srli	a5,a5,0x10
   1091c:	0940006f          	j	109b0 <bf16_mul+0x3c0>
   10920:	00100713          	li	a4,1
   10924:	fdc42783          	lw	a5,-36(s0)
   10928:	40f707b3          	sub	a5,a4,a5
   1092c:	fe042703          	lw	a4,-32(s0)
   10930:	00f757b3          	srl	a5,a4,a5
   10934:	fef42023          	sw	a5,-32(s0)
   10938:	fc042e23          	sw	zero,-36(s0)
   1093c:	fd641783          	lh	a5,-42(s0)
   10940:	00f79793          	slli	a5,a5,0xf
   10944:	01079713          	slli	a4,a5,0x10
   10948:	41075713          	srai	a4,a4,0x10
   1094c:	fdc42783          	lw	a5,-36(s0)
   10950:	01079793          	slli	a5,a5,0x10
   10954:	4107d793          	srai	a5,a5,0x10
   10958:	00779793          	slli	a5,a5,0x7
   1095c:	01079693          	slli	a3,a5,0x10
   10960:	4106d693          	srai	a3,a3,0x10
   10964:	000087b7          	lui	a5,0x8
   10968:	f8078793          	addi	a5,a5,-128 # 7f80 <_start-0x8080>
   1096c:	00f6f7b3          	and	a5,a3,a5
   10970:	01079793          	slli	a5,a5,0x10
   10974:	4107d793          	srai	a5,a5,0x10
   10978:	00f767b3          	or	a5,a4,a5
   1097c:	01079793          	slli	a5,a5,0x10
   10980:	4107d793          	srai	a5,a5,0x10
   10984:	01079713          	slli	a4,a5,0x10
   10988:	01075713          	srli	a4,a4,0x10
   1098c:	fe042783          	lw	a5,-32(s0)
   10990:	01079793          	slli	a5,a5,0x10
   10994:	0107d793          	srli	a5,a5,0x10
   10998:	07f7f793          	andi	a5,a5,127
   1099c:	01079793          	slli	a5,a5,0x10
   109a0:	0107d793          	srli	a5,a5,0x10
   109a4:	00f767b3          	or	a5,a4,a5
   109a8:	01079793          	slli	a5,a5,0x10
   109ac:	0107d793          	srli	a5,a5,0x10
   109b0:	00078513          	mv	a0,a5
   109b4:	03c12083          	lw	ra,60(sp)
   109b8:	03812403          	lw	s0,56(sp)
   109bc:	04010113          	addi	sp,sp,64
   109c0:	00008067          	ret

000109c4 <bf16_div>:
   109c4:	fb010113          	addi	sp,sp,-80
   109c8:	04112623          	sw	ra,76(sp)
   109cc:	04812423          	sw	s0,72(sp)
   109d0:	05010413          	addi	s0,sp,80
   109d4:	faa41e23          	sh	a0,-68(s0)
   109d8:	fab41c23          	sh	a1,-72(s0)
   109dc:	fbc45783          	lhu	a5,-68(s0)
   109e0:	00f7d793          	srli	a5,a5,0xf
   109e4:	fcf41d23          	sh	a5,-38(s0)
   109e8:	fb845783          	lhu	a5,-72(s0)
   109ec:	00f7d793          	srli	a5,a5,0xf
   109f0:	fcf41c23          	sh	a5,-40(s0)
   109f4:	fbc45783          	lhu	a5,-68(s0)
   109f8:	0077d793          	srli	a5,a5,0x7
   109fc:	01079793          	slli	a5,a5,0x10
   10a00:	0107d793          	srli	a5,a5,0x10
   10a04:	01079793          	slli	a5,a5,0x10
   10a08:	4107d793          	srai	a5,a5,0x10
   10a0c:	0ff7f793          	zext.b	a5,a5
   10a10:	fcf41b23          	sh	a5,-42(s0)
   10a14:	fb845783          	lhu	a5,-72(s0)
   10a18:	0077d793          	srli	a5,a5,0x7
   10a1c:	01079793          	slli	a5,a5,0x10
   10a20:	0107d793          	srli	a5,a5,0x10
   10a24:	01079793          	slli	a5,a5,0x10
   10a28:	4107d793          	srai	a5,a5,0x10
   10a2c:	0ff7f793          	zext.b	a5,a5
   10a30:	fcf41a23          	sh	a5,-44(s0)
   10a34:	fbc45783          	lhu	a5,-68(s0)
   10a38:	07f7f793          	andi	a5,a5,127
   10a3c:	fef41723          	sh	a5,-18(s0)
   10a40:	fb845783          	lhu	a5,-72(s0)
   10a44:	07f7f793          	andi	a5,a5,127
   10a48:	fef41623          	sh	a5,-20(s0)
   10a4c:	fda45783          	lhu	a5,-38(s0)
   10a50:	00078713          	mv	a4,a5
   10a54:	fd845783          	lhu	a5,-40(s0)
   10a58:	00f747b3          	xor	a5,a4,a5
   10a5c:	fcf41923          	sh	a5,-46(s0)
   10a60:	fd441703          	lh	a4,-44(s0)
   10a64:	0ff00793          	li	a5,255
   10a68:	04f71463          	bne	a4,a5,10ab0 <bf16_div+0xec>
   10a6c:	fec45783          	lhu	a5,-20(s0)
   10a70:	00078663          	beqz	a5,10a7c <bf16_div+0xb8>
   10a74:	fb845783          	lhu	a5,-72(s0)
   10a78:	32c0006f          	j	10da4 <bf16_div+0x3e0>
   10a7c:	fd641703          	lh	a4,-42(s0)
   10a80:	0ff00793          	li	a5,255
   10a84:	00f71c63          	bne	a4,a5,10a9c <bf16_div+0xd8>
   10a88:	fee45783          	lhu	a5,-18(s0)
   10a8c:	00079863          	bnez	a5,10a9c <bf16_div+0xd8>
   10a90:	ffff87b7          	lui	a5,0xffff8
   10a94:	fc07c793          	xori	a5,a5,-64
   10a98:	30c0006f          	j	10da4 <bf16_div+0x3e0>
   10a9c:	fd245783          	lhu	a5,-46(s0)
   10aa0:	00f79793          	slli	a5,a5,0xf
   10aa4:	01079793          	slli	a5,a5,0x10
   10aa8:	0107d793          	srli	a5,a5,0x10
   10aac:	2f80006f          	j	10da4 <bf16_div+0x3e0>
   10ab0:	fd441783          	lh	a5,-44(s0)
   10ab4:	04079c63          	bnez	a5,10b0c <bf16_div+0x148>
   10ab8:	fec45783          	lhu	a5,-20(s0)
   10abc:	04079863          	bnez	a5,10b0c <bf16_div+0x148>
   10ac0:	fd641783          	lh	a5,-42(s0)
   10ac4:	00079c63          	bnez	a5,10adc <bf16_div+0x118>
   10ac8:	fee45783          	lhu	a5,-18(s0)
   10acc:	00079863          	bnez	a5,10adc <bf16_div+0x118>
   10ad0:	ffff87b7          	lui	a5,0xffff8
   10ad4:	fc07c793          	xori	a5,a5,-64
   10ad8:	2cc0006f          	j	10da4 <bf16_div+0x3e0>
   10adc:	fd241783          	lh	a5,-46(s0)
   10ae0:	00f79793          	slli	a5,a5,0xf
   10ae4:	01079713          	slli	a4,a5,0x10
   10ae8:	41075713          	srai	a4,a4,0x10
   10aec:	000087b7          	lui	a5,0x8
   10af0:	f8078793          	addi	a5,a5,-128 # 7f80 <_start-0x8080>
   10af4:	00f767b3          	or	a5,a4,a5
   10af8:	01079793          	slli	a5,a5,0x10
   10afc:	4107d793          	srai	a5,a5,0x10
   10b00:	01079793          	slli	a5,a5,0x10
   10b04:	0107d793          	srli	a5,a5,0x10
   10b08:	29c0006f          	j	10da4 <bf16_div+0x3e0>
   10b0c:	fd641703          	lh	a4,-42(s0)
   10b10:	0ff00793          	li	a5,255
   10b14:	04f71263          	bne	a4,a5,10b58 <bf16_div+0x194>
   10b18:	fee45783          	lhu	a5,-18(s0)
   10b1c:	00078663          	beqz	a5,10b28 <bf16_div+0x164>
   10b20:	fbc45783          	lhu	a5,-68(s0)
   10b24:	2800006f          	j	10da4 <bf16_div+0x3e0>
   10b28:	fd241783          	lh	a5,-46(s0)
   10b2c:	00f79793          	slli	a5,a5,0xf
   10b30:	01079713          	slli	a4,a5,0x10
   10b34:	41075713          	srai	a4,a4,0x10
   10b38:	000087b7          	lui	a5,0x8
   10b3c:	f8078793          	addi	a5,a5,-128 # 7f80 <_start-0x8080>
   10b40:	00f767b3          	or	a5,a4,a5
   10b44:	01079793          	slli	a5,a5,0x10
   10b48:	4107d793          	srai	a5,a5,0x10
   10b4c:	01079793          	slli	a5,a5,0x10
   10b50:	0107d793          	srli	a5,a5,0x10
   10b54:	2500006f          	j	10da4 <bf16_div+0x3e0>
   10b58:	fd641783          	lh	a5,-42(s0)
   10b5c:	02079063          	bnez	a5,10b7c <bf16_div+0x1b8>
   10b60:	fee45783          	lhu	a5,-18(s0)
   10b64:	00079c63          	bnez	a5,10b7c <bf16_div+0x1b8>
   10b68:	fd245783          	lhu	a5,-46(s0)
   10b6c:	00f79793          	slli	a5,a5,0xf
   10b70:	01079793          	slli	a5,a5,0x10
   10b74:	0107d793          	srli	a5,a5,0x10
   10b78:	22c0006f          	j	10da4 <bf16_div+0x3e0>
   10b7c:	fd641783          	lh	a5,-42(s0)
   10b80:	00078863          	beqz	a5,10b90 <bf16_div+0x1cc>
   10b84:	fee45783          	lhu	a5,-18(s0)
   10b88:	0807e793          	ori	a5,a5,128
   10b8c:	fef41723          	sh	a5,-18(s0)
   10b90:	fd441783          	lh	a5,-44(s0)
   10b94:	00078863          	beqz	a5,10ba4 <bf16_div+0x1e0>
   10b98:	fec45783          	lhu	a5,-20(s0)
   10b9c:	0807e793          	ori	a5,a5,128
   10ba0:	fef41623          	sh	a5,-20(s0)
   10ba4:	fee45783          	lhu	a5,-18(s0)
   10ba8:	00f79793          	slli	a5,a5,0xf
   10bac:	fef42423          	sw	a5,-24(s0)
   10bb0:	fec45783          	lhu	a5,-20(s0)
   10bb4:	fcf42623          	sw	a5,-52(s0)
   10bb8:	fe042223          	sw	zero,-28(s0)
   10bbc:	fe042023          	sw	zero,-32(s0)
   10bc0:	0640006f          	j	10c24 <bf16_div+0x260>
   10bc4:	fe442783          	lw	a5,-28(s0)
   10bc8:	00179793          	slli	a5,a5,0x1
   10bcc:	fef42223          	sw	a5,-28(s0)
   10bd0:	00f00713          	li	a4,15
   10bd4:	fe042783          	lw	a5,-32(s0)
   10bd8:	40f707b3          	sub	a5,a4,a5
   10bdc:	fcc42703          	lw	a4,-52(s0)
   10be0:	00f717b3          	sll	a5,a4,a5
   10be4:	fe842703          	lw	a4,-24(s0)
   10be8:	02f76863          	bltu	a4,a5,10c18 <bf16_div+0x254>
   10bec:	00f00713          	li	a4,15
   10bf0:	fe042783          	lw	a5,-32(s0)
   10bf4:	40f707b3          	sub	a5,a4,a5
   10bf8:	fcc42703          	lw	a4,-52(s0)
   10bfc:	00f717b3          	sll	a5,a4,a5
   10c00:	fe842703          	lw	a4,-24(s0)
   10c04:	40f707b3          	sub	a5,a4,a5
   10c08:	fef42423          	sw	a5,-24(s0)
   10c0c:	fe442783          	lw	a5,-28(s0)
   10c10:	0017e793          	ori	a5,a5,1
   10c14:	fef42223          	sw	a5,-28(s0)
   10c18:	fe042783          	lw	a5,-32(s0)
   10c1c:	00178793          	addi	a5,a5,1
   10c20:	fef42023          	sw	a5,-32(s0)
   10c24:	fe042703          	lw	a4,-32(s0)
   10c28:	00f00793          	li	a5,15
   10c2c:	f8e7dce3          	bge	a5,a4,10bc4 <bf16_div+0x200>
   10c30:	fd641703          	lh	a4,-42(s0)
   10c34:	fd441783          	lh	a5,-44(s0)
   10c38:	40f707b3          	sub	a5,a4,a5
   10c3c:	07f78793          	addi	a5,a5,127
   10c40:	fcf42e23          	sw	a5,-36(s0)
   10c44:	fd641783          	lh	a5,-42(s0)
   10c48:	00079863          	bnez	a5,10c58 <bf16_div+0x294>
   10c4c:	fdc42783          	lw	a5,-36(s0)
   10c50:	fff78793          	addi	a5,a5,-1
   10c54:	fcf42e23          	sw	a5,-36(s0)
   10c58:	fd441783          	lh	a5,-44(s0)
   10c5c:	00079863          	bnez	a5,10c6c <bf16_div+0x2a8>
   10c60:	fdc42783          	lw	a5,-36(s0)
   10c64:	00178793          	addi	a5,a5,1
   10c68:	fcf42e23          	sw	a5,-36(s0)
   10c6c:	fe442703          	lw	a4,-28(s0)
   10c70:	000087b7          	lui	a5,0x8
   10c74:	00f777b3          	and	a5,a4,a5
   10c78:	02078663          	beqz	a5,10ca4 <bf16_div+0x2e0>
   10c7c:	fe442783          	lw	a5,-28(s0)
   10c80:	0087d793          	srli	a5,a5,0x8
   10c84:	fef42223          	sw	a5,-28(s0)
   10c88:	0440006f          	j	10ccc <bf16_div+0x308>
   10c8c:	fe442783          	lw	a5,-28(s0)
   10c90:	00179793          	slli	a5,a5,0x1
   10c94:	fef42223          	sw	a5,-28(s0)
   10c98:	fdc42783          	lw	a5,-36(s0)
   10c9c:	fff78793          	addi	a5,a5,-1 # 7fff <_start-0x8001>
   10ca0:	fcf42e23          	sw	a5,-36(s0)
   10ca4:	fe442703          	lw	a4,-28(s0)
   10ca8:	000087b7          	lui	a5,0x8
   10cac:	00f777b3          	and	a5,a4,a5
   10cb0:	00079863          	bnez	a5,10cc0 <bf16_div+0x2fc>
   10cb4:	fdc42703          	lw	a4,-36(s0)
   10cb8:	00100793          	li	a5,1
   10cbc:	fce7c8e3          	blt	a5,a4,10c8c <bf16_div+0x2c8>
   10cc0:	fe442783          	lw	a5,-28(s0)
   10cc4:	0087d793          	srli	a5,a5,0x8
   10cc8:	fef42223          	sw	a5,-28(s0)
   10ccc:	fe442783          	lw	a5,-28(s0)
   10cd0:	07f7f793          	andi	a5,a5,127
   10cd4:	fef42223          	sw	a5,-28(s0)
   10cd8:	fdc42703          	lw	a4,-36(s0)
   10cdc:	0fe00793          	li	a5,254
   10ce0:	02e7da63          	bge	a5,a4,10d14 <bf16_div+0x350>
   10ce4:	fd241783          	lh	a5,-46(s0)
   10ce8:	00f79793          	slli	a5,a5,0xf
   10cec:	01079713          	slli	a4,a5,0x10
   10cf0:	41075713          	srai	a4,a4,0x10
   10cf4:	000087b7          	lui	a5,0x8
   10cf8:	f8078793          	addi	a5,a5,-128 # 7f80 <_start-0x8080>
   10cfc:	00f767b3          	or	a5,a4,a5
   10d00:	01079793          	slli	a5,a5,0x10
   10d04:	4107d793          	srai	a5,a5,0x10
   10d08:	01079793          	slli	a5,a5,0x10
   10d0c:	0107d793          	srli	a5,a5,0x10
   10d10:	0940006f          	j	10da4 <bf16_div+0x3e0>
   10d14:	fdc42783          	lw	a5,-36(s0)
   10d18:	00f04c63          	bgtz	a5,10d30 <bf16_div+0x36c>
   10d1c:	fd245783          	lhu	a5,-46(s0)
   10d20:	00f79793          	slli	a5,a5,0xf
   10d24:	01079793          	slli	a5,a5,0x10
   10d28:	0107d793          	srli	a5,a5,0x10
   10d2c:	0780006f          	j	10da4 <bf16_div+0x3e0>
   10d30:	fd241783          	lh	a5,-46(s0)
   10d34:	00f79793          	slli	a5,a5,0xf
   10d38:	01079713          	slli	a4,a5,0x10
   10d3c:	41075713          	srai	a4,a4,0x10
   10d40:	fdc42783          	lw	a5,-36(s0)
   10d44:	01079793          	slli	a5,a5,0x10
   10d48:	4107d793          	srai	a5,a5,0x10
   10d4c:	00779793          	slli	a5,a5,0x7
   10d50:	01079693          	slli	a3,a5,0x10
   10d54:	4106d693          	srai	a3,a3,0x10
   10d58:	000087b7          	lui	a5,0x8
   10d5c:	f8078793          	addi	a5,a5,-128 # 7f80 <_start-0x8080>
   10d60:	00f6f7b3          	and	a5,a3,a5
   10d64:	01079793          	slli	a5,a5,0x10
   10d68:	4107d793          	srai	a5,a5,0x10
   10d6c:	00f767b3          	or	a5,a4,a5
   10d70:	01079793          	slli	a5,a5,0x10
   10d74:	4107d793          	srai	a5,a5,0x10
   10d78:	01079713          	slli	a4,a5,0x10
   10d7c:	01075713          	srli	a4,a4,0x10
   10d80:	fe442783          	lw	a5,-28(s0)
   10d84:	01079793          	slli	a5,a5,0x10
   10d88:	0107d793          	srli	a5,a5,0x10
   10d8c:	07f7f793          	andi	a5,a5,127
   10d90:	01079793          	slli	a5,a5,0x10
   10d94:	0107d793          	srli	a5,a5,0x10
   10d98:	00f767b3          	or	a5,a4,a5
   10d9c:	01079793          	slli	a5,a5,0x10
   10da0:	0107d793          	srli	a5,a5,0x10
   10da4:	00078513          	mv	a0,a5
   10da8:	04c12083          	lw	ra,76(sp)
   10dac:	04812403          	lw	s0,72(sp)
   10db0:	05010113          	addi	sp,sp,80
   10db4:	00008067          	ret

00010db8 <bf16_sqrt>:
   10db8:	fb010113          	addi	sp,sp,-80
   10dbc:	04112623          	sw	ra,76(sp)
   10dc0:	04812423          	sw	s0,72(sp)
   10dc4:	05010413          	addi	s0,sp,80
   10dc8:	faa41e23          	sh	a0,-68(s0)
   10dcc:	fbc45783          	lhu	a5,-68(s0)
   10dd0:	00f7d793          	srli	a5,a5,0xf
   10dd4:	fcf41d23          	sh	a5,-38(s0)
   10dd8:	fbc45783          	lhu	a5,-68(s0)
   10ddc:	0077d793          	srli	a5,a5,0x7
   10de0:	01079793          	slli	a5,a5,0x10
   10de4:	0107d793          	srli	a5,a5,0x10
   10de8:	01079793          	slli	a5,a5,0x10
   10dec:	4107d793          	srai	a5,a5,0x10
   10df0:	0ff7f793          	zext.b	a5,a5
   10df4:	fcf41c23          	sh	a5,-40(s0)
   10df8:	fbc45783          	lhu	a5,-68(s0)
   10dfc:	07f7f793          	andi	a5,a5,127
   10e00:	fcf41b23          	sh	a5,-42(s0)
   10e04:	fd841703          	lh	a4,-40(s0)
   10e08:	0ff00793          	li	a5,255
   10e0c:	02f71863          	bne	a4,a5,10e3c <bf16_sqrt+0x84>
   10e10:	fd645783          	lhu	a5,-42(s0)
   10e14:	00078663          	beqz	a5,10e20 <bf16_sqrt+0x68>
   10e18:	fbc45783          	lhu	a5,-68(s0)
   10e1c:	2280006f          	j	11044 <bf16_sqrt+0x28c>
   10e20:	fda45783          	lhu	a5,-38(s0)
   10e24:	00078863          	beqz	a5,10e34 <bf16_sqrt+0x7c>
   10e28:	ffff87b7          	lui	a5,0xffff8
   10e2c:	fc07c793          	xori	a5,a5,-64
   10e30:	2140006f          	j	11044 <bf16_sqrt+0x28c>
   10e34:	fbc45783          	lhu	a5,-68(s0)
   10e38:	20c0006f          	j	11044 <bf16_sqrt+0x28c>
   10e3c:	fd841783          	lh	a5,-40(s0)
   10e40:	00079a63          	bnez	a5,10e54 <bf16_sqrt+0x9c>
   10e44:	fd645783          	lhu	a5,-42(s0)
   10e48:	00079663          	bnez	a5,10e54 <bf16_sqrt+0x9c>
   10e4c:	00000793          	li	a5,0
   10e50:	1f40006f          	j	11044 <bf16_sqrt+0x28c>
   10e54:	fda45783          	lhu	a5,-38(s0)
   10e58:	00078863          	beqz	a5,10e68 <bf16_sqrt+0xb0>
   10e5c:	ffff87b7          	lui	a5,0xffff8
   10e60:	fc07c793          	xori	a5,a5,-64
   10e64:	1e00006f          	j	11044 <bf16_sqrt+0x28c>
   10e68:	fd841783          	lh	a5,-40(s0)
   10e6c:	00079663          	bnez	a5,10e78 <bf16_sqrt+0xc0>
   10e70:	00000793          	li	a5,0
   10e74:	1d00006f          	j	11044 <bf16_sqrt+0x28c>
   10e78:	fd841783          	lh	a5,-40(s0)
   10e7c:	f8178793          	addi	a5,a5,-127 # ffff7f81 <__stack_top+0xfffe5ee1>
   10e80:	fcf42823          	sw	a5,-48(s0)
   10e84:	fd645783          	lhu	a5,-42(s0)
   10e88:	0807e793          	ori	a5,a5,128
   10e8c:	01079793          	slli	a5,a5,0x10
   10e90:	0107d793          	srli	a5,a5,0x10
   10e94:	fef42423          	sw	a5,-24(s0)
   10e98:	fd042783          	lw	a5,-48(s0)
   10e9c:	0017f793          	andi	a5,a5,1
   10ea0:	02078463          	beqz	a5,10ec8 <bf16_sqrt+0x110>
   10ea4:	fe842783          	lw	a5,-24(s0)
   10ea8:	00179793          	slli	a5,a5,0x1
   10eac:	fef42423          	sw	a5,-24(s0)
   10eb0:	fd042783          	lw	a5,-48(s0)
   10eb4:	fff78793          	addi	a5,a5,-1
   10eb8:	4017d793          	srai	a5,a5,0x1
   10ebc:	07f78793          	addi	a5,a5,127
   10ec0:	fef42623          	sw	a5,-20(s0)
   10ec4:	0140006f          	j	10ed8 <bf16_sqrt+0x120>
   10ec8:	fd042783          	lw	a5,-48(s0)
   10ecc:	4017d793          	srai	a5,a5,0x1
   10ed0:	07f78793          	addi	a5,a5,127
   10ed4:	fef42623          	sw	a5,-20(s0)
   10ed8:	05a00793          	li	a5,90
   10edc:	fef42223          	sw	a5,-28(s0)
   10ee0:	10000793          	li	a5,256
   10ee4:	fef42023          	sw	a5,-32(s0)
   10ee8:	08000793          	li	a5,128
   10eec:	fcf42e23          	sw	a5,-36(s0)
   10ef0:	0600006f          	j	10f50 <bf16_sqrt+0x198>
   10ef4:	fe442703          	lw	a4,-28(s0)
   10ef8:	fe042783          	lw	a5,-32(s0)
   10efc:	00f707b3          	add	a5,a4,a5
   10f00:	0017d793          	srli	a5,a5,0x1
   10f04:	fcf42423          	sw	a5,-56(s0)
   10f08:	fc842583          	lw	a1,-56(s0)
   10f0c:	fc842503          	lw	a0,-56(s0)
   10f10:	170000ef          	jal	11080 <__mulsi3>
   10f14:	00050793          	mv	a5,a0
   10f18:	0077d793          	srli	a5,a5,0x7
   10f1c:	fcf42223          	sw	a5,-60(s0)
   10f20:	fc442703          	lw	a4,-60(s0)
   10f24:	fe842783          	lw	a5,-24(s0)
   10f28:	00e7ee63          	bltu	a5,a4,10f44 <bf16_sqrt+0x18c>
   10f2c:	fc842783          	lw	a5,-56(s0)
   10f30:	fcf42e23          	sw	a5,-36(s0)
   10f34:	fc842783          	lw	a5,-56(s0)
   10f38:	00178793          	addi	a5,a5,1
   10f3c:	fef42223          	sw	a5,-28(s0)
   10f40:	0100006f          	j	10f50 <bf16_sqrt+0x198>
   10f44:	fc842783          	lw	a5,-56(s0)
   10f48:	fff78793          	addi	a5,a5,-1
   10f4c:	fef42023          	sw	a5,-32(s0)
   10f50:	fe442703          	lw	a4,-28(s0)
   10f54:	fe042783          	lw	a5,-32(s0)
   10f58:	f8e7fee3          	bgeu	a5,a4,10ef4 <bf16_sqrt+0x13c>
   10f5c:	fdc42703          	lw	a4,-36(s0)
   10f60:	0ff00793          	li	a5,255
   10f64:	02e7f063          	bgeu	a5,a4,10f84 <bf16_sqrt+0x1cc>
   10f68:	fdc42783          	lw	a5,-36(s0)
   10f6c:	0017d793          	srli	a5,a5,0x1
   10f70:	fcf42e23          	sw	a5,-36(s0)
   10f74:	fec42783          	lw	a5,-20(s0)
   10f78:	00178793          	addi	a5,a5,1
   10f7c:	fef42623          	sw	a5,-20(s0)
   10f80:	0440006f          	j	10fc4 <bf16_sqrt+0x20c>
   10f84:	fdc42703          	lw	a4,-36(s0)
   10f88:	07f00793          	li	a5,127
   10f8c:	02e7ec63          	bltu	a5,a4,10fc4 <bf16_sqrt+0x20c>
   10f90:	01c0006f          	j	10fac <bf16_sqrt+0x1f4>
   10f94:	fdc42783          	lw	a5,-36(s0)
   10f98:	00179793          	slli	a5,a5,0x1
   10f9c:	fcf42e23          	sw	a5,-36(s0)
   10fa0:	fec42783          	lw	a5,-20(s0)
   10fa4:	fff78793          	addi	a5,a5,-1
   10fa8:	fef42623          	sw	a5,-20(s0)
   10fac:	fdc42703          	lw	a4,-36(s0)
   10fb0:	07f00793          	li	a5,127
   10fb4:	00e7e863          	bltu	a5,a4,10fc4 <bf16_sqrt+0x20c>
   10fb8:	fec42703          	lw	a4,-20(s0)
   10fbc:	00100793          	li	a5,1
   10fc0:	fce7cae3          	blt	a5,a4,10f94 <bf16_sqrt+0x1dc>
   10fc4:	fdc42783          	lw	a5,-36(s0)
   10fc8:	01079793          	slli	a5,a5,0x10
   10fcc:	0107d793          	srli	a5,a5,0x10
   10fd0:	07f7f793          	andi	a5,a5,127
   10fd4:	fcf41723          	sh	a5,-50(s0)
   10fd8:	fec42703          	lw	a4,-20(s0)
   10fdc:	0fe00793          	li	a5,254
   10fe0:	00e7d863          	bge	a5,a4,10ff0 <bf16_sqrt+0x238>
   10fe4:	ffff87b7          	lui	a5,0xffff8
   10fe8:	f807c793          	xori	a5,a5,-128
   10fec:	0580006f          	j	11044 <bf16_sqrt+0x28c>
   10ff0:	fec42783          	lw	a5,-20(s0)
   10ff4:	00f04663          	bgtz	a5,11000 <bf16_sqrt+0x248>
   10ff8:	00000793          	li	a5,0
   10ffc:	0480006f          	j	11044 <bf16_sqrt+0x28c>
   11000:	fec42783          	lw	a5,-20(s0)
   11004:	01079793          	slli	a5,a5,0x10
   11008:	4107d793          	srai	a5,a5,0x10
   1100c:	00779793          	slli	a5,a5,0x7
   11010:	01079713          	slli	a4,a5,0x10
   11014:	41075713          	srai	a4,a4,0x10
   11018:	000087b7          	lui	a5,0x8
   1101c:	f8078793          	addi	a5,a5,-128 # 7f80 <_start-0x8080>
   11020:	00f777b3          	and	a5,a4,a5
   11024:	01079713          	slli	a4,a5,0x10
   11028:	41075713          	srai	a4,a4,0x10
   1102c:	fce41783          	lh	a5,-50(s0)
   11030:	00f767b3          	or	a5,a4,a5
   11034:	01079793          	slli	a5,a5,0x10
   11038:	4107d793          	srai	a5,a5,0x10
   1103c:	01079793          	slli	a5,a5,0x10
   11040:	0107d793          	srli	a5,a5,0x10
   11044:	00078513          	mv	a0,a5
   11048:	04c12083          	lw	ra,76(sp)
   1104c:	04812403          	lw	s0,72(sp)
   11050:	05010113          	addi	sp,sp,80
   11054:	00008067          	ret

00011058 <main>:
   11058:	ff010113          	addi	sp,sp,-16
   1105c:	00112623          	sw	ra,12(sp)
   11060:	00812423          	sw	s0,8(sp)
   11064:	01010413          	addi	s0,sp,16
   11068:	00000793          	li	a5,0
   1106c:	00078513          	mv	a0,a5
   11070:	00c12083          	lw	ra,12(sp)
   11074:	00812403          	lw	s0,8(sp)
   11078:	01010113          	addi	sp,sp,16
   1107c:	00008067          	ret

00011080 <__mulsi3>:
   11080:	862a                	mv	a2,a0
   11082:	4501                	li	a0,0
   11084:	0015f693          	andi	a3,a1,1
   11088:	c291                	beqz	a3,1108c <__mulsi3+0xc>
   1108a:	9532                	add	a0,a0,a2
   1108c:	8185                	srli	a1,a1,0x1
   1108e:	0606                	slli	a2,a2,0x1
   11090:	f9f5                	bnez	a1,11084 <__mulsi3+0x4>
   11092:	8082                	ret
	...
