riscv-none-elf-objdump -Ds test.elf | less

test.elf:     file format elf32-littleriscv

Contents of section .text:
 10000 17110000 1301016e 97020000 9382026d  .......n.......m
 10010 17030000 1303836c 63d86200 23a00200  .......lc.b.#...
 10020 93824200 6ff05fff ef00806a 9308d005  ..B.o._....j....
 10030 13050000 73000000 6f000000 37870000  ....s...o...7...
 10040 130707f8 93170501 3375a700 93d70701  ........3u......
 10050 6318e500 13f5f707 3335a000 67800000  c.......35..g...
 10060 13050000 67800000 13151501 b787ffff  ....g...........
 10070 93870708 13551501 3305f500 13351500  .....U..3....5..
 10080 67800000 13151501 13351500 67800000  g........5..g...
 10090 13070500 b707807f b3f6e700 13550501  .............U..
 100a0 638ef600 b7870000 9387f7ff 13751500  c............u..
 100b0 b387e700 3305f500 13550501 67800000  ....3....U..g...
 100c0 13150501 67800000 13180501 13580801  ....g........X..
 100d0 13950501 13550501 13577800 1377f70f  .....U...Wx..w..
 100e0 93587500 130ef00f 9355f800 1353f500  .Xu......U...S..
 100f0 93060700 93f8f80f 1376f807 9377f507  .........v...w..
 10100 631cc701 631a0612 6398e812 639c0712  c...c...c...c...
 10110 639e6510 67800000 6386c813 336ee600  c.e.g...c...3n..
 10120 63020e12 33ee1701 63080e10 63040700  c...3...c...c...
 10130 13660608 63840800 93e70708 33071741  .f..c.......3..A
 10140 131e0701 135e0e01 6352e006 93088000  .....^..cR......
 10150 13050800 63c8e80e b3d7c741 93970701  ....c......A....
 10160 93d70701 63966506 b307f600 13f70710  ....c.e.........
 10170 630e0708 93861600 13960601 13560601  c............V..
 10180 93960601 1307f00f 93d71700 93d60641  ...............A
 10190 631ee606 3785ffff b7870000 3375a800  c...7.......3u..
 101a0 938707f8 3365f500 67800000 e30c07fa  ....3e..g.......
 101b0 930680ff 6348d708 3307e040 3356e640  ....cH..3..@3V.@
 101c0 13160601 93860800 13560601 6ff09ff9  .........V..o...
 101d0 636af600 b307f640 13050000 63940702  cj.....@....c...
 101e0 67800000 b387c740 93050300 6ff0dffe  g......@....o...
 101f0 9386f6ff 93960601 93d60641 93971700  ...........A....
 10200 6350d004 13f70708 e30407fe 93967600  cP............v.
 10210 9395f500 b3e5d500 93f7f707 b3e5f500  ................
 10220 13950501 13550501 67800000 37850000  .....U..g...7...
 10230 130505fc 67800000 13050800 67800000  ....g.......g...
 10240 13050000 67800000 b787ffff b3c5b700  ....g...........
 10250 6ff09fe7 13160501 13560601 93970501  o........V......
 10260 130101fd 93d70701 13577600 23202103  .........Wv.# !.
 10270 93d67700 23261102 23248102 23229102  ..w.#&..#$..#"..
 10280 232e3101 1377f70f 1308f00f 93f6f60f  #.1..w..........
 10290 1375f607 93f5f707 33c9c700 631a0703  .u......3...c...
 102a0 93070600 63120504 b7870000 b3e5d500  ....c...........
 102b0 938707fc 638a0502 b787ffff 37870000  ....c.......7...
 102c0 b377f900 130707f8 b3e7e700 6f00c001  .w..........o...
 102d0 639c0603 639a0500 b7870000 3365e500  c...c.......3e..
 102e0 938707fc e31a05fc 8320c102 03248102  ......... ...$..
 102f0 83244102 03290102 8329c101 13850700  .$A..)...)......
 10300 13010103 67800000 1354f900 631c0706  ....g....T..c...
 10310 63020510 63840608 93040000 93171500  c...c...........
 10320 9384f4ff 13950701 93940401 93f70708  ................
 10330 13550501 93d40441 e38207fe 13071000  .U.....A........
 10340 63880606 6f00c004 13557500 1375f507  c...o....Uu..u..
 10350 6f00000b 93071000 b387e740 3355f500  o..........@3U..
 10360 13070000 b787ffff b377f900 b3e7a700  .........w......
 10370 13177700 b3e7e700 93970701 93d70701  ..w.............
 10380 6ff09ff6 63800602 13650508 93040000  o...c....e......
 10390 93890600 93e50508 6f00c003 e39e05f6  ........o.......
 103a0 6f004007 63880506 13650508 93040000  o.@.c....e......
 103b0 93971500 9384f4ff 93950701 93940401  ................
 103c0 93f70708 93d50501 93d40441 e38207fe  ...........A....
 103d0 93091000 2326e100 ef00002e 0327c100  ....#&.......'..
 103e0 93170501 33073701 130717f8 33079700  ....3.7.....3...
 103f0 e3dc07f4 13558500 1375f507 13071700  .....U...u......
 10400 9307e00f e3cae7ea e34ee0f4 9307a0ff  .........N......
 10410 e352f7f4 9317f400 6ff01fed 93950501  .R......o.......
 10420 93d50501 13150501 13550501 13d67500  .........U....u.
 10430 13577500 33c8a500 1376f60f 9306f00f  .Wu.3....v......
 10440 1377f70f 9377f507 93f8f507 1353f800  .w...w.......S..
 10450 6312d602 13850500 639a0804 6318c700  c.......c...c...
 10460 37850000 130505fc 63820704 1315f300  7.......c.......
 10470 67800000 b3e5c800 63960502 37850000  g.......c...7...
 10480 b3e7e700 130505fc 63820702 3785ffff  ........c...7...
 10490 b7870000 3375a800 938707f8 3365f500  ....3u......3e..
 104a0 67800000 6316d700 e38207fe 67800000  g...c.......g...
 104b0 6314070a e38c07fa 63040600 93e80808  c.......c.......
 104c0 9396f700 9305f000 93070000 130ef0ff  ................
 104d0 3395b800 93971700 63e6a600 b386a640  3.......c......@
 104e0 93e71700 9385f5ff e394c5ff b306c740  ...............@
 104f0 3337e000 3307d700 1307e707 13361600  37..3........6..
 10500 93960701 3307c700 63ce0600 93061000  ....3...c.......
 10510 63dae600 93971700 13960701 1307f7ff  c...............
 10520 e35806fe 9306e00f 93d78700 e3c0e6f6  .X..............
 10530 e35ee0f2 13f5f707 13177700 b787ffff  .^........w.....
 10540 3365e500 3378f800 33650501 13150501  3e..3x..3e......
 10550 13550501 67800000 93e70708 6ff0dff5  .U..g.......o...
 10560 13150501 13550501 130101fe 93577500  .....U.......Wu.
 10570 23282101 232e1100 232c8100 232a9100  #(!.#...#,..#*..
 10580 23263101 23244101 23225101 93f7f70f  #&1.#$A.#"Q.....
 10590 9306f00f 1357f500 1379f507 6390d704  .....W...y..c...
 105a0 631c0900 37850000 130505fc 63160700  c...7.......c...
 105b0 37850000 130505f8 8320c101 03248101  7........ ...$..
 105c0 83244101 03290101 8329c100 032a8100  .$A..)...)...*..
 105d0 832a4100 13010102 67800000 639a0704  .*A.....g...c...
 105e0 13050000 e30a09fc 37850000 130505fc  ........7.......
 105f0 3307e040 3375e500 6ff01ffc 13541440  3..@3u..o....T.@
 10600 1304f407 6f008005 938af9ff 6f000008  ....o.......o...
 10610 9307f007 63e69708 13071000 93941400  ....c...........
 10620 1304f4ff 63ee9706 e31ae4fe 6f004007  ....c.......o.@.
 10630 37850000 130505fc e31007f8 138417f8  7...............
 10640 13771400 13690908 e30a07fa 938707f8  .w...i..........
 10650 93d71740 13191900 1384f707 93040008  ...@............
 10660 930a0010 130aa005 b3095a01 93d91900  ..........Z.....
 10670 93850900 13850900 ef000004 13557500  .............Uu.
 10680 e364a9f8 138a1900 93840900 e3fe4afd  .d............J.
 10690 9307f00f e3fe97f6 93d41400 13041400  ................
 106a0 13157400 93f4f407 33659500 13150501  ..t.....3e......
 106b0 13550501 6ff05ff0 2a860145 93f61500  .U..o._.*..E....
 106c0 91c23295 85810606 f5f98280 0000      ..2...........  
Contents of section .text.startup:
 106d0 13050000 67800000                    ....g...        
Contents of section .riscv.attributes:
 0000 414f0000 00726973 63760001 45000000  AO...riscv..E...
 0010 04100572 76333269 3270315f 6d327030  ...rv32i2p1_m2p0
 0020 5f613270 315f6332 70305f7a 69637372  _a2p1_c2p0_zicsr
 0030 3270305f 7a6d6d75 6c317030 5f7a6161  2p0_zmmul1p0_zaa
 0040 6d6f3170 305f7a61 6c727363 31703000  mo1p0_zalrsc1p0.
Contents of section .comment:
 0000 4743433a 20287850 61636b20 474e5520  GCC: (xPack GNU 
 0010 52495343 2d562045 6d626564 64656420  RISC-V Embedded 
 0020 47434320 7838365f 36342920 31342e32  GCC x86_64) 14.2
 0030 2e3000                               .0.             
Contents of section .debug_line:
 0000 71000000 02001b00 00000101 fb0e0a00  q...............
 0010 01010101 00000001 00737461 72742e53  .........start.S
 0020 00000000 00000502 00000100 16030309  ................
 0030 08000103 01090800 01030209 08000103  ................
 0040 01090400 01030109 04000103 01090400  ................
 0050 01030409 04000103 03090400 01030109  ................
 0060 04000103 01090400 01030409 04000109  ................
 0070 04000001 019d0e00 00050004 003c0000  .............<..
 0080 00010101 fb0e0d00 01010101 00000001  ................
 0090 00000101 011f0307 00000036 00000075  ...........6...u
 00a0 00000002 011f020f 04000000 00000000  ................
 00b0 000000b0 00000001 c1000000 02050100  ................
 00c0 05023c00 01000311 01053806 03010900  ..<.......8.....
 00d0 00010505 06030009 14000105 38060300  ............8...
 00e0 09000001 00020401 03000904 00010501  ................
 00f0 03020910 00010603 03090400 01050503  ................
 0100 01090000 01053806 03000900 00010501  ......8.........
 0110 03020914 00010603 03090800 01050503  ................
 0120 01090000 01050c06 03000900 00010501  ................
 0130 03010904 00010603 03090800 01050503  ................
 0140 01090000 01030109 00000103 01090000  ................
 0150 01050106 037d0900 00010508 03030904  .....}..........
 0160 0001052b 03010908 00010508 037f0904  ...+............
 0170 00010505 06030209 04000103 01090000  ................
 0180 01050d06 037f0900 00010521 03000908  ...........!....
 0190 0001050d 03000904 00010526 03010908  ...........&....
 01a0 00010501 03010904 00010603 03090400  ................
 01b0 01050503 01090000 01030109 00000103  ................
 01c0 01090000 01030109 00000105 01060301  ................
 01d0 09000001 06030309 08000105 05030109  ................
 01e0 10000105 24060302 09000001 03010908  ....$...........
 01f0 00010508 03040904 0001050e 03790904  .............y..
 0200 00010505 06030109 04000105 0e060300  ................
 0210 09000001 05050603 01090400 01050d06  ................
 0220 03000900 00010505 06030109 04000103  ................
 0230 01090400 01050e06 03000900 00010505  ................
 0240 06030109 04000105 0e060300 09000001  ................
 0250 05050603 02090400 01050806 03000900  ................
 0260 00010509 06030109 04000105 0c060300  ................
 0270 09000001 05090603 02090400 01050c06  ................
 0280 03000900 0001050d 06030109 04000105  ................
 0290 35060300 09000001 051c0002 04010300  5...............
 02a0 09040001 05050603 03090800 01050806  ................
 02b0 03000900 00010505 06030209 04000105  ................
 02c0 10000204 01060300 09000001 05050603  ................
 02d0 02090800 01051000 02040106 03000900  ................
 02e0 00010505 06030209 08000105 08060300  ................
 02f0 09000001 05090603 01090400 01051006  ................
 0300 03000900 00010505 06030109 04000105  ................
 0310 08060300 09000001 05090603 01090400  ................
 0320 01051006 03000900 00010505 06030209  ................
 0330 04000105 1e060300 09000001 05050603  ................
 0340 01090c00 01030109 00000103 01090000  ................
 0350 01030209 00000105 08060300 09000001  ................
 0360 05090603 01090400 01030109 00000105  ................
 0370 0c060300 09000001 05090603 02090c00  ................
 0380 01051006 03000900 00010505 06030a09  ................
 0390 0c000105 08060300 09000001 05090603  ................
 03a0 01090400 01030109 00000105 15060300  ................
 03b0 09000001 05090603 02090400 01051906  ................
 03c0 03000900 0001050c 03000904 0001050d  ................
 03d0 06030109 04000105 11060301 09000001  ................
 03e0 05100300 090c0001 0519037f 09080001  ................
 03f0 050d0603 01090400 01051006 03000900  ................
 0400 00010511 06030109 08000105 0c037009  ..............p.
 0410 18000105 0f060300 09000001 05090603  ................
 0420 01090400 01030109 00000105 0c060300  ................
 0430 09000001 05140302 09080001 05100300  ................
 0440 09040001 050d035c 09080001 05090603  .......\........
 0450 24090400 01051006 03000900 00010509  $...............
 0460 06030f09 08000105 0c060300 09000001  ................
 0470 050d0603 01090400 01030109 00000105  ................
 0480 22060300 09000001 05090603 06090400  "...............
 0490 01050c06 03000904 0001050d 06037c09  ..............|.
 04a0 08000103 01090000 01052206 03000900  ..........".....
 04b0 00010519 037f0904 0001050d 06030709  ................
 04c0 08000105 10060301 09040001 0519037f  ................
 04d0 09080001 050d0603 01090400 01051006  ................
 04e0 03000900 00010603 7e090400 01051e06  ........~.......
 04f0 03000900 00010510 03000904 00010505  ................
 0500 06030709 04000105 3c060301 09000001  ........<.......
 0510 05250300 09040001 051e0301 09080001  .%..............
 0520 0542037f 09040001 050c037f 090c0001  .B..............
 0530 05010304 091c0001 06030309 04000105  ................
 0540 05030109 00000103 01090000 01050c06  ................
 0550 03000900 00010501 06030409 0c000105  ................
 0560 05030109 14000103 01090000 01030109  ................
 0570 00000105 24060300 09000001 0501037d  ....$..........}
 0580 09040001 05240304 09040001 0501037c  .....$.........|
 0590 09040001 05050603 04091400 01050806  ................
 05a0 03060900 00010505 06037b09 08000105  ..........{.....
 05b0 0e060300 09000001 05050603 01090400  ................
 05c0 01050e06 03000900 00010505 06030209  ................
 05d0 04000103 02090400 01050806 03000900  ................
 05e0 00010509 06030109 04000105 0c060300  ................
 05f0 09040001 05090603 02090400 01051400  ................
 0600 02040106 03000904 00010509 06032b09  ..............+.
 0610 0c000105 05035909 18000105 08060300  ......Y.........
 0620 09000001 05090603 01090400 01050c06  ................
 0630 03000900 00010509 06030209 04000105  ................
 0640 14000204 01060300 09040001 0501032e  ................
 0650 090c0001 050e0346 09200001 05050603  .......F. ......
 0660 10090400 01050806 03000900 00010511  ................
 0670 00020401 03000904 0001051d 00020403  ................
 0680 03000904 00010528 00020404 03000904  .......(........
 0690 0001050d 06030609 04000105 14060300  ................
 06a0 09000001 05170301 090c0001 0510037e  ...............~
 06b0 09040001 05140301 09040001 050d0603  ................
 06c0 01090400 01051706 03000900 00010510  ................
 06d0 06037e09 04000105 05030709 04000105  ..~.............
 06e0 08060300 09040001 05090603 11090800  ................
 06f0 01052406 03000900 00010515 03000904  ..$.............
 0700 00010509 06030709 08000105 1c060300  ................
 0710 09000001 05150300 09080001 05090603  ................
 0720 01090400 01051406 03000900 00010505  ................
 0730 06030309 04000105 4f060300 09000001  ........O.......
 0740 050c0300 091c0001 051d0002 04030358  ...............X
 0750 09040001 05090603 0b090400 01051006  ................
 0760 03000900 00010505 06030109 04000105  ................
 0770 0d060377 09000001 03690904 00010509  ...w.....i......
 0780 06032709 04000105 10060300 09000001  ..'.............
 0790 05280002 0404036d 09080001 05090603  .(.....m........
 07a0 0b090c00 01051006 03000900 00010505  ................
 07b0 06030109 04000105 0d060377 09000001  ...........w....
 07c0 06030b09 04000105 14060300 09000001  ................
 07d0 05170301 090c0001 0510037e 09040001  ...........~....
 07e0 05140301 09040001 050d0603 01090400  ................
 07f0 01051706 03000900 00010510 06037e09  ..............~.
 0800 04000105 0f060304 09040001 05050603  ................
 0810 04090800 01050e06 03000900 00010505  ................
 0820 06030209 04000105 2a060300 09000001  ........*.......
 0830 05080302 09040001 052a037e 09040001  .........*.~....
 0840 05320300 09040001 050d0300 09040001  .2..............
 0850 05050603 02090400 01050806 03000900  ................
 0860 00010509 06030109 04000105 24060300  ............$...
 0870 09000001 05150300 09040001 05090603  ................
 0880 01090400 01051306 03000900 00010505  ................
 0890 06030409 04000105 08060300 09000001  ................
 08a0 05050603 02090800 01050806 03000900  ................
 08b0 00010509 06030109 04000105 0c060300  ................
 08c0 09000001 050d0603 01090800 01053206  ..............2.
 08d0 03000900 00010501 06030a09 08000105  ................
 08e0 05030109 10000103 01090000 01030109  ................
 08f0 00000105 24060301 09000001 037f0904  ....$...........
 0900 00010508 0307090c 00010505 06037a09  ..............z.
 0910 08000103 01090000 01050e06 03000900  ................
 0920 00010505 06030109 04000105 0e060300  ................
 0930 09000001 05050603 02090400 01050e06  ................
 0940 03000900 00010505 06030209 04000105  ................
 0950 08060300 09000001 05090603 01090400  ................
 0960 01050c06 03000904 00010509 06030309  ................
 0970 04000105 0c060300 09000001 051b0002  ................
 0980 04010300 090c0001 05090603 37090400  ............7...
 0990 01052e06 03000900 00010505 06034d09  ..............M.
 09a0 08000105 10000204 01060300 09000001  ................
 09b0 05090603 01090800 01051400 02040106  ................
 09c0 03000904 00010509 06033009 0c000105  ..........0.....
 09d0 05035409 18000105 08060300 09000001  ..T.............
 09e0 05090603 01090400 01050c06 03000900  ................
 09f0 00010501 03300904 00010505 06035409  .....0........T.
 0a00 04000105 08060300 09000001 05100002  ................
 0a10 04010300 09040001 05050603 05090400  ................
 0a20 01050806 03000900 00010509 06030109  ................
 0a30 04000105 10060300 09000001 05050603  ................
 0a40 02090400 01050e06 03000900 00010505  ................
 0a50 06030109 04000103 01090000 01030209  ................
 0a60 00000105 0a030009 00000105 17000204  ................
 0a70 01030009 00000105 0e06037d 09000001  ...........}....
 0a80 03010904 00010517 00020401 03020904  ................
 0a90 00010509 06030109 04000105 22060301  ............"...
 0aa0 09000001 0512037f 09040001 05090603  ................
 0ab0 01090400 01050c06 03000900 0001050d  ................
 0ac0 06030109 04000105 16060300 09000001  ................
 0ad0 050d0603 01090400 01051606 03000900  ................
 0ae0 0001051e 00020402 06037c09 04000105  ..........|.....
 0af0 17000204 01030009 00000105 05030809  ................
 0b00 08000105 2a060300 09000001 05050603  ....*...........
 0b10 02090400 01050d06 037e0900 00010505  .........~......
 0b20 06030409 0c000105 13060301 09000001  ................
 0b30 05080302 09040001 0513037e 09040001  ...........~....
 0b40 05050603 02090400 01050806 03000900  ................
 0b50 00010525 00020401 03030904 0001050d  ...%............
 0b60 06030109 08000105 16060300 09000001  ................
 0b70 050d0603 01090400 01052506 037e0900  ..........%..~..
 0b80 00010517 03020904 00010525 06037e09  ...........%..~.
 0b90 04000105 09030409 04000105 08060304  ................
 0ba0 09000001 0512037c 09040001 05050603  .......|........
 0bb0 02090400 01030209 00000105 08060300  ................
 0bc0 09000001 05050603 02090400 01050806  ................
 0bd0 03000900 00010505 06030209 04000105  ................
 0be0 0e06037a 09000001 054f0306 09040001  ...z.....O......
 0bf0 050c0300 091c0001 05090603 5a090400  ............Z...
 0c00 01051006 03000900 00010501 06032b09  ..............+.
 0c10 08000105 05030109 08000105 0106037f  ................
 0c20 09000001 05220302 09040001 0501037e  .....".........~
 0c30 09040001 05080306 09200001 050e037b  ......... .....{
 0c40 09040001 05050603 01090400 01030109  ................
 0c50 00000105 0e060300 09000001 05050603  ................
 0c60 03090400 01050806 03000900 00010509  ................
 0c70 06030109 04000105 0c060300 09000001  ................
 0c80 05090603 02090400 01050c06 03000908  ................
 0c90 00010501 03cf0009 0c000105 050603b7  ................
 0ca0 7f092400 01050806 03000900 0001050e  ..$.............
 0cb0 00020401 03000908 00010505 06030409  ................
 0cc0 04000105 08060300 09000001 05090603  ................
 0cd0 14091400 01051606 03000900 00010511  ................
 0ce0 03000904 0001050d 06031409 08000105  ................
 0cf0 12060300 09000001 050c0603 0c090800  ................
 0d00 01050f06 03000900 0001051d 00020401  ................
 0d10 03010908 0001050d 06030109 04000105  ................
 0d20 14060300 09000001 050d0603 01090400  ................
 0d30 01051406 03000900 0001051d 06037e09  ..............~.
 0d40 04000100 02040106 03000904 00010505  ................
 0d50 06034b09 08000105 08060300 09000001  ..K.............
 0d60 05050603 09090c00 01050d06 03000900  ................
 0d70 00010505 06030109 04000103 03090000  ................
 0d80 01050b06 03030900 0001050e 037d0904  .............}..
 0d90 00010505 06030309 04000105 08060300  ................
 0da0 09000001 05090603 01090400 01051706  ................
 0db0 03010900 0001051c 03000904 0001050b  ................
 0dc0 037f0904 00010509 06030109 04000105  ................
 0dd0 11060300 09000001 05050603 09090400  ................
 0de0 01030109 00000103 01090000 01030309  ................
 0df0 00000105 10030009 00000105 0e06037d  ...............}
 0e00 09000001 037f0904 0001037f 09040001  ................
 0e10 05090603 06090400 01051d06 03000900  ................
 0e20 00010512 03000904 00010509 06030109  ................
 0e30 04000103 02090000 01051c06 037e0900  .............~..
 0e40 00010512 0300090c 0001050c 03020904  ................
 0e50 0001050d 06030109 04000103 01090000  ................
 0e60 01051106 03000900 00010514 037f0904  ................
 0e70 00010510 06037b09 04000105 05031109  ......{.........
 0e80 04000105 08060300 09000001 05090603  ................
 0e90 01090800 01051006 03000900 00010509  ................
 0ea0 06030109 04000105 10060300 09000001  ................
 0eb0 05050603 09090400 01030309 00000103  ................
 0ec0 02090000 01030309 00000105 36060300  ............6...
 0ed0 09000001 050e0378 09040001 05360308  .......x.....6..
 0ee0 09040001 050c0300 090c0001 09040000  ................
 0ef0 01010501 000502d0 06010003 f4020105  ................
 0f00 05030109 00000105 01060301 09000001  ................
 0f10 09080000 0101                        ......          
Contents of section .debug_info:
 0000 31000000 02000000 00000401 00000000  1...............
 0010 00000100 3c000100 00000000 08000000  ....<...........
 0020 37000000 01800245 00000001 00000100  7......E........
 0030 40000100 00c20500 00050001 04210000  @............!..
 0040 000c6901 00001d00 00000007 00000025  ..i............%
 0050 00000000 00000075 00000002 0106df01  .......u........
 0060 00000201 08dd0100 0004e100 00000237  ...............7
 0070 18400000 00020205 f7010000 041c0200  .@..............
 0080 00023919 53000000 02020712 01000004  ..9.S...........
 0090 27020000 024d1866 00000002 0405a100  '....M.f........
 00a0 000004d6 00000002 4f197900 00000204  ........O.y.....
 00b0 078a0000 00020805 9c000000 02080785  ................
 00c0 0000000d 0405696e 74000204 078f0000  ......int.......
 00d0 0004e300 00000320 13340000 00041e02  ....... .4......
 00e0 00000324 14470000 00042902 0000032c  ...$.G....)....,
 00f0 135a0000 0004d800 00000330 146d0000  .Z.........0.m..
 0100 00021004 b2010000 020108e6 0100000e  ................
 0110 02010509 f1000000 0f0d0100 0001060e  ................
 0120 a8000000 00000475 00000001 0703da00  .......u........
 0130 00001036 02000001 7401058e 000000d0  ...6....t.......
 0140 06010008 00000001 9c11eb00 00000119  ................
 0150 0108f100 00006005 01005801 0000019c  ......`...X.....
 0160 09020000 12610001 190119f1 0000000c  .....a..........
 0170 00000006 64010000 1b010ea8 00000015  ....d...........
 0180 00000007 65787000 1c010d9c 00000034  ....exp........4
 0190 00000006 70000000 1d010ea8 0000005f  ....p.........._
 01a0 00000007 65003601 0db40000 00760000  ....e.6......v..
 01b0 0006d501 00003701 0db40000 008e0000  ......7.........
 01c0 00076d00 3a010ec0 0000009f 00000007  ..m.:...........
 01d0 6c6f7700 48010ec0 000000b0 00000006  low.H...........
 01e0 31020000 49010ec0 000000c9 00000006  1...I...........
 01f0 3b020000 4a010ec0 000000e7 00000006  ;...J...........
 0200 7c000000 69010ea8 0000000d 01000009  |...i...........
 0210 18000000 076d6964 004e0112 c0000000  .....mid.N......
 0220 1b010000 07737100 4f0112c0 0000002c  .....sq.O......,
 0230 0100000a 7c060100 bc050000 000005f5  ....|...........
 0240 000000ce 08f10000 001c0401 00440100  .............D..
 0250 00019ceb 02000003 6100ce18 f1000000  ........a.......
 0260 49010000 036200ce 22f10000 00520100  I....b.."....R..
 0270 00084601 0000d00e a8000000 084d0100  ..F..........M..
 0280 00d10ea8 00000001 aa000000 d20d9c00  ................
 0290 00005b01 000001b0 000000d3 0d9c0000  ..[.............
 02a0 00780100 0001b600 0000d40e a8000000  .x..............
 02b0 95010000 01bd0000 00d50ea8 000000c3  ................
 02c0 0100000b 5d010000 d7a80000 00015601  ....].........V.
 02d0 cd000000 f30ec000 0000e801 000001be  ................
 02e0 010000f4 0ec00000 00f10100 00016000  ..............`.
 02f0 0000f50e c0000000 fb010000 01250100  .............%..
 0300 00ff0db4 0000001c 02000009 0c000000  ................
 0310 13690001 f70e8e00 00002f02 00000000  .i......../.....
 0320 05c40000 008908f1 00000054 020100c8  ...........T....
 0330 01000001 9cbe0300 00036100 8918f100  ..........a.....
 0340 00005702 00000362 008922f1 00000069  ..W....b.."....i
 0350 02000001 46010000 8b0ea800 00007b02  ....F.........{.
 0360 0000014d 0100008c 0ea80000 00880200  ...M............
 0370 0001aa00 00008d0d 9c000000 95020000  ................
 0380 01b00000 008e0d9c 000000de 02000001  ................
 0390 b6000000 8f0ea800 00000903 000001bd  ................
 03a0 00000090 0ea80000 00370300 00015d01  .........7....].
 03b0 0000920e a8000000 69030000 01300100  ........i....0..
 03c0 00a50d9c 00000082 03000001 69000000  ............i...
 03d0 b70ec000 0000c503 00000125 010000b9  ...........%....
 03e0 0db40000 00e30300 000adc03 0100bc05  ................
 03f0 00000005 57000000 8308f100 00004802  ....W.........H.
 0400 01000c00 0000019c fb030000 03610083  .............a..
 0410 18f10000 00000400 00036200 8322f100  ..........b.."..
 0420 00000904 00001454 020100fb 03000000  .......T........
 0430 05540100 003408f1 000000c8 00010080  .T...4..........
 0440 01000001 9cbe0400 00036100 3418f100  ..........a.4...
 0450 00001f04 00000362 003422f1 00000031  .......b.4"....1
 0460 04000001 46010000 360ea800 00004304  ....F...6.....C.
 0470 00000b4d 01000037 a8000000 015608aa  ...M...7.....V..
 0480 00000038 0d9c0000 0001b000 0000390d  ...8..........9.
 0490 9c000000 7e040000 01b60000 003a0ea8  ....~........:..
 04a0 000000a3 04000001 bd000000 3b0ea800  ............;...
 04b0 0000c404 000001cc 0100004f 0d9c0000  ...........O....
 04c0 00e90400 00015d01 0000500e a8000000  ......]...P.....
 04d0 02050000 01250100 00510d9c 00000026  .....%...Q.....&
 04e0 05000001 69000000 520ec000 00005605  ....i...R.....V.
 04f0 00000005 0a020000 2c070105 0000c000  ........,.......
 0500 01000800 0000019c 01050000 0376616c  .............val
 0510 002c1af1 00000073 05000001 0a010000  .,.....s........
 0520 2e0ec000 00007c05 0000083b 0200002f  ......|....;.../
 0530 0b010500 00000204 04c60100 0005eb01  ................
 0540 00002208 f1000000 90000100 30000000  ..".........0...
 0550 019c4005 00000376 616c0022 1a010500  ..@....val."....
 0560 008d0500 00010a01 0000240e c0000000  ..........$.....
 0570 9d050000 0005fe00 00001d06 67050000  ............g...
 0580 84000100 0c000000 019c6705 00000361  ..........g....a
 0590 001d19f1 000000b6 05000000 02010216  ................
 05a0 02000005 4c000000 17066705 00006800  ....L.....g...h.
 05b0 01001c00 0000019c 95050000 03610017  .............a..
 05c0 18f10000 00bf0500 0000053b 01000011  ...........;....
 05d0 06670500 003c0001 002c0000 00019cbc  .g...<...,......
 05e0 05000003 61001118 f1000000 c8050000  ....a...........
 05f0 00150102 00000102 000000             ...........     
Contents of section .debug_abbrev:
 0000 01110110 06110112 01030e1b 0e250e13  .............%..
 0010 05000002 2e00030e 3f0c1101 12010000  ........?.......
 0020 00013400 030e3a21 013b0b39 0b491302  ..4...:!.;.9.I..
 0030 17000002 24000b0b 3e0b030e 00000305  ....$...>.......
 0040 0003083a 21013b0b 390b4913 02170000  ...:!.;.9.I.....
 0050 04160003 0e3a0b3b 0b390b49 13000005  .....:.;.9.I....
 0060 2e013f19 030e3a21 013b0b39 0b271949  ..?...:!.;.9.'.I
 0070 13110112 0640187a 19011300 00063400  .....@.z......4.
 0080 030e3a21 013b0539 0b491302 17000007  ..:!.;.9.I......
 0090 34000308 3a21013b 05390b49 13021700  4...:!.;.9.I....
 00a0 00083400 030e3a21 013b0b39 0b491300  ..4...:!.;.9.I..
 00b0 00090b01 55170000 0a48007d 017f1300  ....U....H.}....
 00c0 000b3400 030e3a21 013b0b39 210e4913  ..4...:!.;.9!.I.
 00d0 02180000 0c110125 0e130b03 1f1b1f55  .......%.......U
 00e0 17110110 1700000d 24000b0b 3e0b0308  ........$...>...
 00f0 00000e13 010b0b3a 0b3b0b39 0b011300  .......:.;.9....
 0100 000f0d00 030e3a0b 3b0b390b 4913380b  ......:.;.9.I.8.
 0110 0000102e 003f1903 0e3a0b3b 05390b27  .....?...:.;.9.'
 0120 19491311 01120640 187a1900 00112e01  .I.....@.z......
 0130 3f19030e 3a0b3b05 390b2719 49131101  ?...:.;.9.'.I...
 0140 12064018 7a190113 00001205 0003083a  ..@.z..........:
 0150 0b3b0539 0b491302 17000013 34000308  .;.9.I......4...
 0160 3a0b3b0b 390b4913 02170000 1448007d  :.;.9.I......H.}
 0170 01820119 7f130000 152e003f 193c196e  ...........?.<.n
 0180 0e030e00 0000                        ......          
Contents of section .debug_aranges:
 0000 1c000000 02000000 00000400 00000000  ................
 0010 00000100 3c000000 00000000 00000000  ....<...........
 0020 24000000 02003500 00000400 00000000  $.....5.........
 0030 3c000100 7c060000 d0060100 08000000  <...|...........
 0040 00000000 00000000                    ........        
Contents of section .debug_str:
 0000 73746172 742e5300 2f686f6d 652f696e  start.S./home/in
 0010 69617569 2f434132 352d4173 7369676e  iaui/CA25-Assign
 0020 6d656e74 2d322f71 75697a31 5f70726f  ment-2/quiz1_pro
 0030 626c656d 5f630047 4e552041 5320322e  blem_c.GNU AS 2.
 0040 34332e31 005f7374 61727400 62663136  43.1._start.bf16
 0050 5f697369 6e660062 6631365f 73756200  _isinf.bf16_sub.
 0060 71756f74 69656e74 00726573 756c745f  quotient.result_
 0070 6d616e74 00626631 365f7400 6e65775f  mant.bf16_t.new_
 0080 6d616e74 006c6f6e 67206c6f 6e672075  mant.long long u
 0090 6e736967 6e656420 696e7400 6c6f6e67  nsigned int.long
 00a0 206c6f6e 6720696e 74006578 705f6100   long int.exp_a.
 00b0 6578705f 62006d61 6e745f61 006d616e  exp_b.mant_a.man
 00c0 745f6200 62663136 5f6d756c 00646976  t_b.bf16_mul.div
 00d0 6964656e 64005f5f 75696e74 33325f74  idend.__uint32_t
 00e0 005f5f69 6e743136 5f740062 6631365f  .__int16_t.bf16_
 00f0 73717274 00626631 365f6469 76006266  sqrt.bf16_div.bf
 0100 31365f69 737a6572 6f006633 32626974  16_iszero.f32bit
 0110 73007368 6f727420 756e7369 676e6564  s.short unsigned
 0120 20696e74 00726573 756c745f 65787000   int.result_exp.
 0130 6578705f 61646a75 73740062 6631365f  exp_adjust.bf16_
 0140 69736e61 6e007369 676e5f61 00736967  isnan.sign_a.sig
 0150 6e5f6200 62663136 5f616464 00726573  n_b.bf16_add.res
 0160 756c745f 7369676e 00474e55 20433137  ult_sign.GNU C17
 0170 2031342e 322e3020 2d6d6162 693d696c   14.2.0 -mabi=il
 0180 70333220 2d6d6973 612d7370 65633d32  p32 -misa-spec=2
 0190 30313931 32313320 2d6d6172 63683d72  0191213 -march=r
 01a0 76333269 5f7a6963 7372202d 67202d4f  v32i_zicsr -g -O
 01b0 73006c6f 6e672064 6f75626c 65006469  s.long double.di
 01c0 7669736f 7200666c 6f617400 6578705f  visor.float.exp_
 01d0 64696666 006e6577 5f657870 00756e73  diff.new_exp.uns
 01e0 69676e65 64206368 61720066 33325f74  igned char.f32_t
 01f0 6f5f6266 31360073 686f7274 20696e74  o_bf16.short int
 0200 005f5f6d 756c7369 33006266 31365f74  .__mulsi3.bf16_t
 0210 6f5f6633 32005f42 6f6f6c00 5f5f7569  o_f32._Bool.__ui
 0220 6e743136 5f74005f 5f696e74 33325f74  nt16_t.__int32_t
 0230 00686967 68006d61 696e0072 6573756c  .high.main.resul
 0240 7400                                 t.              
Contents of section .debug_loclists:
 0000 cd050000 05000400 00000000 08600501  .............`..
 0010 0004015a 00069805 01000400 20015e04  ...Z........ .^.
 0020 445c015e 045c6404 7e001f9f 049801ac  D\.^.\d.~.......
 0030 01015e00 06980501 00040020 015f0444  ..^........ ._.D
 0040 70015f04 9801b801 015f04b8 01bc0104  p._......_......
 0050 7f80019f 04bc01c4 010478ff 009f0006  ..........x.....
 0060 9c050100 04001c01 62044060 01620494  ........b.@`.b..
 0070 01ac0101 620006fc 05010004 00040158  ....b..........X
 0080 04040c04 7f817f9f 04446001 58000608  .........D`.X...
 0090 06010004 00280158 0454b001 01580006  .....(.X.T...X..
 00a0 fc050100 04003401 62044cbc 01016200  ......4.b.L...b.
 00b0 065c0601 0004000c 03085a9f 04282c03  .\........Z..(,.
 00c0 83019f04 2c300164 00060806 01000400  ....,0.d........
 00d0 04016504 08280165 04546004 0a00019f  ..e..(.e.T`.....
 00e0 0460b001 01650006 08060100 04002801  .`...e........(.
 00f0 59045460 0308809f 0460fc00 015904fc  Y.T`.....`...Y..
 0100 00840101 63048401 a0010159 0008a006  ....c......Y....
 0110 01000806 7900087f 1a9f0006 08060100  ....y...........
 0120 04002801 630468b0 01016300 06080601  ..(.c.h...c.....
 0130 00040008 07830012 1e37259f 04688401  .........7%..h..
 0140 07830012 1e37259f 00081c04 01000c01  .....7%.........
 0150 5a00081c 04010004 015b0006 44040100  Z........[..D...
 0160 04002801 5e043048 015e0460 b001015e  ..(.^.0H.^.`...^
 0170 0494029c 02015e00 06440401 00040028  ......^..D.....(
 0180 015c0430 48015c04 60bc0101 5c049402  .\.0H.\.`...\...
 0190 9c02015c 00064804 01000400 24015f04  ...\..H.....$._.
 01a0 2c3c015f 045c6401 5f046884 01015f04  ,<._.\d._.h..._.
 01b0 90029402 015f0494 02980206 7a00087f  ....._......z...
 01c0 1a9f0006 4c040100 04002001 61042840  ....L..... .a.(@
 01d0 01610458 70016104 70740681 00088021  .a.Xp.a.pt.....!
 01e0 9f047494 02016100 08c40401 002c015d  ..t...a......,.]
 01f0 0008c404 01009401 01610006 c4040100  .........a......
 0200 04000c02 309f040c 68015f04 6874067f  ....0...h._.ht..
 0210 00087f1a 9f047480 01015a00 06f00401  ......t...Z.....
 0220 0004000c 047dff00 9f040c4c 015e0006  .....}.....L.^..
 0230 c4040100 04000c02 309f040c 20053f7b  ........0... .?{
 0240 001c9f04 20240540 7b001c9f 04249401  .... $.@{....$..
 0250 053f7b00 1c9f0006 54020100 04000801  .?{.....T.......
 0260 5a040840 035a9302 00065402 01000400  Z..@.Z....T.....
 0270 14015b04 1444035b 93020008 68020100  ..[..D.[....h...
 0280 2c057a00 3f259f00 08680201 0030057b  ,.z.?%...h...0.{
 0290 003f259f 00068802 01000400 30015e04  .?%.........0.^.
 02a0 4860015e 048001b4 01015e04 b401c001  H`.^......^.....
 02b0 02319f04 fc018402 015e0484 02880208  .1.......^......
 02c0 7c003725 08ff1a9f 049402a4 02015e04  |.7%..........^.
 02d0 a402a802 087c0037 2508ff1a 9f000690  .....|.7%.......
 02e0 02010004 0028015d 04405801 5d0478b8  .....(.].@X.].x.
 02f0 01015d04 b801f401 016304f4 01c80201  ..]......c......
 0300 5d04c802 84030163 00069402 01000400  ]......c........
 0310 24015a04 3c4c015a 044c5406 7c00087f  $.Z.<L.Z.LT.|...
 0320 1a9f0474 9401015a 04a001b4 01015a04  ...t...Z......Z.
 0330 f001c702 015a0006 98020100 04001801  .....Z..........
 0340 5b043850 015b0470 b001015b 04ec0180  [.8P.[.p...[....
 0350 02015b04 8402a402 015b04b0 02bc0201  ..[......[......
 0360 5b04c002 c302015b 00069c02 01000400  [......[........
 0370 5c058200 3f259f04 6c800305 82003f25  \...?%..l.....?%
 0380 9f00061c 03010004 00080159 04081003  ...........Y....
 0390 79019f04 1c680159 046c7402 309f048c  y....h.Y.lt.0...
 03a0 01940102 309f0494 019c0101 59049c01  ....0.......Y...
 03b0 a4010379 019f04b0 01b80101 5904bc01  ...y........Y...
 03c0 f8010159 00064803 01000400 04015a04  ...Y..H.......Z.
 03d0 0c3c015a 049401b0 01015a04 b401cc01  .<.Z......Z.....
 03e0 015a0006 48030100 04001801 5e04181c  .Z..H.......^...
 03f0 02309f04 1c2c015e 04a801cc 01015e00  .0...,.^......^.
 0400 08480201 000b015a 00064802 01000400  .H.....Z..H.....
 0410 00015b04 0008077b 80807e9f 93020006  ..[....{..~.....
 0420 c8000100 04000801 5a04080c 035a9302  ........Z....Z..
 0430 0006c800 01000400 10015b04 1024035b  ..........[..$.[
 0440 93020006 ec000100 0400ec01 015b04ec  .............[..
 0450 01f80105 80003f25 9f04f801 8002015b  ......?%.......[
 0460 048002c0 02058000 3f259f04 c002d402  ........?%......
 0470 015b04d4 02dc0205 80003f25 9f0006f8  .[........?%....
 0480 00010004 00580161 04585c08 7a003725  .....X.a.X\.z.7%
 0490 08ff1a9f 04b401d8 01016104 b402c802  ..........a.....
 04a0 01610006 fc000100 04008001 015c04b0  .a...........\..
 04b0 01c40101 5c04d401 9002015c 04b002cc  ....\......\....
 04c0 02015c00 06000101 0004005c 015f0464  ..\........\._.d
 04d0 6c015f04 ac01d801 015f04e4 01e80101  l._......_......
 04e0 5f04ac02 c002015f 00064801 01000400  _......_..H.....
 04f0 1c015e04 6474015e 04748801 047e001f  ..^.dt.^.t...~..
 0500 9f000668 01010004 0044015b 046c7c01  ...h.....D.[.l|.
 0510 5b047c88 01015604 8801ac01 015b04d8  [.|...V......[..
 0520 01dc0101 5b000664 01010004 0014015d  ....[..d.......]
 0530 04142003 7d7f9f04 2c48015d 044c6c01  .. .}...,H.].Ll.
 0540 61046c90 01015d04 9c01ac01 015d04dc  a.l...]......]..
 0550 01e00101 5d00066c 01010004 0030015f  ....]..l.....0._
 0560 046c7801 5f047cb0 01015f04 d401d801  .lx._.|..._.....
 0570 015f0008 c0000100 04015a00 08c00001  ._........Z.....
 0580 0004097a 000affff 1a40249f 00069000  ...z.....@$.....
 0590 01000400 10015a04 1030015e 00069000  ......Z..0.^....
 05a0 01000400 10015a04 14200a7a 00311a7e  ......Z.. .z.1.~
 05b0 ffff0122 9f000884 00010004 015a0008  ...".........Z..
 05c0 68000100 04015a00 083c0001 0010015a  h.....Z..<.....Z
 05d0 00                                   .               
Contents of section .debug_rnglists:
 0000 2f000000 05000400 00000000 05c40401  /...............
 0010 00040000 04082800 05080601 00040008  ......(.........
 0020 04608401 00073c00 0100fc0c 07d00601  .`....<.........
 0030 000800                               ...             
Contents of section .debug_line_str:
 0000 6d61696e 2e63002f 686f6d65 2f696e69  main.c./home/ini
 0010 6175692f 43413235 2d417373 69676e6d  aui/CA25-Assignm
 0020 656e742d 322f7175 697a315f 70726f62  ent-2/quiz1_prob
 0030 6c656d5f 63002f68 6f6d652f 696e6961  lem_c./home/inia
 0040 75692f72 69736376 2d6e6f6e 652d656c  ui/riscv-none-el
 0050 662d6763 632f7269 7363762d 6e6f6e65  f-gcc/riscv-none
 0060 2d656c66 2f696e63 6c756465 2f6d6163  -elf/include/mac
 0070 68696e65 002f686f 6d652f69 6e696175  hine./home/iniau
 0080 692f7269 7363762d 6e6f6e65 2d656c66  i/riscv-none-elf
 0090 2d676363 2f726973 63762d6e 6f6e652d  -gcc/riscv-none-
 00a0 656c662f 696e636c 7564652f 73797300  elf/include/sys.
 00b0 5f646566 61756c74 5f747970 65732e68  _default_types.h
 00c0 005f7374 64696e74 2e6800             ._stdint.h.     
Contents of section .debug_frame:
 0000 0c000000 ffffffff 0300017c 010c0200  ...........|....
 0010 0c000000 00000000 3c000100 2c000000  ........<...,...
 0020 0c000000 00000000 68000100 1c000000  ........h.......
 0030 0c000000 00000000 84000100 0c000000  ................
 0040 0c000000 00000000 90000100 30000000  ............0...
 0050 0c000000 00000000 c0000100 08000000  ................
 0060 0c000000 00000000 c8000100 80010000  ................
 0070 0c000000 00000000 48020100 0c000000  ........H.......
 0080 2c000000 00000000 54020100 c8010000  ,.......T.......
 0090 500e3060 92048101 88028903 93050268  P.0`...........h
 00a0 0ac144c8 44c944d2 44d3480e 00440b00  ..D.D.D.D.H..D..
 00b0 0c000000 00000000 1c040100 44010000  ............D...
 00c0 34000000 00000000 60050100 58010000  4.......`...X...
 00d0 4c0e2060 92048101 88028903 93059406  L. `............
 00e0 9507700a c144c844 c944d244 d344d444  ..p..D.D.D.D.D.D
 00f0 d5440e00 440b0000 0c000000 00000000  .D..D...........
 0100 d0060100 08000000                    ........        

Disassembly of section .text:

00010000 <_start>:
   10000:	00001117          	auipc	sp,0x1
   10004:	6e010113          	addi	sp,sp,1760 # 116e0 <__stack_top>
   10008:	00000297          	auipc	t0,0x0
   1000c:	6d028293          	addi	t0,t0,1744 # 106d8 <__bss_end>
   10010:	00000317          	auipc	t1,0x0
   10014:	6c830313          	addi	t1,t1,1736 # 106d8 <__bss_end>
   10018:	0062d863          	bge	t0,t1,10028 <_start+0x28>
   1001c:	0002a023          	sw	zero,0(t0)
   10020:	00428293          	addi	t0,t0,4
   10024:	ff5ff06f          	j	10018 <_start+0x18>
   10028:	6a8000ef          	jal	106d0 <main>
   1002c:	05d00893          	li	a7,93
   10030:	00000513          	li	a0,0
   10034:	00000073          	ecall
   10038:	0000006f          	j	10038 <_start+0x38>

0001003c <bf16_isnan>:
   1003c:	00008737          	lui	a4,0x8
   10040:	f8070713          	addi	a4,a4,-128 # 7f80 <_start-0x8080>
   10044:	01051793          	slli	a5,a0,0x10
   10048:	00a77533          	and	a0,a4,a0
   1004c:	0107d793          	srli	a5,a5,0x10
   10050:	00e51863          	bne	a0,a4,10060 <bf16_isnan+0x24>
   10054:	07f7f513          	andi	a0,a5,127
   10058:	00a03533          	snez	a0,a0
   1005c:	00008067          	ret
   10060:	00000513          	li	a0,0
   10064:	00008067          	ret

00010068 <bf16_isinf>:
   10068:	01151513          	slli	a0,a0,0x11
   1006c:	ffff87b7          	lui	a5,0xffff8
   10070:	08078793          	addi	a5,a5,128 # ffff8080 <__stack_top+0xfffe69a0>
   10074:	01155513          	srli	a0,a0,0x11
   10078:	00f50533          	add	a0,a0,a5
   1007c:	00153513          	seqz	a0,a0
   10080:	00008067          	ret

00010084 <bf16_iszero>:
   10084:	01151513          	slli	a0,a0,0x11
   10088:	00153513          	seqz	a0,a0
   1008c:	00008067          	ret

00010090 <f32_to_bf16>:
   10090:	00050713          	mv	a4,a0
   10094:	7f8007b7          	lui	a5,0x7f800
   10098:	00e7f6b3          	and	a3,a5,a4
   1009c:	01055513          	srli	a0,a0,0x10
   100a0:	00f68e63          	beq	a3,a5,100bc <f32_to_bf16+0x2c>
   100a4:	000087b7          	lui	a5,0x8
   100a8:	fff78793          	addi	a5,a5,-1 # 7fff <_start-0x8001>
   100ac:	00157513          	andi	a0,a0,1
   100b0:	00e787b3          	add	a5,a5,a4
   100b4:	00f50533          	add	a0,a0,a5
   100b8:	01055513          	srli	a0,a0,0x10
   100bc:	00008067          	ret

000100c0 <bf16_to_f32>:
   100c0:	01051513          	slli	a0,a0,0x10
   100c4:	00008067          	ret

000100c8 <bf16_add>:
   100c8:	01051813          	slli	a6,a0,0x10
   100cc:	01085813          	srli	a6,a6,0x10
   100d0:	01059513          	slli	a0,a1,0x10
   100d4:	01055513          	srli	a0,a0,0x10
   100d8:	00785713          	srli	a4,a6,0x7
   100dc:	0ff77713          	zext.b	a4,a4
   100e0:	00755893          	srli	a7,a0,0x7
   100e4:	0ff00e13          	li	t3,255
   100e8:	00f85593          	srli	a1,a6,0xf
   100ec:	00f55313          	srli	t1,a0,0xf
   100f0:	00070693          	mv	a3,a4
   100f4:	0ff8f893          	zext.b	a7,a7
   100f8:	07f87613          	andi	a2,a6,127
   100fc:	07f57793          	andi	a5,a0,127
   10100:	01c71c63          	bne	a4,t3,10118 <bf16_add+0x50>
   10104:	12061a63          	bnez	a2,10238 <bf16_add+0x170>
   10108:	12e89863          	bne	a7,a4,10238 <bf16_add+0x170>
   1010c:	12079c63          	bnez	a5,10244 <bf16_add+0x17c>
   10110:	10659e63          	bne	a1,t1,1022c <bf16_add+0x164>
   10114:	00008067          	ret
   10118:	13c88663          	beq	a7,t3,10244 <bf16_add+0x17c>
   1011c:	00e66e33          	or	t3,a2,a4
   10120:	120e0263          	beqz	t3,10244 <bf16_add+0x17c>
   10124:	0117ee33          	or	t3,a5,a7
   10128:	100e0863          	beqz	t3,10238 <bf16_add+0x170>
   1012c:	00070463          	beqz	a4,10134 <bf16_add+0x6c>
   10130:	08066613          	ori	a2,a2,128
   10134:	00088463          	beqz	a7,1013c <bf16_add+0x74>
   10138:	0807e793          	ori	a5,a5,128
   1013c:	41170733          	sub	a4,a4,a7
   10140:	01071e13          	slli	t3,a4,0x10
   10144:	010e5e13          	srli	t3,t3,0x10
   10148:	06e05263          	blez	a4,101ac <bf16_add+0xe4>
   1014c:	00800893          	li	a7,8
   10150:	00080513          	mv	a0,a6
   10154:	0ee8c863          	blt	a7,a4,10244 <bf16_add+0x17c>
   10158:	41c7d7b3          	sra	a5,a5,t3
   1015c:	01079793          	slli	a5,a5,0x10
   10160:	0107d793          	srli	a5,a5,0x10
   10164:	06659663          	bne	a1,t1,101d0 <bf16_add+0x108>
   10168:	00f607b3          	add	a5,a2,a5
   1016c:	1007f713          	andi	a4,a5,256
   10170:	08070e63          	beqz	a4,1020c <bf16_add+0x144>
   10174:	00168693          	addi	a3,a3,1
   10178:	01069613          	slli	a2,a3,0x10
   1017c:	01065613          	srli	a2,a2,0x10
   10180:	01069693          	slli	a3,a3,0x10
   10184:	0ff00713          	li	a4,255
   10188:	0017d793          	srli	a5,a5,0x1
   1018c:	4106d693          	srai	a3,a3,0x10
   10190:	06e61e63          	bne	a2,a4,1020c <bf16_add+0x144>
   10194:	ffff8537          	lui	a0,0xffff8
   10198:	000087b7          	lui	a5,0x8
   1019c:	00a87533          	and	a0,a6,a0
   101a0:	f8078793          	addi	a5,a5,-128 # 7f80 <_start-0x8080>
   101a4:	00f56533          	or	a0,a0,a5
   101a8:	00008067          	ret
   101ac:	fa070ce3          	beqz	a4,10164 <bf16_add+0x9c>
   101b0:	ff800693          	li	a3,-8
   101b4:	08d74863          	blt	a4,a3,10244 <bf16_add+0x17c>
   101b8:	40e00733          	neg	a4,a4
   101bc:	40e65633          	sra	a2,a2,a4
   101c0:	01061613          	slli	a2,a2,0x10
   101c4:	00088693          	mv	a3,a7
   101c8:	01065613          	srli	a2,a2,0x10
   101cc:	f99ff06f          	j	10164 <bf16_add+0x9c>
   101d0:	00f66a63          	bltu	a2,a5,101e4 <bf16_add+0x11c>
   101d4:	40f607b3          	sub	a5,a2,a5
   101d8:	00000513          	li	a0,0
   101dc:	02079463          	bnez	a5,10204 <bf16_add+0x13c>
   101e0:	00008067          	ret
   101e4:	40c787b3          	sub	a5,a5,a2
   101e8:	00030593          	mv	a1,t1
   101ec:	fedff06f          	j	101d8 <bf16_add+0x110>
   101f0:	fff68693          	addi	a3,a3,-1
   101f4:	01069693          	slli	a3,a3,0x10
   101f8:	4106d693          	srai	a3,a3,0x10
   101fc:	00179793          	slli	a5,a5,0x1
   10200:	04d05063          	blez	a3,10240 <bf16_add+0x178>
   10204:	0807f713          	andi	a4,a5,128
   10208:	fe0704e3          	beqz	a4,101f0 <bf16_add+0x128>
   1020c:	00769693          	slli	a3,a3,0x7
   10210:	00f59593          	slli	a1,a1,0xf
   10214:	00d5e5b3          	or	a1,a1,a3
   10218:	07f7f793          	andi	a5,a5,127
   1021c:	00f5e5b3          	or	a1,a1,a5
   10220:	01059513          	slli	a0,a1,0x10
   10224:	01055513          	srli	a0,a0,0x10
   10228:	00008067          	ret
   1022c:	00008537          	lui	a0,0x8
   10230:	fc050513          	addi	a0,a0,-64 # 7fc0 <_start-0x8040>
   10234:	00008067          	ret
   10238:	00080513          	mv	a0,a6
   1023c:	00008067          	ret
   10240:	00000513          	li	a0,0
   10244:	00008067          	ret

00010248 <bf16_sub>:
   10248:	ffff87b7          	lui	a5,0xffff8
   1024c:	00b7c5b3          	xor	a1,a5,a1
   10250:	e79ff06f          	j	100c8 <bf16_add>

00010254 <bf16_mul>:
   10254:	01051613          	slli	a2,a0,0x10
   10258:	01065613          	srli	a2,a2,0x10
   1025c:	01059793          	slli	a5,a1,0x10
   10260:	fd010113          	addi	sp,sp,-48
   10264:	0107d793          	srli	a5,a5,0x10
   10268:	00765713          	srli	a4,a2,0x7
   1026c:	03212023          	sw	s2,32(sp)
   10270:	0077d693          	srli	a3,a5,0x7
   10274:	02112623          	sw	ra,44(sp)
   10278:	02812423          	sw	s0,40(sp)
   1027c:	02912223          	sw	s1,36(sp)
   10280:	01312e23          	sw	s3,28(sp)
   10284:	0ff77713          	zext.b	a4,a4
   10288:	0ff00813          	li	a6,255
   1028c:	0ff6f693          	zext.b	a3,a3
   10290:	07f67513          	andi	a0,a2,127
   10294:	07f7f593          	andi	a1,a5,127
   10298:	00c7c933          	xor	s2,a5,a2
   1029c:	03071a63          	bne	a4,a6,102d0 <bf16_mul+0x7c>
   102a0:	00060793          	mv	a5,a2
   102a4:	04051263          	bnez	a0,102e8 <bf16_mul+0x94>
   102a8:	000087b7          	lui	a5,0x8
   102ac:	00d5e5b3          	or	a1,a1,a3
   102b0:	fc078793          	addi	a5,a5,-64 # 7fc0 <_start-0x8040>
   102b4:	02058a63          	beqz	a1,102e8 <bf16_mul+0x94>
   102b8:	ffff87b7          	lui	a5,0xffff8
   102bc:	00008737          	lui	a4,0x8
   102c0:	00f977b3          	and	a5,s2,a5
   102c4:	f8070713          	addi	a4,a4,-128 # 7f80 <_start-0x8080>
   102c8:	00e7e7b3          	or	a5,a5,a4
   102cc:	01c0006f          	j	102e8 <bf16_mul+0x94>
   102d0:	03069c63          	bne	a3,a6,10308 <bf16_mul+0xb4>
   102d4:	00059a63          	bnez	a1,102e8 <bf16_mul+0x94>
   102d8:	000087b7          	lui	a5,0x8
   102dc:	00e56533          	or	a0,a0,a4
   102e0:	fc078793          	addi	a5,a5,-64 # 7fc0 <_start-0x8040>
   102e4:	fc051ae3          	bnez	a0,102b8 <bf16_mul+0x64>
   102e8:	02c12083          	lw	ra,44(sp)
   102ec:	02812403          	lw	s0,40(sp)
   102f0:	02412483          	lw	s1,36(sp)
   102f4:	02012903          	lw	s2,32(sp)
   102f8:	01c12983          	lw	s3,28(sp)
   102fc:	00078513          	mv	a0,a5
   10300:	03010113          	addi	sp,sp,48
   10304:	00008067          	ret
   10308:	00f95413          	srli	s0,s2,0xf
   1030c:	06071c63          	bnez	a4,10384 <bf16_mul+0x130>
   10310:	10050263          	beqz	a0,10414 <bf16_mul+0x1c0>
   10314:	08068463          	beqz	a3,1039c <bf16_mul+0x148>
   10318:	00000493          	li	s1,0
   1031c:	00151793          	slli	a5,a0,0x1
   10320:	fff48493          	addi	s1,s1,-1
   10324:	01079513          	slli	a0,a5,0x10
   10328:	01049493          	slli	s1,s1,0x10
   1032c:	0807f793          	andi	a5,a5,128
   10330:	01055513          	srli	a0,a0,0x10
   10334:	4104d493          	srai	s1,s1,0x10
   10338:	fe0782e3          	beqz	a5,1031c <bf16_mul+0xc8>
   1033c:	00100713          	li	a4,1
   10340:	06068863          	beqz	a3,103b0 <bf16_mul+0x15c>
   10344:	04c0006f          	j	10390 <bf16_mul+0x13c>
   10348:	00755513          	srli	a0,a0,0x7
   1034c:	07f57513          	andi	a0,a0,127
   10350:	0b00006f          	j	10400 <bf16_mul+0x1ac>
   10354:	00100793          	li	a5,1
   10358:	40e787b3          	sub	a5,a5,a4
   1035c:	00f55533          	srl	a0,a0,a5
   10360:	00000713          	li	a4,0
   10364:	ffff87b7          	lui	a5,0xffff8
   10368:	00f977b3          	and	a5,s2,a5
   1036c:	00a7e7b3          	or	a5,a5,a0
   10370:	00771713          	slli	a4,a4,0x7
   10374:	00e7e7b3          	or	a5,a5,a4
   10378:	01079793          	slli	a5,a5,0x10
   1037c:	0107d793          	srli	a5,a5,0x10
   10380:	f69ff06f          	j	102e8 <bf16_mul+0x94>
   10384:	02068063          	beqz	a3,103a4 <bf16_mul+0x150>
   10388:	08056513          	ori	a0,a0,128
   1038c:	00000493          	li	s1,0
   10390:	00068993          	mv	s3,a3
   10394:	0805e593          	ori	a1,a1,128
   10398:	03c0006f          	j	103d4 <bf16_mul+0x180>
   1039c:	f6059ee3          	bnez	a1,10318 <bf16_mul+0xc4>
   103a0:	0740006f          	j	10414 <bf16_mul+0x1c0>
   103a4:	06058863          	beqz	a1,10414 <bf16_mul+0x1c0>
   103a8:	08056513          	ori	a0,a0,128
   103ac:	00000493          	li	s1,0
   103b0:	00159793          	slli	a5,a1,0x1
   103b4:	fff48493          	addi	s1,s1,-1
   103b8:	01079593          	slli	a1,a5,0x10
   103bc:	01049493          	slli	s1,s1,0x10
   103c0:	0807f793          	andi	a5,a5,128
   103c4:	0105d593          	srli	a1,a1,0x10
   103c8:	4104d493          	srai	s1,s1,0x10
   103cc:	fe0782e3          	beqz	a5,103b0 <bf16_mul+0x15c>
   103d0:	00100993          	li	s3,1
   103d4:	00e12623          	sw	a4,12(sp)
   103d8:	2e0000ef          	jal	106b8 <__mulsi3>
   103dc:	00c12703          	lw	a4,12(sp)
   103e0:	01051793          	slli	a5,a0,0x10
   103e4:	01370733          	add	a4,a4,s3
   103e8:	f8170713          	addi	a4,a4,-127
   103ec:	00970733          	add	a4,a4,s1
   103f0:	f407dce3          	bgez	a5,10348 <bf16_mul+0xf4>
   103f4:	00855513          	srli	a0,a0,0x8
   103f8:	07f57513          	andi	a0,a0,127
   103fc:	00170713          	addi	a4,a4,1
   10400:	0fe00793          	li	a5,254
   10404:	eae7cae3          	blt	a5,a4,102b8 <bf16_mul+0x64>
   10408:	f4e04ee3          	bgtz	a4,10364 <bf16_mul+0x110>
   1040c:	ffa00793          	li	a5,-6
   10410:	f4f752e3          	bge	a4,a5,10354 <bf16_mul+0x100>
   10414:	00f41793          	slli	a5,s0,0xf
   10418:	ed1ff06f          	j	102e8 <bf16_mul+0x94>

0001041c <bf16_div>:
   1041c:	01059593          	slli	a1,a1,0x10
   10420:	0105d593          	srli	a1,a1,0x10
   10424:	01051513          	slli	a0,a0,0x10
   10428:	01055513          	srli	a0,a0,0x10
   1042c:	0075d613          	srli	a2,a1,0x7
   10430:	00755713          	srli	a4,a0,0x7
   10434:	00a5c833          	xor	a6,a1,a0
   10438:	0ff67613          	zext.b	a2,a2
   1043c:	0ff00693          	li	a3,255
   10440:	0ff77713          	zext.b	a4,a4
   10444:	07f57793          	andi	a5,a0,127
   10448:	07f5f893          	andi	a7,a1,127
   1044c:	00f85313          	srli	t1,a6,0xf
   10450:	02d61263          	bne	a2,a3,10474 <bf16_div+0x58>
   10454:	00058513          	mv	a0,a1
   10458:	04089a63          	bnez	a7,104ac <bf16_div+0x90>
   1045c:	00c71863          	bne	a4,a2,1046c <bf16_div+0x50>
   10460:	00008537          	lui	a0,0x8
   10464:	fc050513          	addi	a0,a0,-64 # 7fc0 <_start-0x8040>
   10468:	04078263          	beqz	a5,104ac <bf16_div+0x90>
   1046c:	00f31513          	slli	a0,t1,0xf
   10470:	00008067          	ret
   10474:	00c8e5b3          	or	a1,a7,a2
   10478:	02059663          	bnez	a1,104a4 <bf16_div+0x88>
   1047c:	00008537          	lui	a0,0x8
   10480:	00e7e7b3          	or	a5,a5,a4
   10484:	fc050513          	addi	a0,a0,-64 # 7fc0 <_start-0x8040>
   10488:	02078263          	beqz	a5,104ac <bf16_div+0x90>
   1048c:	ffff8537          	lui	a0,0xffff8
   10490:	000087b7          	lui	a5,0x8
   10494:	00a87533          	and	a0,a6,a0
   10498:	f8078793          	addi	a5,a5,-128 # 7f80 <_start-0x8080>
   1049c:	00f56533          	or	a0,a0,a5
   104a0:	00008067          	ret
   104a4:	00d71663          	bne	a4,a3,104b0 <bf16_div+0x94>
   104a8:	fe0782e3          	beqz	a5,1048c <bf16_div+0x70>
   104ac:	00008067          	ret
   104b0:	0a071463          	bnez	a4,10558 <bf16_div+0x13c>
   104b4:	fa078ce3          	beqz	a5,1046c <bf16_div+0x50>
   104b8:	00060463          	beqz	a2,104c0 <bf16_div+0xa4>
   104bc:	0808e893          	ori	a7,a7,128
   104c0:	00f79693          	slli	a3,a5,0xf
   104c4:	00f00593          	li	a1,15
   104c8:	00000793          	li	a5,0
   104cc:	fff00e13          	li	t3,-1
   104d0:	00b89533          	sll	a0,a7,a1
   104d4:	00179793          	slli	a5,a5,0x1
   104d8:	00a6e663          	bltu	a3,a0,104e4 <bf16_div+0xc8>
   104dc:	40a686b3          	sub	a3,a3,a0
   104e0:	0017e793          	ori	a5,a5,1
   104e4:	fff58593          	addi	a1,a1,-1
   104e8:	ffc594e3          	bne	a1,t3,104d0 <bf16_div+0xb4>
   104ec:	40c706b3          	sub	a3,a4,a2
   104f0:	00e03733          	snez	a4,a4
   104f4:	00d70733          	add	a4,a4,a3
   104f8:	07e70713          	addi	a4,a4,126
   104fc:	00163613          	seqz	a2,a2
   10500:	01079693          	slli	a3,a5,0x10
   10504:	00c70733          	add	a4,a4,a2
   10508:	0006ce63          	bltz	a3,10524 <bf16_div+0x108>
   1050c:	00100693          	li	a3,1
   10510:	00e6da63          	bge	a3,a4,10524 <bf16_div+0x108>
   10514:	00179793          	slli	a5,a5,0x1
   10518:	01079613          	slli	a2,a5,0x10
   1051c:	fff70713          	addi	a4,a4,-1
   10520:	fe0658e3          	bgez	a2,10510 <bf16_div+0xf4>
   10524:	0fe00693          	li	a3,254
   10528:	0087d793          	srli	a5,a5,0x8
   1052c:	f6e6c0e3          	blt	a3,a4,1048c <bf16_div+0x70>
   10530:	f2e05ee3          	blez	a4,1046c <bf16_div+0x50>
   10534:	07f7f513          	andi	a0,a5,127
   10538:	00771713          	slli	a4,a4,0x7
   1053c:	ffff87b7          	lui	a5,0xffff8
   10540:	00e56533          	or	a0,a0,a4
   10544:	00f87833          	and	a6,a6,a5
   10548:	01056533          	or	a0,a0,a6
   1054c:	01051513          	slli	a0,a0,0x10
   10550:	01055513          	srli	a0,a0,0x10
   10554:	00008067          	ret
   10558:	0807e793          	ori	a5,a5,128
   1055c:	f5dff06f          	j	104b8 <bf16_div+0x9c>

00010560 <bf16_sqrt>:
   10560:	01051513          	slli	a0,a0,0x10
   10564:	01055513          	srli	a0,a0,0x10
   10568:	fe010113          	addi	sp,sp,-32
   1056c:	00755793          	srli	a5,a0,0x7
   10570:	01212823          	sw	s2,16(sp)
   10574:	00112e23          	sw	ra,28(sp)
   10578:	00812c23          	sw	s0,24(sp)
   1057c:	00912a23          	sw	s1,20(sp)
   10580:	01312623          	sw	s3,12(sp)
   10584:	01412423          	sw	s4,8(sp)
   10588:	01512223          	sw	s5,4(sp)
   1058c:	0ff7f793          	zext.b	a5,a5
   10590:	0ff00693          	li	a3,255
   10594:	00f55713          	srli	a4,a0,0xf
   10598:	07f57913          	andi	s2,a0,127
   1059c:	04d79063          	bne	a5,a3,105dc <bf16_sqrt+0x7c>
   105a0:	00091c63          	bnez	s2,105b8 <bf16_sqrt+0x58>
   105a4:	00008537          	lui	a0,0x8
   105a8:	fc050513          	addi	a0,a0,-64 # 7fc0 <_start-0x8040>
   105ac:	00071663          	bnez	a4,105b8 <bf16_sqrt+0x58>
   105b0:	00008537          	lui	a0,0x8
   105b4:	f8050513          	addi	a0,a0,-128 # 7f80 <_start-0x8080>
   105b8:	01c12083          	lw	ra,28(sp)
   105bc:	01812403          	lw	s0,24(sp)
   105c0:	01412483          	lw	s1,20(sp)
   105c4:	01012903          	lw	s2,16(sp)
   105c8:	00c12983          	lw	s3,12(sp)
   105cc:	00812a03          	lw	s4,8(sp)
   105d0:	00412a83          	lw	s5,4(sp)
   105d4:	02010113          	addi	sp,sp,32
   105d8:	00008067          	ret
   105dc:	04079a63          	bnez	a5,10630 <bf16_sqrt+0xd0>
   105e0:	00000513          	li	a0,0
   105e4:	fc090ae3          	beqz	s2,105b8 <bf16_sqrt+0x58>
   105e8:	00008537          	lui	a0,0x8
   105ec:	fc050513          	addi	a0,a0,-64 # 7fc0 <_start-0x8040>
   105f0:	40e00733          	neg	a4,a4
   105f4:	00e57533          	and	a0,a0,a4
   105f8:	fc1ff06f          	j	105b8 <bf16_sqrt+0x58>
   105fc:	40145413          	srai	s0,s0,0x1
   10600:	07f40413          	addi	s0,s0,127
   10604:	0580006f          	j	1065c <bf16_sqrt+0xfc>
   10608:	fff98a93          	addi	s5,s3,-1
   1060c:	0800006f          	j	1068c <bf16_sqrt+0x12c>
   10610:	07f00793          	li	a5,127
   10614:	0897e663          	bltu	a5,s1,106a0 <bf16_sqrt+0x140>
   10618:	00100713          	li	a4,1
   1061c:	00149493          	slli	s1,s1,0x1
   10620:	fff40413          	addi	s0,s0,-1
   10624:	0697ee63          	bltu	a5,s1,106a0 <bf16_sqrt+0x140>
   10628:	fee41ae3          	bne	s0,a4,1061c <bf16_sqrt+0xbc>
   1062c:	0740006f          	j	106a0 <bf16_sqrt+0x140>
   10630:	00008537          	lui	a0,0x8
   10634:	fc050513          	addi	a0,a0,-64 # 7fc0 <_start-0x8040>
   10638:	f80710e3          	bnez	a4,105b8 <bf16_sqrt+0x58>
   1063c:	f8178413          	addi	s0,a5,-127 # ffff7f81 <__stack_top+0xfffe68a1>
   10640:	00147713          	andi	a4,s0,1
   10644:	08096913          	ori	s2,s2,128
   10648:	fa070ae3          	beqz	a4,105fc <bf16_sqrt+0x9c>
   1064c:	f8078793          	addi	a5,a5,-128
   10650:	4017d793          	srai	a5,a5,0x1
   10654:	00191913          	slli	s2,s2,0x1
   10658:	07f78413          	addi	s0,a5,127
   1065c:	08000493          	li	s1,128
   10660:	10000a93          	li	s5,256
   10664:	05a00a13          	li	s4,90
   10668:	015a09b3          	add	s3,s4,s5
   1066c:	0019d993          	srli	s3,s3,0x1
   10670:	00098593          	mv	a1,s3
   10674:	00098513          	mv	a0,s3
   10678:	040000ef          	jal	106b8 <__mulsi3>
   1067c:	00755513          	srli	a0,a0,0x7
   10680:	f8a964e3          	bltu	s2,a0,10608 <bf16_sqrt+0xa8>
   10684:	00198a13          	addi	s4,s3,1
   10688:	00098493          	mv	s1,s3
   1068c:	fd4afee3          	bgeu	s5,s4,10668 <bf16_sqrt+0x108>
   10690:	0ff00793          	li	a5,255
   10694:	f697fee3          	bgeu	a5,s1,10610 <bf16_sqrt+0xb0>
   10698:	0014d493          	srli	s1,s1,0x1
   1069c:	00140413          	addi	s0,s0,1
   106a0:	00741513          	slli	a0,s0,0x7
   106a4:	07f4f493          	andi	s1,s1,127
   106a8:	00956533          	or	a0,a0,s1
   106ac:	01051513          	slli	a0,a0,0x10
   106b0:	01055513          	srli	a0,a0,0x10
   106b4:	f05ff06f          	j	105b8 <bf16_sqrt+0x58>

000106b8 <__mulsi3>:
   106b8:	862a                	mv	a2,a0
   106ba:	4501                	li	a0,0
   106bc:	0015f693          	andi	a3,a1,1
   106c0:	c291                	beqz	a3,106c4 <__mulsi3+0xc>
   106c2:	9532                	add	a0,a0,a2
   106c4:	8185                	srli	a1,a1,0x1
   106c6:	0606                	slli	a2,a2,0x1
   106c8:	f9f5                	bnez	a1,106bc <__mulsi3+0x4>
   106ca:	8082                	ret
	...

Disassembly of section .text.startup:

000106d0 <main>:
   106d0:	00000513          	li	a0,0
   106d4:	00008067          	ret
