riscv-none-elf-objdump -Ds test.elf | less

test.elf:     file format elf32-littleriscv

Contents of section .text:
 10000 17210000 1301010a 97120000 9382e208  .!..............
 10010 17130000 13036308 63d86200 23a00200  ......c.c.b.#...
 10020 93824200 6ff05fff ef100003 9308d005  ..B.o._.........
 10030 13050000 73000000 6f000000 130101fe  ....s...o.......
 10040 232e1100 232c8100 13040102 2316a4fe  #...#,......#...
 10050 8357c4fe 13870700 b7870000 938707f8  .W..............
 10060 3377f700 b7870000 938707f8 631cf700  3w..........c...
 10070 8357c4fe 93f7f707 63860700 93071000  .W......c.......
 10080 6f008000 93070000 93f71700 93f7f70f  o...............
 10090 13850700 8320c101 03248101 13010102  ..... ...$......
 100a0 67800000 130101fe 232e1100 232c8100  g.......#...#,..
 100b0 13040102 2316a4fe 8357c4fe 13870700  ....#....W......
 100c0 b7870000 938707f8 3377f700 b7870000  ........3w......
 100d0 938707f8 631cf700 8357c4fe 93f7f707  ....c....W......
 100e0 63960700 93071000 6f008000 93070000  c.......o.......
 100f0 93f71700 93f7f70f 13850700 8320c101  ............. ..
 10100 03248101 13010102 67800000 130101fe  .$......g.......
 10110 232e1100 232c8100 13040102 2316a4fe  #...#,......#...
 10120 8357c4fe 13870700 b7870000 9387f7ff  .W..............
 10130 b377f700 93b71700 93f7f70f 13850700  .w..............
 10140 8320c101 03248101 13010102 67800000  . ...$......g...
 10150 130101fd 23261102 23248102 13040103  ....#&..#$......
 10160 232ea4fc 8327c4fd 2326f4fe 8327c4fe  #....'..#&...'..
 10170 93d77701 13f7f70f 9307f00f 631cf700  ..w.........c...
 10180 8327c4fe 93d70701 93970701 93d70701  .'..............
 10190 6f008003 8327c4fe 93d70701 13f71700  o....'..........
 101a0 8327c4fe 3307f700 b7870000 9387f7ff  .'..3...........
 101b0 b307f700 2326f4fe 8327c4fe 93d70701  ....#&...'......
 101c0 93970701 93d70701 13850700 8320c102  ............. ..
 101d0 03248102 13010103 67800000 130101fd  .$......g.......
 101e0 23261102 23248102 13040103 231ea4fc  #&..#$......#...
 101f0 8357c4fd 93970701 2326f4fe 8327c4fe  .W......#&...'..
 10200 2324f4fe 832784fe 13850700 8320c102  #$...'....... ..
 10210 03248102 13010103 67800000 130101fc  .$......g.......
 10220 232e1102 232c8102 13040104 2316a4fc  #...#,......#...
 10230 2314b4fc 8357c4fc 93d7f700 2311f4fe  #....W......#...
 10240 835784fc 93d7f700 2310f4fe 8357c4fc  .W......#....W..
 10250 93d77700 93970701 93d70701 93970701  ..w.............
 10260 93d70741 93f7f70f 231ff4fc 835784fc  ...A....#....W..
 10270 93d77700 93970701 93d70701 93970701  ..w.............
 10280 93d70741 93f7f70f 231ef4fc 8357c4fc  ...A....#....W..
 10290 93f7f707 2317f4fe 835784fc 93f7f707  ....#....W......
 102a0 2316f4fe 0317e4fd 9307f00f 6318f704  #...........c...
 102b0 8357e4fe 63860700 8357c4fc 6f00402c  .W..c....W..o.@,
 102c0 0317c4fd 9307f00f 6316f702 8357c4fe  ........c....W..
 102d0 639e0700 035724fe 835704fe 6308f700  c....W$..W..c...
 102e0 b787ffff 93c707fc 6f008029 835784fc  ........o..).W..
 102f0 6f000029 8357c4fc 6f008028 0317c4fd  o..).W..o..(....
 10300 9307f00f 6316f700 835784fc 6f004027  ....c....W..o.@'
 10310 8317e4fd 639a0700 8357e4fe 63960700  ....c....W..c...
 10320 835784fc 6f00c025 8317c4fd 639a0700  .W..o..%....c...
 10330 8357c4fe 63960700 8357c4fc 6f004024  .W..c....W..o.@$
 10340 8317e4fd 63880700 8357e4fe 93e70708  ....c....W......
 10350 2317f4fe 8317c4fd 63880700 8357c4fe  #.......c....W..
 10360 93e70708 2316f4fe 0357e4fd 8357c4fd  ....#....W...W..
 10370 b307f740 93970701 93d70701 231df4fc  ...@........#...
 10380 8317a4fd 635af002 8357e4fd 2314f4fe  ....cZ...W..#...
 10390 0317a4fd 93078000 63d6e700 8357c4fc  ........c....W..
 103a0 6f00001e 0357c4fe 8317a4fd b357f740  o....W.......W.@
 103b0 2316f4fe 6f008004 8317a4fd 63dc0702  #...o.......c...
 103c0 8357c4fd 2314f4fe 0317a4fd 930780ff  .W..#...........
 103d0 6356f700 835784fc 6f00801a 0357e4fe  cV...W..o....W..
 103e0 8317a4fd b307f040 b357f740 2317f4fe  .......@.W.@#...
 103f0 6f00c000 8357e4fd 2314f4fe 035724fe  o....W..#....W$.
 10400 835704fe 6312f708 835724fe 2315f4fe  .W..c....W$.#...
 10410 0357e4fe 8357c4fe b307f700 2322f4fe  .W...W......#"..
 10420 832744fe 93f70710 6386070e 832744fe  .'D.....c....'D.
 10430 93d71700 2322f4fe 835784fe 93871700  ....#"...W......
 10440 93970701 93d70701 2314f4fe 031784fe  ........#.......
 10450 9307e00f 63d0e70c 8317a4fe 9397f700  ....c...........
 10460 13970701 13570741 b7870000 938707f8  .....W.A........
 10470 b367f700 93970701 93d70741 93970701  .g.........A....
 10480 93d70701 6f00c00f 0357e4fe 8357c4fe  ....o....W...W..
 10490 6360f702 835724fe 2315f4fe 0357e4fe  c`...W$.#....W..
 104a0 8357c4fe b307f740 2322f4fe 6f00c001  .W.....@#"..o...
 104b0 835704fe 2315f4fe 0357c4fe 8357e4fe  .W..#....W...W..
 104c0 b307f740 2322f4fe 832744fe 639e0702  ...@#"...'D.c...
 104d0 93070000 6f00c00a 832744fe 93971700  ....o....'D.....
 104e0 2322f4fe 835784fe 9387f7ff 93970701  #"...W..........
 104f0 93d70701 2314f4fe 831784fe 6346f000  ....#.......cF..
 10500 93070000 6f00c007 832744fe 93f70708  ....o....'D.....
 10510 e38407fc 8317a4fe 9397f700 13970701  ................
 10520 13570741 835784fe 93977700 93960701  .W.A.W....w.....
 10530 93d60641 b7870000 938707f8 b3f7f600  ...A............
 10540 93970701 93d70741 b367f700 93970701  .......A.g......
 10550 93d70741 13970701 13570701 832744fe  ...A.....W...'D.
 10560 93970701 93d70701 93f7f707 93970701  ................
 10570 93d70701 b367f700 93970701 93d70701  .....g..........
 10580 13850700 8320c103 03248103 13010104  ..... ...$......
 10590 67800000 130101fe 232e1100 232c8100  g.......#...#,..
 105a0 13040102 2316a4fe 2314b4fe 035784fe  ....#...#....W..
 105b0 b787ffff b347f700 93970701 93d70701  .....G..........
 105c0 2314f4fe 835784fe 93850700 8357c4fe  #....W.......W..
 105d0 13850700 eff09fc4 93070500 13850700  ................
 105e0 8320c101 03248101 13010102 67800000  . ...$......g...
 105f0 130101fc 232e1102 232c8102 13040104  ....#...#,......
 10600 2316a4fc 2314b4fc 8357c4fc 93d7f700  #...#....W......
 10610 231df4fc 835784fc 93d7f700 231cf4fc  #....W......#...
 10620 8357c4fc 93d77700 93970701 93d70701  .W....w.........
 10630 93970701 93d70741 93f7f70f 2317f4fe  .......A....#...
 10640 835784fc 93d77700 93970701 93d70701  .W....w.........
 10650 93970701 93d70741 93f7f70f 2316f4fe  .......A....#...
 10660 8357c4fc 93f7f707 2315f4fe 835784fc  .W......#....W..
 10670 93f7f707 2314f4fe 8357a4fd 13870700  ....#....W......
 10680 835784fd b347f700 231bf4fc 0317e4fe  .W...G..#.......
 10690 9307f00f 6310f706 8357a4fe 63860700  ....c....W..c...
 106a0 8357c4fc 6f00c030 8317c4fe 639c0700  .W..o..0....c...
 106b0 835784fe 63980700 b787ffff 93c707fc  .W..c...........
 106c0 6f00002f 831764fd 9397f700 13970701  o../..d.........
 106d0 13570741 b7870000 938707f8 b367f700  .W.A.........g..
 106e0 93970701 93d70741 93970701 93d70701  .......A........
 106f0 6f00002c 0317c4fe 9307f00f 6310f706  o..,........c...
 10700 835784fe 63860700 835784fc 6f00402a  .W..c....W..o.@*
 10710 8317e4fe 639c0700 8357a4fe 63980700  ....c....W..c...
 10720 b787ffff 93c707fc 6f008028 831764fd  ........o..(..d.
 10730 9397f700 13970701 13570741 b7870000  .........W.A....
 10740 938707f8 b367f700 93970701 93d70741  .....g.........A
 10750 93970701 93d70701 6f008025 8317e4fe  ........o..%....
 10760 63960700 8357a4fe 638a0700 8317c4fe  c....W..c.......
 10770 63900702 835784fe 639c0700 835764fd  c....W..c....Wd.
 10780 9397f700 93970701 93d70701 6f004022  ............o.@"
 10790 231304fe 8317e4fe 63940704 6f00c002  #.......c...o...
 107a0 8357a4fe 93971700 2315f4fe 831764fe  .W......#.....d.
 107b0 93970701 93d70701 9387f7ff 93970701  ................
 107c0 93d70701 2313f4fe 8357a4fe 93f70708  ....#....W......
 107d0 e38807fc 93071000 2317f4fe 6f000001  ........#...o...
 107e0 8357a4fe 93e70708 2315f4fe 8317c4fe  .W......#.......
 107f0 63940704 6f00c002 835784fe 93971700  c...o....W......
 10800 2314f4fe 831764fe 93970701 93d70701  #.....d.........
 10810 9387f7ff 93970701 93d70701 2313f4fe  ............#...
 10820 835784fe 93f70708 e38807fc 93071000  .W..............
 10830 2316f4fe 6f000001 835784fe 93e70708  #...o....W......
 10840 2314f4fe 8357a4fe 035784fe 93050700  #....W...W......
 10850 13850700 ef00d002 93070500 2320f4fe  ............# ..
 10860 0317e4fe 8317c4fe b307f700 138717f8  ................
 10870 831764fe b307f700 232ef4fc 032704fe  ..d.....#....'..
 10880 b7870000 b377f700 63820702 832704fe  .....w..c....'..
 10890 93d78700 93f7f707 2320f4fe 8327c4fd  ........# ...'..
 108a0 93871700 232ef4fc 6f004001 832704fe  ....#...o.@..'..
 108b0 93d77700 93f7f707 2320f4fe 0327c4fd  ..w.....# ...'..
 108c0 9307e00f 63dae702 831764fd 9397f700  ....c.....d.....
 108d0 13970701 13570741 b7870000 938707f8  .....W.A........
 108e0 b367f700 93970701 93d70741 93970701  .g.........A....
 108f0 93d70701 6f00c00b 8327c4fd 6340f004  ....o....'..c@..
 10900 0327c4fd 9307a0ff 635cf700 835764fd  .'......c\...Wd.
 10910 9397f700 93970701 93d70701 6f004009  ............o.@.
 10920 13071000 8327c4fd b307f740 032704fe  .....'.....@.'..
 10930 b357f700 2320f4fe 232e04fc 831764fd  .W..# ..#.....d.
 10940 9397f700 13970701 13570741 8327c4fd  .........W.A.'..
 10950 93970701 93d70741 93977700 93960701  .......A..w.....
 10960 93d60641 b7870000 938707f8 b3f7f600  ...A............
 10970 93970701 93d70741 b367f700 93970701  .......A.g......
 10980 93d70741 13970701 13570701 832704fe  ...A.....W...'..
 10990 93970701 93d70701 93f7f707 93970701  ................
 109a0 93d70701 b367f700 93970701 93d70701  .....g..........
 109b0 13850700 8320c103 03248103 13010104  ..... ...$......
 109c0 67800000 130101fb 23261104 23248104  g.......#&..#$..
 109d0 13040105 231ea4fa 231cb4fa 8357c4fb  ....#...#....W..
 109e0 93d7f700 231df4fc 835784fb 93d7f700  ....#....W......
 109f0 231cf4fc 8357c4fb 93d77700 93970701  #....W....w.....
 10a00 93d70701 93970701 93d70741 93f7f70f  ...........A....
 10a10 231bf4fc 835784fb 93d77700 93970701  #....W....w.....
 10a20 93d70701 93970701 93d70741 93f7f70f  ...........A....
 10a30 231af4fc 8357c4fb 93f7f707 2317f4fe  #....W......#...
 10a40 835784fb 93f7f707 2316f4fe 8357a4fd  .W......#....W..
 10a50 13870700 835784fd b347f700 2319f4fc  .....W...G..#...
 10a60 031744fd 9307f00f 6314f704 8357c4fe  ..D.....c....W..
 10a70 63860700 835784fb 6f00c032 031764fd  c....W..o..2..d.
 10a80 9307f00f 631cf700 8357e4fe 63980700  ....c....W..c...
 10a90 b787ffff 93c707fc 6f00c030 835724fd  ........o..0.W$.
 10aa0 9397f700 93970701 93d70701 6f00802f  ............o../
 10ab0 831744fd 639c0704 8357c4fe 63980704  ..D.c....W..c...
 10ac0 831764fd 639c0700 8357e4fe 63980700  ..d.c....W..c...
 10ad0 b787ffff 93c707fc 6f00c02c 831724fd  ........o..,..$.
 10ae0 9397f700 13970701 13570741 b7870000  .........W.A....
 10af0 938707f8 b367f700 93970701 93d70741  .....g.........A
 10b00 93970701 93d70701 6f00c029 031764fd  ........o..)..d.
 10b10 9307f00f 6312f704 8357e4fe 63860700  ....c....W..c...
 10b20 8357c4fb 6f000028 831724fd 9397f700  .W..o..(..$.....
 10b30 13970701 13570741 b7870000 938707f8  .....W.A........
 10b40 b367f700 93970701 93d70741 93970701  .g.........A....
 10b50 93d70701 6f000025 831764fd 63900702  ....o..%..d.c...
 10b60 8357e4fe 639c0700 835724fd 9397f700  .W..c....W$.....
 10b70 93970701 93d70701 6f00c022 831764fd  ........o.."..d.
 10b80 63880700 8357e4fe 93e70708 2317f4fe  c....W......#...
 10b90 831744fd 63880700 8357c4fe 93e70708  ..D.c....W......
 10ba0 2316f4fe 8357e4fe 9397f700 2324f4fe  #....W......#$..
 10bb0 8357c4fe 2326f4fc 232204fe 232004fe  .W..#&..#"..# ..
 10bc0 6f004006 832744fe 93971700 2322f4fe  o.@..'D.....#"..
 10bd0 1307f000 832704fe b307f740 0327c4fc  .....'.....@.'..
 10be0 b317f700 032784fe 6368f702 1307f000  .....'..ch......
 10bf0 832704fe b307f740 0327c4fc b317f700  .'.....@.'......
 10c00 032784fe b307f740 2324f4fe 832744fe  .'.....@#$...'D.
 10c10 93e71700 2322f4fe 832704fe 93871700  ....#"...'......
 10c20 2320f4fe 032704fe 9307f000 e3dce7f8  # ...'..........
 10c30 031764fd 831744fd b307f740 9387f707  ..d...D....@....
 10c40 232ef4fc 831764fd 63980700 8327c4fd  #.....d.c....'..
 10c50 9387f7ff 232ef4fc 831744fd 63980700  ....#.....D.c...
 10c60 8327c4fd 93871700 232ef4fc 032744fe  .'......#....'D.
 10c70 b7870000 b377f700 63860702 832744fe  .....w..c....'D.
 10c80 93d78700 2322f4fe 6f004004 832744fe  ....#"..o.@..'D.
 10c90 93971700 2322f4fe 8327c4fd 9387f7ff  ....#"...'......
 10ca0 232ef4fc 032744fe b7870000 b377f700  #....'D......w..
 10cb0 63980700 0327c4fd 93071000 e3c8e7fc  c....'..........
 10cc0 832744fe 93d78700 2322f4fe 832744fe  .'D.....#"...'D.
 10cd0 93f7f707 2322f4fe 0327c4fd 9307e00f  ....#"...'......
 10ce0 63dae702 831724fd 9397f700 13970701  c.....$.........
 10cf0 13570741 b7870000 938707f8 b367f700  .W.A.........g..
 10d00 93970701 93d70741 93970701 93d70701  .......A........
 10d10 6f004009 8327c4fd 634cf000 835724fd  o.@..'..cL...W$.
 10d20 9397f700 93970701 93d70701 6f008007  ............o...
 10d30 831724fd 9397f700 13970701 13570741  ..$..........W.A
 10d40 8327c4fd 93970701 93d70741 93977700  .'.........A..w.
 10d50 93960701 93d60641 b7870000 938707f8  .......A........
 10d60 b3f7f600 93970701 93d70741 b367f700  ...........A.g..
 10d70 93970701 93d70741 13970701 13570701  .......A.....W..
 10d80 832744fe 93970701 93d70701 93f7f707  .'D.............
 10d90 93970701 93d70701 b367f700 93970701  .........g......
 10da0 93d70701 13850700 8320c104 03248104  ......... ...$..
 10db0 13010105 67800000 130101fb 23261104  ....g.......#&..
 10dc0 23248104 13040105 231ea4fa 8357c4fb  #$......#....W..
 10dd0 93d7f700 231df4fc 8357c4fb 93d77700  ....#....W....w.
 10de0 93970701 93d70701 93970701 93d70741  ...............A
 10df0 93f7f70f 231cf4fc 8357c4fb 93f7f707  ....#....W......
 10e00 231bf4fc 031784fd 9307f00f 6318f702  #...........c...
 10e10 835764fd 63860700 8357c4fb 6f008022  .Wd.c....W..o.."
 10e20 8357a4fd 63880700 b787ffff 93c707fc  .W..c...........
 10e30 6f004021 8357c4fb 6f00c020 831784fd  o.@!.W..o.. ....
 10e40 639a0700 835764fd 63960700 93070000  c....Wd.c.......
 10e50 6f00401f 8357a4fd 63880700 b787ffff  o.@..W..c.......
 10e60 93c707fc 6f00001e 831784fd 63960700  ....o.......c...
 10e70 93070000 6f00001d 831784fd 938717f8  ....o...........
 10e80 2328f4fc 835764fd 93e70708 93970701  #(...Wd.........
 10e90 93d70701 2324f4fe 832704fd 93f71700  ....#$...'......
 10ea0 63840702 832784fe 93971700 2324f4fe  c....'......#$..
 10eb0 832704fd 9387f7ff 93d71740 9387f707  .'.........@....
 10ec0 2326f4fe 6f004001 832704fd 93d71740  #&..o.@..'.....@
 10ed0 9387f707 2326f4fe 9307a005 2322f4fe  ....#&......#"..
 10ee0 93070010 2320f4fe 93070008 232ef4fc  ....# ......#...
 10ef0 6f000006 032744fe 832704fe b307f700  o....'D..'......
 10f00 93d71700 2324f4fc 832584fc 032584fc  ....#$...%...%..
 10f10 ef000017 93070500 93d77700 2322f4fc  ..........w.#"..
 10f20 032744fc 832784fe 63eee700 832784fc  .'D..'..c....'..
 10f30 232ef4fc 832784fc 93871700 2322f4fe  #....'......#"..
 10f40 6f000001 832784fc 9387f7ff 2320f4fe  o....'......# ..
 10f50 032744fe 832704fe e3fee7f8 0327c4fd  .'D..'.......'..
 10f60 9307f00f 63f0e702 8327c4fd 93d71700  ....c....'......
 10f70 232ef4fc 8327c4fe 93871700 2326f4fe  #....'......#&..
 10f80 6f004004 0327c4fd 9307f007 63ece702  o.@..'......c...
 10f90 6f00c001 8327c4fd 93971700 232ef4fc  o....'......#...
 10fa0 8327c4fe 9387f7ff 2326f4fe 0327c4fd  .'......#&...'..
 10fb0 9307f007 63e8e700 0327c4fe 93071000  ....c....'......
 10fc0 e3cae7fc 8327c4fd 93970701 93d70701  .....'..........
 10fd0 93f7f707 2317f4fc 0327c4fe 9307e00f  ....#....'......
 10fe0 63d8e700 b787ffff 93c707f8 6f008005  c...........o...
 10ff0 8327c4fe 6346f000 93070000 6f008004  .'..cF......o...
 11000 8327c4fe 93970701 93d70741 93977700  .'.........A..w.
 11010 13970701 13570741 b7870000 938707f8  .....W.A........
 11020 b377f700 13970701 13570741 8317e4fc  .w.......W.A....
 11030 b367f700 93970701 93d70741 93970701  .g.........A....
 11040 93d70701 13850700 8320c104 03248104  ......... ...$..
 11050 13010105 67800000 130101ff 23261100  ....g.......#&..
 11060 23248100 13040101 93070000 13850700  #$..............
 11070 8320c100 03248100 13010101 67800000  . ...$......g...
 11080 2a860145 93f61500 91c23295 85810606  *..E......2.....
 11090 f5f98280 0000                        ......          
Contents of section .riscv.attributes:
 0000 414f0000 00726973 63760001 45000000  AO...riscv..E...
 0010 04100572 76333269 3270315f 6d327030  ...rv32i2p1_m2p0
 0020 5f613270 315f6332 70305f7a 69637372  _a2p1_c2p0_zicsr
 0030 3270305f 7a6d6d75 6c317030 5f7a6161  2p0_zmmul1p0_zaa
 0040 6d6f3170 305f7a61 6c727363 31703000  mo1p0_zalrsc1p0.
Contents of section .comment:
 0000 4743433a 20287850 61636b20 474e5520  GCC: (xPack GNU 
 0010 52495343 2d562045 6d626564 64656420  RISC-V Embedded 
 0020 47434320 7838365f 36342920 31342e32  GCC x86_64) 14.2
 0030 2e3000                               .0.             
Contents of section .debug_line:
 0000 71000000 02001b00 00000101 fb0e0a00  q...............
 0010 01010101 00000001 00737461 72742e53  .........start.S
 0020 00000000 00000502 00000100 16030309  ................
 0030 08000103 01090800 01030209 08000103  ................
 0040 01090400 01030109 04000103 01090400  ................
 0050 01030409 04000103 03090400 01030109  ................
 0060 04000103 01090400 01030409 04000109  ................
 0070 04000001 012a0c00 00050004 003c0000  .....*.......<..
 0080 00010101 fb0e0d00 01010101 00000001  ................
 0090 00000101 011f0300 00000057 000000b7  ...........W....
 00a0 00000002 011f020f 04500000 00005000  .........P....P.
 00b0 00000013 01000001 24010000 02050100  ........$.......
 00c0 05023c00 01000311 01050f03 01091400  ..<.............
 00d0 01051503 00090400 01053803 00091000  ..........8.....
 00e0 01050e03 01090c00 01051403 00090400  ................
 00f0 01053800 02040103 7f090400 01000204  ..8.............
 0100 03060300 09040001 03000904 00010002  ................
 0110 04040300 09040001 00020406 03000904  ................
 0120 00010501 06030209 08000103 03091400  ................
 0130 01050f03 01091400 01051503 00090400  ................
 0140 01053803 00091000 01050f03 01090c00  ..8.............
 0150 01051503 00090400 01053800 02040103  ..........8.....
 0160 7f090400 01000204 03060300 09040001  ................
 0170 03000904 00010002 04040300 09040001  ................
 0180 00020406 03000904 00010501 06030209  ................
 0190 08000103 03091400 01050f03 01091400  ................
 01a0 01051503 00090400 01050c03 00091000  ................
 01b0 01050103 01090800 01030309 14000105  ................
 01c0 05030209 14000105 13030109 08000105  ................
 01d0 1a030009 08000105 08030009 04000105  ................
 01e0 2b030109 08000105 10030009 08000105  +...............
 01f0 1a030109 0c000105 21030009 08000105  ........!.......
 0200 0d030009 04000105 26030109 18000105  ........&.......
 0210 0c030009 08000105 01030109 08000103  ................
 0220 03091400 01052703 01091400 01052e03  ......'.........
 0230 00090400 01050e03 00090400 01050503  ................
 0240 02090400 01050c03 01090800 01050103  ................
 0250 01090400 01030309 14000105 19030109  ................
 0260 18000105 0e030009 04000105 19030109  ................
 0270 08000105 0e030009 04000105 18030109  ................
 0280 08000105 24030009 04000105 0d030009  ....$...........
 0290 14000105 18030109 08000105 24030009  ............$...
 02a0 04000105 0d030009 14000105 18030109  ................
 02b0 08000105 0e030009 04000105 18030109  ................
 02c0 08000105 0e030009 04000105 08030209  ................
 02d0 08000105 0c030109 0c000105 14030109  ................
 02e0 08000105 0c030109 08000105 35030109  ............5...
 02f0 0c000105 1c000204 01030009 08000105  ................
 0300 35000204 03030009 0c000106 03000908  5...............
 0310 00010002 04040300 09040001 03000904  ................
 0320 00010510 06030109 04000105 08030209  ................
 0330 08000105 10030109 0c000105 08030109  ................
 0340 08000105 10000204 01030009 08000103  ................
 0350 01090800 01050803 01090800 01051000  ................
 0360 02040103 00090800 01030109 08000105  ................
 0370 08030109 08000105 10030109 08000105  ................
 0380 08030109 0c000105 10030109 08000105  ................
 0390 1e030209 0c000105 0d030009 14000105  ................
 03a0 08030509 04000105 14030109 08000105  ................
 03b0 0c030109 08000105 14030109 0c000105  ................
 03c0 10030109 08000105 0f030109 14000105  ................
 03d0 14030109 08000105 0c030109 08000105  ................
 03e0 14030109 0c000105 10030109 08000105  ................
 03f0 14030009 04000105 10030009 08000105  ................
 0400 14030209 0c000105 08030309 08000105  ................
 0410 15030109 0c000105 17030109 08000105  ................
 0420 29030009 04000105 15030009 04000105  )...............
 0430 19030209 08000105 0c030009 08000105  ................
 0440 19030109 04000105 11030109 0c000105  ................
 0450 10030009 10000105 3e030109 10000105  ........>.......
 0460 0c030309 30000105 19030109 0c000105  ....0...........
 0470 22030109 08000105 19030009 0c000103  "...............
 0480 02090800 01052203 01090800 01051903  ......".........
 0490 00090c00 01050c03 03090400 01051403  ................
 04a0 01090800 01051903 02090800 01051103  ................
 04b0 01090c00 01051003 00091000 01051803  ................
 04c0 01090c00 01051e03 7d090800 01051003  ........}.......
 04d0 00090800 01052503 08090400 01053c03  ......%.......<.
 04e0 00091000 01052503 00092400 01051e03  ......%...$.....
 04f0 01091400 01054203 7f091800 01050103  ......B.........
 0500 03090c00 01030309 14000105 06030109  ................
 0510 18000105 0c030009 04000103 01091400  ................
 0520 01050103 01091800 01030309 14000105  ................
 0530 19030109 18000105 0e030009 04000105  ................
 0540 19030109 08000105 0e030009 04000105  ................
 0550 18030109 08000105 24030009 04000105  ........$.......
 0560 0d030009 14000105 18030109 08000105  ................
 0570 24030009 04000105 0d030009 14000105  $...............
 0580 18030109 08000105 0e030009 04000105  ................
 0590 18030109 08000105 0e030009 04000103  ................
 05a0 02090800 01050803 02091400 01050c03  ................
 05b0 01090c00 01051403 01090800 01050c03  ................
 05c0 01090800 01051400 02040103 00090800  ................
 05d0 01030109 08000105 36030109 0c000105  ........6.......
 05e0 10030009 2c000105 08030209 04000105  ....,...........
 05f0 0c030109 0c000105 14030109 08000105  ................
 0600 0c030109 08000105 14000204 01030009  ................
 0610 08000103 01090800 01053603 01090c00  ..........6.....
 0620 01051003 00092c00 01050803 02090400  ......,.........
 0630 01051100 02040103 00090800 01051d00  ................
 0640 02040303 00090800 01052800 02040403  ..........(.....
 0650 00090800 01052e03 01090800 01050d03  ................
 0660 02091400 01050803 01090400 01050f03  ................
 0670 01090800 01051403 01090400 01051703  ................
 0680 01090c00 01051903 7e091c00 01051003  ........~.......
 0690 00090800 01050f03 04090400 01051003  ................
 06a0 02090c00 01050803 01090c00 01050f03  ................
 06b0 01090800 01051403 01090400 01051703  ................
 06c0 01090c00 01051903 7e091c00 01051003  ........~.......
 06d0 00090800 01050f03 04090400 01051003  ................
 06e0 02090c00 01051c03 02090c00 01052e03  ................
 06f0 00090400 01050e03 00090400 01051a03  ................
 0700 02091400 01052a03 00090400 01053203  ......*.......2.
 0710 00090800 01054203 00090400 01050d03  ......B.........
 0720 00090400 01051503 02090800 01050803  ................
 0730 00090c00 01052403 01090400 01051503  ......$.........
 0740 00090800 01051303 01090800 01052403  ..............$.
 0750 02091000 01051503 00090800 01050803  ................
 0760 02090800 01053603 01090c00 01050803  ......6.........
 0770 01093000 01050c03 01090800 01053203  ..0...........2.
 0780 01090c00 01051c03 01091400 01051503  ................
 0790 00090c00 01051403 01090c00 01053203  ..............2.
 07a0 03090400 01054903 00091000 01053203  ......I.......2.
 07b0 00092c00 01052b03 01091400 01054f03  ..,...+.......O.
 07c0 7f091800 01050103 02090c00 01030309  ................
 07d0 14000105 19030109 18000105 0e030009  ................
 07e0 04000105 19030109 08000105 0e030009  ................
 07f0 04000105 18030109 08000105 24030009  ............$...
 0800 04000105 0d030009 14000105 18030109  ................
 0810 08000105 24030009 04000105 0d030009  ....$...........
 0820 14000105 18030109 08000105 0e030009  ................
 0830 04000105 18030109 08000105 0e030009  ................
 0840 04000103 02090800 01050803 02091400  ................
 0850 01050c03 01090c00 01051403 01090800  ................
 0860 01050c03 02090800 01051b00 02040103  ................
 0870 00090c00 01051403 01090800 01052e03  ................
 0880 01090c00 01051003 00091000 01050803  ................
 0890 02090400 01051000 02040103 00090800  ................
 08a0 01050c03 01090800 01051400 02040103  ................
 08b0 00090800 01030109 08000105 36030109  ............6...
 08c0 0c000105 10030009 2c000105 08030209  ........,.......
 08d0 04000105 0c030109 0c000105 14030109  ................
 08e0 08000105 36030109 08000105 10030009  ....6...........
 08f0 2c000105 08030209 04000105 10000204  ,...............
 0900 01030009 08000105 2e030109 08000105  ................
 0910 08030209 14000105 10030109 08000105  ................
 0920 08030109 0c000105 10030109 08000105  ................
 0930 19030209 0c000105 0e030009 04000103  ................
 0940 01090800 01030109 08000103 02090400  ................
 0950 01050503 00090400 01051203 01090400  ................
 0960 01052903 01090c00 01052203 00090c00  ..).......".....
 0970 01050c03 00090800 01052903 01090800  ..........).....
 0980 01052203 00090c00 01051603 00090800  ..".............
 0990 01030109 0c000105 1e000204 02037c09  ..............|.
 09a0 0c000105 17000204 01030009 0c000105  ................
 09b0 1a030809 0c000105 2a030009 04000105  ........*.......
 09c0 0d030009 08000105 08030209 08000105  ................
 09d0 13030109 08000105 08030109 0c000105  ................
 09e0 13030109 08000105 12030209 0c000105  ................
 09f0 08030009 0c000105 12030109 04000105  ................
 0a00 16030309 10000105 17030109 0c000105  ................
 0a10 1b037e09 0c000105 25030009 0c000100  ..~.....%.......
 0a20 02040106 03000904 00010512 06030409  ................
 0a30 0c000105 0e030209 0c000105 08030209  ................
 0a40 0c000105 36030109 0c000105 08030109  ....6...........
 0a50 30000105 2e030109 08000105 32030109  0...........2...
 0a60 14000105 49030009 10000105 32030009  ....I.......2...
 0a70 2c000105 28030109 14000105 4f037f09  ,...(.......O...
 0a80 18000105 01030209 0c000103 03091400  ................
 0a90 01051703 01091400 01050e03 00090400  ................
 0aa0 01051603 01090800 01052203 00090400  ..........".....
 0ab0 01050d03 00091400 01051603 01090800  ................
 0ac0 01050e03 00090400 01050803 03090800  ................
 0ad0 01050c03 01090c00 01051403 01090800  ................
 0ae0 01050c03 01090800 01051403 01090800  ................
 0af0 01051003 01090c00 01050803 04090800  ................
 0b00 01050e00 02040103 00090800 01051003  ................
 0b10 01090800 01050803 03090800 01051003  ................
 0b20 01090800 01050803 03090c00 01051003  ................
 0b30 01090800 01051503 04090800 01050d03  ................
 0b40 00090400 01051703 04090800 01050e03  ................
 0b50 00091000 01050b03 03090400 01050803  ................
 0b60 00090800 01050b03 01090400 01051703  ................
 0b70 01090c00 01051c03 00090800 01051103  ................
 0b80 00090400 01051603 02090c00 01051103  ................
 0b90 00090800 01050e03 07090800 01030109  ................
 0ba0 08000103 01090800 01050b03 03090800  ................
 0bb0 01051d03 01090400 01051203 00090c00  ................
 0bc0 01051c03 01090800 01051203 00091000  ................
 0bd0 01050c03 02090800 01051403 01090c00  ................
 0be0 01051103 01090800 01051203 02091000  ................
 0bf0 01051003 78090c00 01050803 11090c00  ....x...........
 0c00 01051003 01090c00 01030109 0c000105  ................
 0c10 0f030109 10000103 01090c00 01051403  ................
 0c20 01090400 01030109 0c000105 1d037e09  ..............~.
 0c30 0c000100 02040106 0300090c 00010520  ............... 
 0c40 06030709 0c000105 0e030009 0c000105  ................
 0c50 08030309 08000105 10030109 0c000105  ................
 0c60 08030109 0c000105 10030109 08000105  ................
 0c70 30030209 08000105 36030009 2c000105  0.......6...,...
 0c80 01030109 18000103 03091400 01050c03  ................
 0c90 01091000 01050103 01090400 01091400  ................
 0ca0 000101                               ...             
Contents of section .debug_info:
 0000 31000000 02000000 00000401 00000000  1...............
 0010 00000100 3c000100 00000000 08000000  ....<...........
 0020 58000000 01800266 00000001 00000100  X......f........
 0030 40000100 007d0500 00050001 04210000  @....}.......!..
 0040 000a0502 00001d50 00000000 0000003c  .......P.......<
 0050 00010044 10000075 00000002 0106b701  ...D...u........
 0060 00000201 08b50100 00040201 00000237  ...............7
 0070 18400000 00020205 cf010000 04eb0100  .@..............
 0080 00023919 53000000 02020733 01000004  ..9.S......3....
 0090 f6010000 024d1866 00000002 0405c200  .....M.f........
 00a0 000004f7 00000002 4f197900 00000204  ........O.y.....
 00b0 07ab0000 00020805 bd000000 020807a6  ................
 00c0 0000000b 0405696e 74000204 07b00000  ......int.......
 00d0 00040401 00000320 13340000 0004ed01  ....... .4......
 00e0 00000324 14470000 0004f801 0000032c  ...$.G.........,
 00f0 135a0000 0004f900 00000330 146d0000  .Z.........0.m..
 0100 00021004 8a010000 020108be 0100000c  ................
 0110 02010509 f1000000 0d2e0100 0001060e  ................
 0120 a8000000 00000496 00000001 0703da00  ................
 0130 00000e4a 02000001 7401058e 00000058  ...J....t......X
 0140 10010028 00000001 9c0f0c01 00000119  ...(............
 0150 0108f100 0000b80d 0100a002 0000019c  ................
 0160 f8010000 10610001 190119f1 00000003  .....a..........
 0170 91bc7f05 85010000 1b010ea8 00000002  ................
 0180 915a0665 7870001c 010d9c00 00000291  .Z.exp..........
 0190 58059100 00001d01 0ea80000 00029156  X..............V
 01a0 06650036 010db400 00000291 5005ad01  .e.6........P...
 01b0 00003701 0db40000 0002916c 066d003a  ..7........l.m.:
 01c0 010ec000 00000291 68066c6f 77004801  ........h.low.H.
 01d0 0ec00000 00029164 05000200 0049010e  .......d.....I..
 01e0 c0000000 02916005 4f020000 4a010ec0  ......`.O...J...
 01f0 00000002 915c059d 00000069 010ea800  .....\.....i....
 0200 00000291 4e08f40e 01005c00 0000066d  ....N.....\....m
 0210 6964004e 0112c000 00000291 48067371  id.N........H.sq
 0220 004f0112 c0000000 02914400 00071601  .O........D.....
 0230 0000ce08 f1000000 c4090100 f4030000  ................
 0240 019cdd02 00000361 00ce18f1 00000003  .......a........
 0250 91bc7f03 6200ce22 f1000000 0391b87f  ....b.."........
 0260 01670100 00d00ea8 00000002 915a016e  .g...........Z.n
 0270 010000d1 0ea80000 00029158 01cb0000  ...........X....
 0280 00d20d9c 00000002 915601d1 000000d3  .........V......
 0290 0d9c0000 00029154 01d70000 00d40ea8  .......T........
 02a0 00000002 916e01de 000000d5 0ea80000  .....n..........
 02b0 0002916c 017e0100 00d70ea8 00000002  ...l.~..........
 02c0 915201ee 000000f3 0ec00000 00029168  .R.............h
 02d0 01960100 00f40ec0 00000002 914c0181  .............L..
 02e0 000000f5 0ec00000 00029164 01460100  ...........d.F..
 02f0 00ff0db4 00000002 915c08bc 0b010074  .........\.....t
 0300 00000011 690001f7 0e8e0000 00029160  ....i..........`
 0310 000009e5 00000089 f1000000 f0050100  ................
 0320 d4030000 019c9a03 00000361 008918f1  ...........a....
 0330 00000002 914c0362 008922f1 00000002  .....L.b..".....
 0340 91480167 0100008b 0ea80000 0002915a  .H.g...........Z
 0350 016e0100 008c0ea8 00000002 915801cb  .n...........X..
 0360 0000008d 0d9c0000 0002916e 01d10000  ...........n....
 0370 008e0d9c 00000002 916c01d7 0000008f  .........l......
 0380 0ea80000 0002916a 01de0000 00900ea8  .......j........
 0390 00000002 9168017e 01000092 0ea80000  .....h.~........
 03a0 00029156 01510100 00a50d9c 00000002  ...V.Q..........
 03b0 9166018a 000000b7 0ec00000 00029160  .f.............`
 03c0 01460100 00b90db4 00000002 915c0009  .F...........\..
 03d0 78000000 83f10000 00940501 005c0000  x............\..
 03e0 00019ccb 03000003 61008318 f1000000  ........a.......
 03f0 02916c03 62008322 f1000000 02916800  ..l.b.."......h.
 0400 07750100 003408f1 0000001c 02010078  .u...4.........x
 0410 03000001 9c890400 00036100 3418f100  ..........a.4...
 0420 00000291 4c036200 3422f100 00000291  ....L.b.4"......
 0430 48016701 0000360e a8000000 02916201  H.g...6.......b.
 0440 6e010000 370ea800 00000291 6001cb00  n...7.......`...
 0450 0000380d 9c000000 02915e01 d1000000  ..8.......^.....
 0460 390d9c00 00000291 5c01d700 00003a0e  9.......\.....:.
 0470 a8000000 02916e01 de000000 3b0ea800  ......n.....;...
 0480 00000291 6c01a401 00004f0d 9c000000  ....l.....O.....
 0490 02915a01 7e010000 500ea800 00000291  ..Z.~...P.......
 04a0 6a014601 0000510d 9c000000 02916801  j.F...Q.......h.
 04b0 8a000000 520ec000 00000291 640007d9  ....R.......d...
 04c0 0100002c 07cd0400 00dc0101 00400000  ...,.........@..
 04d0 00019ccd 04000003 76616c00 2c1af100  ........val.,...
 04e0 00000291 5c012b01 00002e0e c0000000  ....\.+.........
 04f0 02916c01 4f020000 2f0bcd04 00000291  ..l.O.../.......
 0500 68000204 049e0100 0007c301 00002208  h.............".
 0510 f1000000 50010100 8c000000 019c0a05  ....P...........
 0520 00000376 616c0022 1acd0400 0002915c  ...val.".......\
 0530 012b0100 00240ec0 00000002 916c0007  .+...$.......l..
 0540 1f010000 1d063005 00000c01 01004400  ......0.......D.
 0550 0000019c 30050000 0361001d 19f10000  ....0....a......
 0560 0002916c 00020102 e5010000 076d0000  ...l.........m..
 0570 00170630 050000a4 00010068 00000001  ...0.......h....
 0580 9c5d0500 00036100 1718f100 00000291  .]....a.........
 0590 6c00125c 01000001 11063005 00003c00  l..\......0...<.
 05a0 01006800 0000019c 03610011 18f10000  ..h......a......
 05b0 0002916c 0000                        ...l..          
Contents of section .debug_abbrev:
 0000 01110110 06110112 01030e1b 0e250e13  .............%..
 0010 05000002 2e00030e 3f0c1101 12010000  ........?.......
 0020 00013400 030e3a21 013b0b39 0b491302  ..4...:!.;.9.I..
 0030 18000002 24000b0b 3e0b030e 00000305  ....$...>.......
 0040 0003083a 21013b0b 390b4913 02180000  ...:!.;.9.I.....
 0050 04160003 0e3a0b3b 0b390b49 13000005  .....:.;.9.I....
 0060 3400030e 3a21013b 05390b49 13021800  4...:!.;.9.I....
 0070 00063400 03083a21 013b0539 0b491302  ..4...:!.;.9.I..
 0080 18000007 2e013f19 030e3a21 013b0b39  ......?...:!.;.9
 0090 0b271949 13110112 0640187a 19011300  .'.I.....@.z....
 00a0 00080b01 11011206 0000092e 013f1903  .............?..
 00b0 0e3a2101 3b0b3921 08271949 13110112  .:!.;.9!.'.I....
 00c0 0640187c 19011300 000a1101 250e130b  .@.|........%...
 00d0 031f1b1f 11011206 10170000 0b24000b  .............$..
 00e0 0b3e0b03 0800000c 13010b0b 3a0b3b0b  .>..........:.;.
 00f0 390b0113 00000d0d 00030e3a 0b3b0b39  9..........:.;.9
 0100 0b491338 0b00000e 2e003f19 030e3a0b  .I.8......?...:.
 0110 3b05390b 27194913 11011206 40187a19  ;.9.'.I.....@.z.
 0120 00000f2e 013f1903 0e3a0b3b 05390b27  .....?...:.;.9.'
 0130 19491311 01120640 187c1901 13000010  .I.....@.|......
 0140 05000308 3a0b3b05 390b4913 02180000  ....:.;.9.I.....
 0150 11340003 083a0b3b 0b390b49 13021800  .4...:.;.9.I....
 0160 00122e01 3f19030e 3a0b3b0b 390b2719  ....?...:.;.9.'.
 0170 49131101 12064018 7a190000 00        I.....@.z....   
Contents of section .debug_aranges:
 0000 1c000000 02000000 00000400 00000000  ................
 0010 00000100 3c000000 00000000 00000000  ....<...........
 0020 1c000000 02003500 00000400 00000000  ......5.........
 0030 3c000100 44100000 00000000 00000000  <...D...........
Contents of section .debug_str:
 0000 73746172 742e5300 2f686f6d 652f6766  start.S./home/gf
 0010 6667332f 72697363 762d6e6f 6e652d65  fg3/riscv-none-e
 0020 6c662d67 63632f72 76333265 6d753031  lf-gcc/rv32emu01
 0030 30322f72 76333265 6d752f74 65737473  02/rv32emu/tests
 0040 2f737973 74656d2f 7175697a 315f7072  /system/quiz1_pr
 0050 6f626c65 6d5f6300 474e5520 41532032  oblem_c.GNU AS 2
 0060 2e34332e 31005f73 74617274 00626631  .43.1._start.bf1
 0070 365f6973 696e6600 62663136 5f737562  6_isinf.bf16_sub
 0080 0071756f 7469656e 74007265 73756c74  .quotient.result
 0090 5f6d616e 74006266 31365f74 006e6577  _mant.bf16_t.new
 00a0 5f6d616e 74006c6f 6e67206c 6f6e6720  _mant.long long 
 00b0 756e7369 676e6564 20696e74 006c6f6e  unsigned int.lon
 00c0 67206c6f 6e672069 6e740065 78705f61  g long int.exp_a
 00d0 00657870 5f62006d 616e745f 61006d61  .exp_b.mant_a.ma
 00e0 6e745f62 00626631 365f6d75 6c006469  nt_b.bf16_mul.di
 00f0 76696465 6e64005f 5f75696e 7433325f  vidend.__uint32_
 0100 74005f5f 696e7431 365f7400 62663136  t.__int16_t.bf16
 0110 5f737172 74006266 31365f64 69760062  _sqrt.bf16_div.b
 0120 6631365f 69737a65 726f0066 33326269  f16_iszero.f32bi
 0130 74730073 686f7274 20756e73 69676e65  ts.short unsigne
 0140 6420696e 74007265 73756c74 5f657870  d int.result_exp
 0150 00657870 5f61646a 75737400 62663136  .exp_adjust.bf16
 0160 5f69736e 616e0073 69676e5f 61007369  _isnan.sign_a.si
 0170 676e5f62 00626631 365f6164 64007265  gn_b.bf16_add.re
 0180 73756c74 5f736967 6e006c6f 6e672064  sult_sign.long d
 0190 6f75626c 65006469 7669736f 7200666c  ouble.divisor.fl
 01a0 6f617400 6578705f 64696666 006e6577  oat.exp_diff.new
 01b0 5f657870 00756e73 69676e65 64206368  _exp.unsigned ch
 01c0 61720066 33325f74 6f5f6266 31360073  ar.f32_to_bf16.s
 01d0 686f7274 20696e74 00626631 365f746f  hort int.bf16_to
 01e0 5f663332 005f426f 6f6c005f 5f75696e  _f32._Bool.__uin
 01f0 7431365f 74005f5f 696e7433 325f7400  t16_t.__int32_t.
 0200 68696768 00474e55 20433137 2031342e  high.GNU C17 14.
 0210 322e3020 2d6d6162 693d696c 70333220  2.0 -mabi=ilp32 
 0220 2d6d6973 612d7370 65633d32 30313931  -misa-spec=20191
 0230 32313320 2d6d6172 63683d72 76333269  213 -march=rv32i
 0240 5f7a6963 7372202d 67006d61 696e0072  _zicsr -g.main.r
 0250 6573756c 7400                        esult.          
Contents of section .debug_line_str:
 0000 2f686f6d 652f6766 6667332f 72697363  /home/gffg3/risc
 0010 762d6e6f 6e652d65 6c662d67 63632f72  v-none-elf-gcc/r
 0020 76333265 6d753031 30322f72 76333265  v32emu0102/rv32e
 0030 6d752f74 65737473 2f737973 74656d2f  mu/tests/system/
 0040 7175697a 315f7072 6f626c65 6d5f6300  quiz1_problem_c.
 0050 6d61696e 2e63002f 686f6d65 2f676666  main.c./home/gff
 0060 67332f72 69736376 2d6e6f6e 652d656c  g3/riscv-none-el
 0070 662d6763 632f7870 61636b2d 72697363  f-gcc/xpack-risc
 0080 762d6e6f 6e652d65 6c662d67 63632d31  v-none-elf-gcc-1
 0090 342e322e 302d332f 72697363 762d6e6f  4.2.0-3/riscv-no
 00a0 6e652d65 6c662f69 6e636c75 64652f6d  ne-elf/include/m
 00b0 61636869 6e65002f 686f6d65 2f676666  achine./home/gff
 00c0 67332f72 69736376 2d6e6f6e 652d656c  g3/riscv-none-el
 00d0 662d6763 632f7870 61636b2d 72697363  f-gcc/xpack-risc
 00e0 762d6e6f 6e652d65 6c662d67 63632d31  v-none-elf-gcc-1
 00f0 342e322e 302d332f 72697363 762d6e6f  4.2.0-3/riscv-no
 0100 6e652d65 6c662f69 6e636c75 64652f73  ne-elf/include/s
 0110 7973005f 64656661 756c745f 74797065  ys._default_type
 0120 732e6800 5f737464 696e742e 6800      s.h._stdint.h.  
Contents of section .debug_frame:
 0000 0c000000 ffffffff 0300017c 010c0200  ...........|....
 0010 24000000 00000000 3c000100 68000000  $.......<...h...
 0020 440e2048 81018802 440c0800 024cc144  D. H....D....L.D
 0030 c80c0220 440e0000 24000000 00000000  ... D...$.......
 0040 a4000100 68000000 440e2048 81018802  ....h...D. H....
 0050 440c0800 024cc144 c80c0220 440e0000  D....L.D... D...
 0060 24000000 00000000 0c010100 44000000  $...........D...
 0070 440e2048 81018802 440c0800 68c144c8  D. H....D...h.D.
 0080 0c022044 0e000000 24000000 00000000  .. D....$.......
 0090 50010100 8c000000 440e3048 81018802  P.......D.0H....
 00a0 440c0800 0270c144 c80c0230 440e0000  D....p.D...0D...
 00b0 24000000 00000000 dc010100 40000000  $...........@...
 00c0 440e3048 81018802 440c0800 64c144c8  D.0H....D...d.D.
 00d0 0c023044 0e000000 24000000 00000000  ..0D....$.......
 00e0 1c020100 78030000 440e4048 81018802  ....x...D.@H....
 00f0 440c0800 035c03c1 44c80c02 40440e00  D....\..D...@D..
 0100 24000000 00000000 94050100 5c000000  $...........\...
 0110 440e2048 81018802 440c0800 0240c144  D. H....D....@.D
 0120 c80c0220 440e0000 24000000 00000000  ... D...$.......
 0130 f0050100 d4030000 440e4048 81018802  ........D.@H....
 0140 440c0800 03b803c1 44c80c02 40440e00  D.......D...@D..
 0150 24000000 00000000 c4090100 f4030000  $...............
 0160 440e5048 81018802 440c0800 03d803c1  D.PH....D.......
 0170 44c80c02 50440e00 24000000 00000000  D...PD..$.......
 0180 b80d0100 a0020000 440e5048 81018802  ........D.PH....
 0190 440c0800 038402c1 44c80c02 50440e00  D.......D...PD..
 01a0 24000000 00000000 58100100 28000000  $.......X...(...
 01b0 440e1048 81018802 440c0800 4cc144c8  D..H....D...L.D.
 01c0 0c021044 0e000000                    ...D....        

Disassembly of section .text:

00010000 <_start>:
   10000:	00002117          	auipc	sp,0x2
   10004:	0a010113          	addi	sp,sp,160 # 120a0 <__stack_top>
   10008:	00001297          	auipc	t0,0x1
   1000c:	08e28293          	addi	t0,t0,142 # 11096 <__bss_end>
   10010:	00001317          	auipc	t1,0x1
   10014:	08630313          	addi	t1,t1,134 # 11096 <__bss_end>
   10018:	0062d863          	bge	t0,t1,10028 <_start+0x28>
   1001c:	0002a023          	sw	zero,0(t0)
   10020:	00428293          	addi	t0,t0,4
   10024:	ff5ff06f          	j	10018 <_start+0x18>
   10028:	030010ef          	jal	11058 <main>
   1002c:	05d00893          	li	a7,93
   10030:	00000513          	li	a0,0
   10034:	00000073          	ecall
   10038:	0000006f          	j	10038 <_start+0x38>

0001003c <bf16_isnan>:
   1003c:	fe010113          	addi	sp,sp,-32
   10040:	00112e23          	sw	ra,28(sp)
   10044:	00812c23          	sw	s0,24(sp)
   10048:	02010413          	addi	s0,sp,32
   1004c:	fea41623          	sh	a0,-20(s0)
   10050:	fec45783          	lhu	a5,-20(s0)
   10054:	00078713          	mv	a4,a5
   10058:	000087b7          	lui	a5,0x8
   1005c:	f8078793          	addi	a5,a5,-128 # 7f80 <_start-0x8080>
   10060:	00f77733          	and	a4,a4,a5
   10064:	000087b7          	lui	a5,0x8
   10068:	f8078793          	addi	a5,a5,-128 # 7f80 <_start-0x8080>
   1006c:	00f71c63          	bne	a4,a5,10084 <bf16_isnan+0x48>
   10070:	fec45783          	lhu	a5,-20(s0)
   10074:	07f7f793          	andi	a5,a5,127
   10078:	00078663          	beqz	a5,10084 <bf16_isnan+0x48>
   1007c:	00100793          	li	a5,1
   10080:	0080006f          	j	10088 <bf16_isnan+0x4c>
   10084:	00000793          	li	a5,0
   10088:	0017f793          	andi	a5,a5,1
   1008c:	0ff7f793          	zext.b	a5,a5
   10090:	00078513          	mv	a0,a5
   10094:	01c12083          	lw	ra,28(sp)
   10098:	01812403          	lw	s0,24(sp)
   1009c:	02010113          	addi	sp,sp,32
   100a0:	00008067          	ret

000100a4 <bf16_isinf>:
   100a4:	fe010113          	addi	sp,sp,-32
   100a8:	00112e23          	sw	ra,28(sp)
   100ac:	00812c23          	sw	s0,24(sp)
   100b0:	02010413          	addi	s0,sp,32
   100b4:	fea41623          	sh	a0,-20(s0)
   100b8:	fec45783          	lhu	a5,-20(s0)
   100bc:	00078713          	mv	a4,a5
   100c0:	000087b7          	lui	a5,0x8
   100c4:	f8078793          	addi	a5,a5,-128 # 7f80 <_start-0x8080>
   100c8:	00f77733          	and	a4,a4,a5
   100cc:	000087b7          	lui	a5,0x8
   100d0:	f8078793          	addi	a5,a5,-128 # 7f80 <_start-0x8080>
   100d4:	00f71c63          	bne	a4,a5,100ec <bf16_isinf+0x48>
   100d8:	fec45783          	lhu	a5,-20(s0)
   100dc:	07f7f793          	andi	a5,a5,127
   100e0:	00079663          	bnez	a5,100ec <bf16_isinf+0x48>
   100e4:	00100793          	li	a5,1
   100e8:	0080006f          	j	100f0 <bf16_isinf+0x4c>
   100ec:	00000793          	li	a5,0
   100f0:	0017f793          	andi	a5,a5,1
   100f4:	0ff7f793          	zext.b	a5,a5
   100f8:	00078513          	mv	a0,a5
   100fc:	01c12083          	lw	ra,28(sp)
   10100:	01812403          	lw	s0,24(sp)
   10104:	02010113          	addi	sp,sp,32
   10108:	00008067          	ret

0001010c <bf16_iszero>:
   1010c:	fe010113          	addi	sp,sp,-32
   10110:	00112e23          	sw	ra,28(sp)
   10114:	00812c23          	sw	s0,24(sp)
   10118:	02010413          	addi	s0,sp,32
   1011c:	fea41623          	sh	a0,-20(s0)
   10120:	fec45783          	lhu	a5,-20(s0)
   10124:	00078713          	mv	a4,a5
   10128:	000087b7          	lui	a5,0x8
   1012c:	fff78793          	addi	a5,a5,-1 # 7fff <_start-0x8001>
   10130:	00f777b3          	and	a5,a4,a5
   10134:	0017b793          	seqz	a5,a5
   10138:	0ff7f793          	zext.b	a5,a5
   1013c:	00078513          	mv	a0,a5
   10140:	01c12083          	lw	ra,28(sp)
   10144:	01812403          	lw	s0,24(sp)
   10148:	02010113          	addi	sp,sp,32
   1014c:	00008067          	ret

00010150 <f32_to_bf16>:
   10150:	fd010113          	addi	sp,sp,-48
   10154:	02112623          	sw	ra,44(sp)
   10158:	02812423          	sw	s0,40(sp)
   1015c:	03010413          	addi	s0,sp,48
   10160:	fca42e23          	sw	a0,-36(s0)
   10164:	fdc42783          	lw	a5,-36(s0)
   10168:	fef42623          	sw	a5,-20(s0)
   1016c:	fec42783          	lw	a5,-20(s0)
   10170:	0177d793          	srli	a5,a5,0x17
   10174:	0ff7f713          	zext.b	a4,a5
   10178:	0ff00793          	li	a5,255
   1017c:	00f71c63          	bne	a4,a5,10194 <f32_to_bf16+0x44>
   10180:	fec42783          	lw	a5,-20(s0)
   10184:	0107d793          	srli	a5,a5,0x10
   10188:	01079793          	slli	a5,a5,0x10
   1018c:	0107d793          	srli	a5,a5,0x10
   10190:	0380006f          	j	101c8 <f32_to_bf16+0x78>
   10194:	fec42783          	lw	a5,-20(s0)
   10198:	0107d793          	srli	a5,a5,0x10
   1019c:	0017f713          	andi	a4,a5,1
   101a0:	fec42783          	lw	a5,-20(s0)
   101a4:	00f70733          	add	a4,a4,a5
   101a8:	000087b7          	lui	a5,0x8
   101ac:	fff78793          	addi	a5,a5,-1 # 7fff <_start-0x8001>
   101b0:	00f707b3          	add	a5,a4,a5
   101b4:	fef42623          	sw	a5,-20(s0)
   101b8:	fec42783          	lw	a5,-20(s0)
   101bc:	0107d793          	srli	a5,a5,0x10
   101c0:	01079793          	slli	a5,a5,0x10
   101c4:	0107d793          	srli	a5,a5,0x10
   101c8:	00078513          	mv	a0,a5
   101cc:	02c12083          	lw	ra,44(sp)
   101d0:	02812403          	lw	s0,40(sp)
   101d4:	03010113          	addi	sp,sp,48
   101d8:	00008067          	ret

000101dc <bf16_to_f32>:
   101dc:	fd010113          	addi	sp,sp,-48
   101e0:	02112623          	sw	ra,44(sp)
   101e4:	02812423          	sw	s0,40(sp)
   101e8:	03010413          	addi	s0,sp,48
   101ec:	fca41e23          	sh	a0,-36(s0)
   101f0:	fdc45783          	lhu	a5,-36(s0)
   101f4:	01079793          	slli	a5,a5,0x10
   101f8:	fef42623          	sw	a5,-20(s0)
   101fc:	fec42783          	lw	a5,-20(s0)
   10200:	fef42423          	sw	a5,-24(s0)
   10204:	fe842783          	lw	a5,-24(s0)
   10208:	00078513          	mv	a0,a5
   1020c:	02c12083          	lw	ra,44(sp)
   10210:	02812403          	lw	s0,40(sp)
   10214:	03010113          	addi	sp,sp,48
   10218:	00008067          	ret

0001021c <bf16_add>:
   1021c:	fc010113          	addi	sp,sp,-64
   10220:	02112e23          	sw	ra,60(sp)
   10224:	02812c23          	sw	s0,56(sp)
   10228:	04010413          	addi	s0,sp,64
   1022c:	fca41623          	sh	a0,-52(s0)
   10230:	fcb41423          	sh	a1,-56(s0)
   10234:	fcc45783          	lhu	a5,-52(s0)
   10238:	00f7d793          	srli	a5,a5,0xf
   1023c:	fef41123          	sh	a5,-30(s0)
   10240:	fc845783          	lhu	a5,-56(s0)
   10244:	00f7d793          	srli	a5,a5,0xf
   10248:	fef41023          	sh	a5,-32(s0)
   1024c:	fcc45783          	lhu	a5,-52(s0)
   10250:	0077d793          	srli	a5,a5,0x7
   10254:	01079793          	slli	a5,a5,0x10
   10258:	0107d793          	srli	a5,a5,0x10
   1025c:	01079793          	slli	a5,a5,0x10
   10260:	4107d793          	srai	a5,a5,0x10
   10264:	0ff7f793          	zext.b	a5,a5
   10268:	fcf41f23          	sh	a5,-34(s0)
   1026c:	fc845783          	lhu	a5,-56(s0)
   10270:	0077d793          	srli	a5,a5,0x7
   10274:	01079793          	slli	a5,a5,0x10
   10278:	0107d793          	srli	a5,a5,0x10
   1027c:	01079793          	slli	a5,a5,0x10
   10280:	4107d793          	srai	a5,a5,0x10
   10284:	0ff7f793          	zext.b	a5,a5
   10288:	fcf41e23          	sh	a5,-36(s0)
   1028c:	fcc45783          	lhu	a5,-52(s0)
   10290:	07f7f793          	andi	a5,a5,127
   10294:	fef41723          	sh	a5,-18(s0)
   10298:	fc845783          	lhu	a5,-56(s0)
   1029c:	07f7f793          	andi	a5,a5,127
   102a0:	fef41623          	sh	a5,-20(s0)
   102a4:	fde41703          	lh	a4,-34(s0)
   102a8:	0ff00793          	li	a5,255
   102ac:	04f71863          	bne	a4,a5,102fc <bf16_add+0xe0>
   102b0:	fee45783          	lhu	a5,-18(s0)
   102b4:	00078663          	beqz	a5,102c0 <bf16_add+0xa4>
   102b8:	fcc45783          	lhu	a5,-52(s0)
   102bc:	2c40006f          	j	10580 <bf16_add+0x364>
   102c0:	fdc41703          	lh	a4,-36(s0)
   102c4:	0ff00793          	li	a5,255
   102c8:	02f71663          	bne	a4,a5,102f4 <bf16_add+0xd8>
   102cc:	fec45783          	lhu	a5,-20(s0)
   102d0:	00079e63          	bnez	a5,102ec <bf16_add+0xd0>
   102d4:	fe245703          	lhu	a4,-30(s0)
   102d8:	fe045783          	lhu	a5,-32(s0)
   102dc:	00f70863          	beq	a4,a5,102ec <bf16_add+0xd0>
   102e0:	ffff87b7          	lui	a5,0xffff8
   102e4:	fc07c793          	xori	a5,a5,-64
   102e8:	2980006f          	j	10580 <bf16_add+0x364>
   102ec:	fc845783          	lhu	a5,-56(s0)
   102f0:	2900006f          	j	10580 <bf16_add+0x364>
   102f4:	fcc45783          	lhu	a5,-52(s0)
   102f8:	2880006f          	j	10580 <bf16_add+0x364>
   102fc:	fdc41703          	lh	a4,-36(s0)
   10300:	0ff00793          	li	a5,255
   10304:	00f71663          	bne	a4,a5,10310 <bf16_add+0xf4>
   10308:	fc845783          	lhu	a5,-56(s0)
   1030c:	2740006f          	j	10580 <bf16_add+0x364>
   10310:	fde41783          	lh	a5,-34(s0)
   10314:	00079a63          	bnez	a5,10328 <bf16_add+0x10c>
   10318:	fee45783          	lhu	a5,-18(s0)
   1031c:	00079663          	bnez	a5,10328 <bf16_add+0x10c>
   10320:	fc845783          	lhu	a5,-56(s0)
   10324:	25c0006f          	j	10580 <bf16_add+0x364>
   10328:	fdc41783          	lh	a5,-36(s0)
   1032c:	00079a63          	bnez	a5,10340 <bf16_add+0x124>
   10330:	fec45783          	lhu	a5,-20(s0)
   10334:	00079663          	bnez	a5,10340 <bf16_add+0x124>
   10338:	fcc45783          	lhu	a5,-52(s0)
   1033c:	2440006f          	j	10580 <bf16_add+0x364>
   10340:	fde41783          	lh	a5,-34(s0)
   10344:	00078863          	beqz	a5,10354 <bf16_add+0x138>
   10348:	fee45783          	lhu	a5,-18(s0)
   1034c:	0807e793          	ori	a5,a5,128
   10350:	fef41723          	sh	a5,-18(s0)
   10354:	fdc41783          	lh	a5,-36(s0)
   10358:	00078863          	beqz	a5,10368 <bf16_add+0x14c>
   1035c:	fec45783          	lhu	a5,-20(s0)
   10360:	0807e793          	ori	a5,a5,128
   10364:	fef41623          	sh	a5,-20(s0)
   10368:	fde45703          	lhu	a4,-34(s0)
   1036c:	fdc45783          	lhu	a5,-36(s0)
   10370:	40f707b3          	sub	a5,a4,a5
   10374:	01079793          	slli	a5,a5,0x10
   10378:	0107d793          	srli	a5,a5,0x10
   1037c:	fcf41d23          	sh	a5,-38(s0)
   10380:	fda41783          	lh	a5,-38(s0)
   10384:	02f05a63          	blez	a5,103b8 <bf16_add+0x19c>
   10388:	fde45783          	lhu	a5,-34(s0)
   1038c:	fef41423          	sh	a5,-24(s0)
   10390:	fda41703          	lh	a4,-38(s0)
   10394:	00800793          	li	a5,8
   10398:	00e7d663          	bge	a5,a4,103a4 <bf16_add+0x188>
   1039c:	fcc45783          	lhu	a5,-52(s0)
   103a0:	1e00006f          	j	10580 <bf16_add+0x364>
   103a4:	fec45703          	lhu	a4,-20(s0)
   103a8:	fda41783          	lh	a5,-38(s0)
   103ac:	40f757b3          	sra	a5,a4,a5
   103b0:	fef41623          	sh	a5,-20(s0)
   103b4:	0480006f          	j	103fc <bf16_add+0x1e0>
   103b8:	fda41783          	lh	a5,-38(s0)
   103bc:	0207dc63          	bgez	a5,103f4 <bf16_add+0x1d8>
   103c0:	fdc45783          	lhu	a5,-36(s0)
   103c4:	fef41423          	sh	a5,-24(s0)
   103c8:	fda41703          	lh	a4,-38(s0)
   103cc:	ff800793          	li	a5,-8
   103d0:	00f75663          	bge	a4,a5,103dc <bf16_add+0x1c0>
   103d4:	fc845783          	lhu	a5,-56(s0)
   103d8:	1a80006f          	j	10580 <bf16_add+0x364>
   103dc:	fee45703          	lhu	a4,-18(s0)
   103e0:	fda41783          	lh	a5,-38(s0)
   103e4:	40f007b3          	neg	a5,a5
   103e8:	40f757b3          	sra	a5,a4,a5
   103ec:	fef41723          	sh	a5,-18(s0)
   103f0:	00c0006f          	j	103fc <bf16_add+0x1e0>
   103f4:	fde45783          	lhu	a5,-34(s0)
   103f8:	fef41423          	sh	a5,-24(s0)
   103fc:	fe245703          	lhu	a4,-30(s0)
   10400:	fe045783          	lhu	a5,-32(s0)
   10404:	08f71263          	bne	a4,a5,10488 <bf16_add+0x26c>
   10408:	fe245783          	lhu	a5,-30(s0)
   1040c:	fef41523          	sh	a5,-22(s0)
   10410:	fee45703          	lhu	a4,-18(s0)
   10414:	fec45783          	lhu	a5,-20(s0)
   10418:	00f707b3          	add	a5,a4,a5
   1041c:	fef42223          	sw	a5,-28(s0)
   10420:	fe442783          	lw	a5,-28(s0)
   10424:	1007f793          	andi	a5,a5,256
   10428:	0e078663          	beqz	a5,10514 <bf16_add+0x2f8>
   1042c:	fe442783          	lw	a5,-28(s0)
   10430:	0017d793          	srli	a5,a5,0x1
   10434:	fef42223          	sw	a5,-28(s0)
   10438:	fe845783          	lhu	a5,-24(s0)
   1043c:	00178793          	addi	a5,a5,1 # ffff8001 <__stack_top+0xfffe5f61>
   10440:	01079793          	slli	a5,a5,0x10
   10444:	0107d793          	srli	a5,a5,0x10
   10448:	fef41423          	sh	a5,-24(s0)
   1044c:	fe841703          	lh	a4,-24(s0)
   10450:	0fe00793          	li	a5,254
   10454:	0ce7d063          	bge	a5,a4,10514 <bf16_add+0x2f8>
   10458:	fea41783          	lh	a5,-22(s0)
   1045c:	00f79793          	slli	a5,a5,0xf
   10460:	01079713          	slli	a4,a5,0x10
   10464:	41075713          	srai	a4,a4,0x10
   10468:	000087b7          	lui	a5,0x8
   1046c:	f8078793          	addi	a5,a5,-128 # 7f80 <_start-0x8080>
   10470:	00f767b3          	or	a5,a4,a5
   10474:	01079793          	slli	a5,a5,0x10
   10478:	4107d793          	srai	a5,a5,0x10
   1047c:	01079793          	slli	a5,a5,0x10
   10480:	0107d793          	srli	a5,a5,0x10
   10484:	0fc0006f          	j	10580 <bf16_add+0x364>
   10488:	fee45703          	lhu	a4,-18(s0)
   1048c:	fec45783          	lhu	a5,-20(s0)
   10490:	02f76063          	bltu	a4,a5,104b0 <bf16_add+0x294>
   10494:	fe245783          	lhu	a5,-30(s0)
   10498:	fef41523          	sh	a5,-22(s0)
   1049c:	fee45703          	lhu	a4,-18(s0)
   104a0:	fec45783          	lhu	a5,-20(s0)
   104a4:	40f707b3          	sub	a5,a4,a5
   104a8:	fef42223          	sw	a5,-28(s0)
   104ac:	01c0006f          	j	104c8 <bf16_add+0x2ac>
   104b0:	fe045783          	lhu	a5,-32(s0)
   104b4:	fef41523          	sh	a5,-22(s0)
   104b8:	fec45703          	lhu	a4,-20(s0)
   104bc:	fee45783          	lhu	a5,-18(s0)
   104c0:	40f707b3          	sub	a5,a4,a5
   104c4:	fef42223          	sw	a5,-28(s0)
   104c8:	fe442783          	lw	a5,-28(s0)
   104cc:	02079e63          	bnez	a5,10508 <bf16_add+0x2ec>
   104d0:	00000793          	li	a5,0
   104d4:	0ac0006f          	j	10580 <bf16_add+0x364>
   104d8:	fe442783          	lw	a5,-28(s0)
   104dc:	00179793          	slli	a5,a5,0x1
   104e0:	fef42223          	sw	a5,-28(s0)
   104e4:	fe845783          	lhu	a5,-24(s0)
   104e8:	fff78793          	addi	a5,a5,-1
   104ec:	01079793          	slli	a5,a5,0x10
   104f0:	0107d793          	srli	a5,a5,0x10
   104f4:	fef41423          	sh	a5,-24(s0)
   104f8:	fe841783          	lh	a5,-24(s0)
   104fc:	00f04663          	bgtz	a5,10508 <bf16_add+0x2ec>
   10500:	00000793          	li	a5,0
   10504:	07c0006f          	j	10580 <bf16_add+0x364>
   10508:	fe442783          	lw	a5,-28(s0)
   1050c:	0807f793          	andi	a5,a5,128
   10510:	fc0784e3          	beqz	a5,104d8 <bf16_add+0x2bc>
   10514:	fea41783          	lh	a5,-22(s0)
   10518:	00f79793          	slli	a5,a5,0xf
   1051c:	01079713          	slli	a4,a5,0x10
   10520:	41075713          	srai	a4,a4,0x10
   10524:	fe845783          	lhu	a5,-24(s0)
   10528:	00779793          	slli	a5,a5,0x7
   1052c:	01079693          	slli	a3,a5,0x10
   10530:	4106d693          	srai	a3,a3,0x10
   10534:	000087b7          	lui	a5,0x8
   10538:	f8078793          	addi	a5,a5,-128 # 7f80 <_start-0x8080>
   1053c:	00f6f7b3          	and	a5,a3,a5
   10540:	01079793          	slli	a5,a5,0x10
   10544:	4107d793          	srai	a5,a5,0x10
   10548:	00f767b3          	or	a5,a4,a5
   1054c:	01079793          	slli	a5,a5,0x10
   10550:	4107d793          	srai	a5,a5,0x10
   10554:	01079713          	slli	a4,a5,0x10
   10558:	01075713          	srli	a4,a4,0x10
   1055c:	fe442783          	lw	a5,-28(s0)
   10560:	01079793          	slli	a5,a5,0x10
   10564:	0107d793          	srli	a5,a5,0x10
   10568:	07f7f793          	andi	a5,a5,127
   1056c:	01079793          	slli	a5,a5,0x10
   10570:	0107d793          	srli	a5,a5,0x10
   10574:	00f767b3          	or	a5,a4,a5
   10578:	01079793          	slli	a5,a5,0x10
   1057c:	0107d793          	srli	a5,a5,0x10
   10580:	00078513          	mv	a0,a5
   10584:	03c12083          	lw	ra,60(sp)
   10588:	03812403          	lw	s0,56(sp)
   1058c:	04010113          	addi	sp,sp,64
   10590:	00008067          	ret

00010594 <bf16_sub>:
   10594:	fe010113          	addi	sp,sp,-32
   10598:	00112e23          	sw	ra,28(sp)
   1059c:	00812c23          	sw	s0,24(sp)
   105a0:	02010413          	addi	s0,sp,32
   105a4:	fea41623          	sh	a0,-20(s0)
   105a8:	feb41423          	sh	a1,-24(s0)
   105ac:	fe845703          	lhu	a4,-24(s0)
   105b0:	ffff87b7          	lui	a5,0xffff8
   105b4:	00f747b3          	xor	a5,a4,a5
   105b8:	01079793          	slli	a5,a5,0x10
   105bc:	0107d793          	srli	a5,a5,0x10
   105c0:	fef41423          	sh	a5,-24(s0)
   105c4:	fe845783          	lhu	a5,-24(s0)
   105c8:	00078593          	mv	a1,a5
   105cc:	fec45783          	lhu	a5,-20(s0)
   105d0:	00078513          	mv	a0,a5
   105d4:	c49ff0ef          	jal	1021c <bf16_add>
   105d8:	00050793          	mv	a5,a0
   105dc:	00078513          	mv	a0,a5
   105e0:	01c12083          	lw	ra,28(sp)
   105e4:	01812403          	lw	s0,24(sp)
   105e8:	02010113          	addi	sp,sp,32
   105ec:	00008067          	ret

000105f0 <bf16_mul>:
   105f0:	fc010113          	addi	sp,sp,-64
   105f4:	02112e23          	sw	ra,60(sp)
   105f8:	02812c23          	sw	s0,56(sp)
   105fc:	04010413          	addi	s0,sp,64
   10600:	fca41623          	sh	a0,-52(s0)
   10604:	fcb41423          	sh	a1,-56(s0)
   10608:	fcc45783          	lhu	a5,-52(s0)
   1060c:	00f7d793          	srli	a5,a5,0xf
   10610:	fcf41d23          	sh	a5,-38(s0)
   10614:	fc845783          	lhu	a5,-56(s0)
   10618:	00f7d793          	srli	a5,a5,0xf
   1061c:	fcf41c23          	sh	a5,-40(s0)
   10620:	fcc45783          	lhu	a5,-52(s0)
   10624:	0077d793          	srli	a5,a5,0x7
   10628:	01079793          	slli	a5,a5,0x10
   1062c:	0107d793          	srli	a5,a5,0x10
   10630:	01079793          	slli	a5,a5,0x10
   10634:	4107d793          	srai	a5,a5,0x10
   10638:	0ff7f793          	zext.b	a5,a5
   1063c:	fef41723          	sh	a5,-18(s0)
   10640:	fc845783          	lhu	a5,-56(s0)
   10644:	0077d793          	srli	a5,a5,0x7
   10648:	01079793          	slli	a5,a5,0x10
   1064c:	0107d793          	srli	a5,a5,0x10
   10650:	01079793          	slli	a5,a5,0x10
   10654:	4107d793          	srai	a5,a5,0x10
   10658:	0ff7f793          	zext.b	a5,a5
   1065c:	fef41623          	sh	a5,-20(s0)
   10660:	fcc45783          	lhu	a5,-52(s0)
   10664:	07f7f793          	andi	a5,a5,127
   10668:	fef41523          	sh	a5,-22(s0)
   1066c:	fc845783          	lhu	a5,-56(s0)
   10670:	07f7f793          	andi	a5,a5,127
   10674:	fef41423          	sh	a5,-24(s0)
   10678:	fda45783          	lhu	a5,-38(s0)
   1067c:	00078713          	mv	a4,a5
   10680:	fd845783          	lhu	a5,-40(s0)
   10684:	00f747b3          	xor	a5,a4,a5
   10688:	fcf41b23          	sh	a5,-42(s0)
   1068c:	fee41703          	lh	a4,-18(s0)
   10690:	0ff00793          	li	a5,255
   10694:	06f71063          	bne	a4,a5,106f4 <bf16_mul+0x104>
   10698:	fea45783          	lhu	a5,-22(s0)
   1069c:	00078663          	beqz	a5,106a8 <bf16_mul+0xb8>
   106a0:	fcc45783          	lhu	a5,-52(s0)
   106a4:	30c0006f          	j	109b0 <bf16_mul+0x3c0>
   106a8:	fec41783          	lh	a5,-20(s0)
   106ac:	00079c63          	bnez	a5,106c4 <bf16_mul+0xd4>
   106b0:	fe845783          	lhu	a5,-24(s0)
   106b4:	00079863          	bnez	a5,106c4 <bf16_mul+0xd4>
   106b8:	ffff87b7          	lui	a5,0xffff8
   106bc:	fc07c793          	xori	a5,a5,-64
   106c0:	2f00006f          	j	109b0 <bf16_mul+0x3c0>
   106c4:	fd641783          	lh	a5,-42(s0)
   106c8:	00f79793          	slli	a5,a5,0xf
   106cc:	01079713          	slli	a4,a5,0x10
   106d0:	41075713          	srai	a4,a4,0x10
   106d4:	000087b7          	lui	a5,0x8
   106d8:	f8078793          	addi	a5,a5,-128 # 7f80 <_start-0x8080>
   106dc:	00f767b3          	or	a5,a4,a5
   106e0:	01079793          	slli	a5,a5,0x10
   106e4:	4107d793          	srai	a5,a5,0x10
   106e8:	01079793          	slli	a5,a5,0x10
   106ec:	0107d793          	srli	a5,a5,0x10
   106f0:	2c00006f          	j	109b0 <bf16_mul+0x3c0>
   106f4:	fec41703          	lh	a4,-20(s0)
   106f8:	0ff00793          	li	a5,255
   106fc:	06f71063          	bne	a4,a5,1075c <bf16_mul+0x16c>
   10700:	fe845783          	lhu	a5,-24(s0)
   10704:	00078663          	beqz	a5,10710 <bf16_mul+0x120>
   10708:	fc845783          	lhu	a5,-56(s0)
   1070c:	2a40006f          	j	109b0 <bf16_mul+0x3c0>
   10710:	fee41783          	lh	a5,-18(s0)
   10714:	00079c63          	bnez	a5,1072c <bf16_mul+0x13c>
   10718:	fea45783          	lhu	a5,-22(s0)
   1071c:	00079863          	bnez	a5,1072c <bf16_mul+0x13c>
   10720:	ffff87b7          	lui	a5,0xffff8
   10724:	fc07c793          	xori	a5,a5,-64
   10728:	2880006f          	j	109b0 <bf16_mul+0x3c0>
   1072c:	fd641783          	lh	a5,-42(s0)
   10730:	00f79793          	slli	a5,a5,0xf
   10734:	01079713          	slli	a4,a5,0x10
   10738:	41075713          	srai	a4,a4,0x10
   1073c:	000087b7          	lui	a5,0x8
   10740:	f8078793          	addi	a5,a5,-128 # 7f80 <_start-0x8080>
   10744:	00f767b3          	or	a5,a4,a5
   10748:	01079793          	slli	a5,a5,0x10
   1074c:	4107d793          	srai	a5,a5,0x10
   10750:	01079793          	slli	a5,a5,0x10
   10754:	0107d793          	srli	a5,a5,0x10
   10758:	2580006f          	j	109b0 <bf16_mul+0x3c0>
   1075c:	fee41783          	lh	a5,-18(s0)
   10760:	00079663          	bnez	a5,1076c <bf16_mul+0x17c>
   10764:	fea45783          	lhu	a5,-22(s0)
   10768:	00078a63          	beqz	a5,1077c <bf16_mul+0x18c>
   1076c:	fec41783          	lh	a5,-20(s0)
   10770:	02079063          	bnez	a5,10790 <bf16_mul+0x1a0>
   10774:	fe845783          	lhu	a5,-24(s0)
   10778:	00079c63          	bnez	a5,10790 <bf16_mul+0x1a0>
   1077c:	fd645783          	lhu	a5,-42(s0)
   10780:	00f79793          	slli	a5,a5,0xf
   10784:	01079793          	slli	a5,a5,0x10
   10788:	0107d793          	srli	a5,a5,0x10
   1078c:	2240006f          	j	109b0 <bf16_mul+0x3c0>
   10790:	fe041323          	sh	zero,-26(s0)
   10794:	fee41783          	lh	a5,-18(s0)
   10798:	04079463          	bnez	a5,107e0 <bf16_mul+0x1f0>
   1079c:	02c0006f          	j	107c8 <bf16_mul+0x1d8>
   107a0:	fea45783          	lhu	a5,-22(s0)
   107a4:	00179793          	slli	a5,a5,0x1
   107a8:	fef41523          	sh	a5,-22(s0)
   107ac:	fe641783          	lh	a5,-26(s0)
   107b0:	01079793          	slli	a5,a5,0x10
   107b4:	0107d793          	srli	a5,a5,0x10
   107b8:	fff78793          	addi	a5,a5,-1
   107bc:	01079793          	slli	a5,a5,0x10
   107c0:	0107d793          	srli	a5,a5,0x10
   107c4:	fef41323          	sh	a5,-26(s0)
   107c8:	fea45783          	lhu	a5,-22(s0)
   107cc:	0807f793          	andi	a5,a5,128
   107d0:	fc0788e3          	beqz	a5,107a0 <bf16_mul+0x1b0>
   107d4:	00100793          	li	a5,1
   107d8:	fef41723          	sh	a5,-18(s0)
   107dc:	0100006f          	j	107ec <bf16_mul+0x1fc>
   107e0:	fea45783          	lhu	a5,-22(s0)
   107e4:	0807e793          	ori	a5,a5,128
   107e8:	fef41523          	sh	a5,-22(s0)
   107ec:	fec41783          	lh	a5,-20(s0)
   107f0:	04079463          	bnez	a5,10838 <bf16_mul+0x248>
   107f4:	02c0006f          	j	10820 <bf16_mul+0x230>
   107f8:	fe845783          	lhu	a5,-24(s0)
   107fc:	00179793          	slli	a5,a5,0x1
   10800:	fef41423          	sh	a5,-24(s0)
   10804:	fe641783          	lh	a5,-26(s0)
   10808:	01079793          	slli	a5,a5,0x10
   1080c:	0107d793          	srli	a5,a5,0x10
   10810:	fff78793          	addi	a5,a5,-1
   10814:	01079793          	slli	a5,a5,0x10
   10818:	0107d793          	srli	a5,a5,0x10
   1081c:	fef41323          	sh	a5,-26(s0)
   10820:	fe845783          	lhu	a5,-24(s0)
   10824:	0807f793          	andi	a5,a5,128
   10828:	fc0788e3          	beqz	a5,107f8 <bf16_mul+0x208>
   1082c:	00100793          	li	a5,1
   10830:	fef41623          	sh	a5,-20(s0)
   10834:	0100006f          	j	10844 <bf16_mul+0x254>
   10838:	fe845783          	lhu	a5,-24(s0)
   1083c:	0807e793          	ori	a5,a5,128
   10840:	fef41423          	sh	a5,-24(s0)
   10844:	fea45783          	lhu	a5,-22(s0)
   10848:	fe845703          	lhu	a4,-24(s0)
   1084c:	00070593          	mv	a1,a4
   10850:	00078513          	mv	a0,a5
   10854:	02d000ef          	jal	11080 <__mulsi3>
   10858:	00050793          	mv	a5,a0
   1085c:	fef42023          	sw	a5,-32(s0)
   10860:	fee41703          	lh	a4,-18(s0)
   10864:	fec41783          	lh	a5,-20(s0)
   10868:	00f707b3          	add	a5,a4,a5
   1086c:	f8178713          	addi	a4,a5,-127
   10870:	fe641783          	lh	a5,-26(s0)
   10874:	00f707b3          	add	a5,a4,a5
   10878:	fcf42e23          	sw	a5,-36(s0)
   1087c:	fe042703          	lw	a4,-32(s0)
   10880:	000087b7          	lui	a5,0x8
   10884:	00f777b3          	and	a5,a4,a5
   10888:	02078263          	beqz	a5,108ac <bf16_mul+0x2bc>
   1088c:	fe042783          	lw	a5,-32(s0)
   10890:	0087d793          	srli	a5,a5,0x8
   10894:	07f7f793          	andi	a5,a5,127
   10898:	fef42023          	sw	a5,-32(s0)
   1089c:	fdc42783          	lw	a5,-36(s0)
   108a0:	00178793          	addi	a5,a5,1 # 8001 <_start-0x7fff>
   108a4:	fcf42e23          	sw	a5,-36(s0)
   108a8:	0140006f          	j	108bc <bf16_mul+0x2cc>
   108ac:	fe042783          	lw	a5,-32(s0)
   108b0:	0077d793          	srli	a5,a5,0x7
   108b4:	07f7f793          	andi	a5,a5,127
   108b8:	fef42023          	sw	a5,-32(s0)
   108bc:	fdc42703          	lw	a4,-36(s0)
   108c0:	0fe00793          	li	a5,254
   108c4:	02e7da63          	bge	a5,a4,108f8 <bf16_mul+0x308>
   108c8:	fd641783          	lh	a5,-42(s0)
   108cc:	00f79793          	slli	a5,a5,0xf
   108d0:	01079713          	slli	a4,a5,0x10
   108d4:	41075713          	srai	a4,a4,0x10
   108d8:	000087b7          	lui	a5,0x8
   108dc:	f8078793          	addi	a5,a5,-128 # 7f80 <_start-0x8080>
   108e0:	00f767b3          	or	a5,a4,a5
   108e4:	01079793          	slli	a5,a5,0x10
   108e8:	4107d793          	srai	a5,a5,0x10
   108ec:	01079793          	slli	a5,a5,0x10
   108f0:	0107d793          	srli	a5,a5,0x10
   108f4:	0bc0006f          	j	109b0 <bf16_mul+0x3c0>
   108f8:	fdc42783          	lw	a5,-36(s0)
   108fc:	04f04063          	bgtz	a5,1093c <bf16_mul+0x34c>
   10900:	fdc42703          	lw	a4,-36(s0)
   10904:	ffa00793          	li	a5,-6
   10908:	00f75c63          	bge	a4,a5,10920 <bf16_mul+0x330>
   1090c:	fd645783          	lhu	a5,-42(s0)
   10910:	00f79793          	slli	a5,a5,0xf
   10914:	01079793          	slli	a5,a5,0x10
   10918:	0107d793          	srli	a5,a5,0x10
   1091c:	0940006f          	j	109b0 <bf16_mul+0x3c0>
   10920:	00100713          	li	a4,1
   10924:	fdc42783          	lw	a5,-36(s0)
   10928:	40f707b3          	sub	a5,a4,a5
   1092c:	fe042703          	lw	a4,-32(s0)
   10930:	00f757b3          	srl	a5,a4,a5
   10934:	fef42023          	sw	a5,-32(s0)
   10938:	fc042e23          	sw	zero,-36(s0)
   1093c:	fd641783          	lh	a5,-42(s0)
   10940:	00f79793          	slli	a5,a5,0xf
   10944:	01079713          	slli	a4,a5,0x10
   10948:	41075713          	srai	a4,a4,0x10
   1094c:	fdc42783          	lw	a5,-36(s0)
   10950:	01079793          	slli	a5,a5,0x10
   10954:	4107d793          	srai	a5,a5,0x10
   10958:	00779793          	slli	a5,a5,0x7
   1095c:	01079693          	slli	a3,a5,0x10
   10960:	4106d693          	srai	a3,a3,0x10
   10964:	000087b7          	lui	a5,0x8
   10968:	f8078793          	addi	a5,a5,-128 # 7f80 <_start-0x8080>
   1096c:	00f6f7b3          	and	a5,a3,a5
   10970:	01079793          	slli	a5,a5,0x10
   10974:	4107d793          	srai	a5,a5,0x10
   10978:	00f767b3          	or	a5,a4,a5
   1097c:	01079793          	slli	a5,a5,0x10
   10980:	4107d793          	srai	a5,a5,0x10
   10984:	01079713          	slli	a4,a5,0x10
   10988:	01075713          	srli	a4,a4,0x10
   1098c:	fe042783          	lw	a5,-32(s0)
   10990:	01079793          	slli	a5,a5,0x10
   10994:	0107d793          	srli	a5,a5,0x10
   10998:	07f7f793          	andi	a5,a5,127
   1099c:	01079793          	slli	a5,a5,0x10
   109a0:	0107d793          	srli	a5,a5,0x10
   109a4:	00f767b3          	or	a5,a4,a5
   109a8:	01079793          	slli	a5,a5,0x10
   109ac:	0107d793          	srli	a5,a5,0x10
   109b0:	00078513          	mv	a0,a5
   109b4:	03c12083          	lw	ra,60(sp)
   109b8:	03812403          	lw	s0,56(sp)
   109bc:	04010113          	addi	sp,sp,64
   109c0:	00008067          	ret

000109c4 <bf16_div>:
   109c4:	fb010113          	addi	sp,sp,-80
   109c8:	04112623          	sw	ra,76(sp)
   109cc:	04812423          	sw	s0,72(sp)
   109d0:	05010413          	addi	s0,sp,80
   109d4:	faa41e23          	sh	a0,-68(s0)
   109d8:	fab41c23          	sh	a1,-72(s0)
   109dc:	fbc45783          	lhu	a5,-68(s0)
   109e0:	00f7d793          	srli	a5,a5,0xf
   109e4:	fcf41d23          	sh	a5,-38(s0)
   109e8:	fb845783          	lhu	a5,-72(s0)
   109ec:	00f7d793          	srli	a5,a5,0xf
   109f0:	fcf41c23          	sh	a5,-40(s0)
   109f4:	fbc45783          	lhu	a5,-68(s0)
   109f8:	0077d793          	srli	a5,a5,0x7
   109fc:	01079793          	slli	a5,a5,0x10
   10a00:	0107d793          	srli	a5,a5,0x10
   10a04:	01079793          	slli	a5,a5,0x10
   10a08:	4107d793          	srai	a5,a5,0x10
   10a0c:	0ff7f793          	zext.b	a5,a5
   10a10:	fcf41b23          	sh	a5,-42(s0)
   10a14:	fb845783          	lhu	a5,-72(s0)
   10a18:	0077d793          	srli	a5,a5,0x7
   10a1c:	01079793          	slli	a5,a5,0x10
   10a20:	0107d793          	srli	a5,a5,0x10
   10a24:	01079793          	slli	a5,a5,0x10
   10a28:	4107d793          	srai	a5,a5,0x10
   10a2c:	0ff7f793          	zext.b	a5,a5
   10a30:	fcf41a23          	sh	a5,-44(s0)
   10a34:	fbc45783          	lhu	a5,-68(s0)
   10a38:	07f7f793          	andi	a5,a5,127
   10a3c:	fef41723          	sh	a5,-18(s0)
   10a40:	fb845783          	lhu	a5,-72(s0)
   10a44:	07f7f793          	andi	a5,a5,127
   10a48:	fef41623          	sh	a5,-20(s0)
   10a4c:	fda45783          	lhu	a5,-38(s0)
   10a50:	00078713          	mv	a4,a5
   10a54:	fd845783          	lhu	a5,-40(s0)
   10a58:	00f747b3          	xor	a5,a4,a5
   10a5c:	fcf41923          	sh	a5,-46(s0)
   10a60:	fd441703          	lh	a4,-44(s0)
   10a64:	0ff00793          	li	a5,255
   10a68:	04f71463          	bne	a4,a5,10ab0 <bf16_div+0xec>
   10a6c:	fec45783          	lhu	a5,-20(s0)
   10a70:	00078663          	beqz	a5,10a7c <bf16_div+0xb8>
   10a74:	fb845783          	lhu	a5,-72(s0)
   10a78:	32c0006f          	j	10da4 <bf16_div+0x3e0>
   10a7c:	fd641703          	lh	a4,-42(s0)
   10a80:	0ff00793          	li	a5,255
   10a84:	00f71c63          	bne	a4,a5,10a9c <bf16_div+0xd8>
   10a88:	fee45783          	lhu	a5,-18(s0)
   10a8c:	00079863          	bnez	a5,10a9c <bf16_div+0xd8>
   10a90:	ffff87b7          	lui	a5,0xffff8
   10a94:	fc07c793          	xori	a5,a5,-64
   10a98:	30c0006f          	j	10da4 <bf16_div+0x3e0>
   10a9c:	fd245783          	lhu	a5,-46(s0)
   10aa0:	00f79793          	slli	a5,a5,0xf
   10aa4:	01079793          	slli	a5,a5,0x10
   10aa8:	0107d793          	srli	a5,a5,0x10
   10aac:	2f80006f          	j	10da4 <bf16_div+0x3e0>
   10ab0:	fd441783          	lh	a5,-44(s0)
   10ab4:	04079c63          	bnez	a5,10b0c <bf16_div+0x148>
   10ab8:	fec45783          	lhu	a5,-20(s0)
   10abc:	04079863          	bnez	a5,10b0c <bf16_div+0x148>
   10ac0:	fd641783          	lh	a5,-42(s0)
   10ac4:	00079c63          	bnez	a5,10adc <bf16_div+0x118>
   10ac8:	fee45783          	lhu	a5,-18(s0)
   10acc:	00079863          	bnez	a5,10adc <bf16_div+0x118>
   10ad0:	ffff87b7          	lui	a5,0xffff8
   10ad4:	fc07c793          	xori	a5,a5,-64
   10ad8:	2cc0006f          	j	10da4 <bf16_div+0x3e0>
   10adc:	fd241783          	lh	a5,-46(s0)
   10ae0:	00f79793          	slli	a5,a5,0xf
   10ae4:	01079713          	slli	a4,a5,0x10
   10ae8:	41075713          	srai	a4,a4,0x10
   10aec:	000087b7          	lui	a5,0x8
   10af0:	f8078793          	addi	a5,a5,-128 # 7f80 <_start-0x8080>
   10af4:	00f767b3          	or	a5,a4,a5
   10af8:	01079793          	slli	a5,a5,0x10
   10afc:	4107d793          	srai	a5,a5,0x10
   10b00:	01079793          	slli	a5,a5,0x10
   10b04:	0107d793          	srli	a5,a5,0x10
   10b08:	29c0006f          	j	10da4 <bf16_div+0x3e0>
   10b0c:	fd641703          	lh	a4,-42(s0)
   10b10:	0ff00793          	li	a5,255
   10b14:	04f71263          	bne	a4,a5,10b58 <bf16_div+0x194>
   10b18:	fee45783          	lhu	a5,-18(s0)
   10b1c:	00078663          	beqz	a5,10b28 <bf16_div+0x164>
   10b20:	fbc45783          	lhu	a5,-68(s0)
   10b24:	2800006f          	j	10da4 <bf16_div+0x3e0>
   10b28:	fd241783          	lh	a5,-46(s0)
   10b2c:	00f79793          	slli	a5,a5,0xf
   10b30:	01079713          	slli	a4,a5,0x10
   10b34:	41075713          	srai	a4,a4,0x10
   10b38:	000087b7          	lui	a5,0x8
   10b3c:	f8078793          	addi	a5,a5,-128 # 7f80 <_start-0x8080>
   10b40:	00f767b3          	or	a5,a4,a5
   10b44:	01079793          	slli	a5,a5,0x10
   10b48:	4107d793          	srai	a5,a5,0x10
   10b4c:	01079793          	slli	a5,a5,0x10
   10b50:	0107d793          	srli	a5,a5,0x10
   10b54:	2500006f          	j	10da4 <bf16_div+0x3e0>
   10b58:	fd641783          	lh	a5,-42(s0)
   10b5c:	02079063          	bnez	a5,10b7c <bf16_div+0x1b8>
   10b60:	fee45783          	lhu	a5,-18(s0)
   10b64:	00079c63          	bnez	a5,10b7c <bf16_div+0x1b8>
   10b68:	fd245783          	lhu	a5,-46(s0)
   10b6c:	00f79793          	slli	a5,a5,0xf
   10b70:	01079793          	slli	a5,a5,0x10
   10b74:	0107d793          	srli	a5,a5,0x10
   10b78:	22c0006f          	j	10da4 <bf16_div+0x3e0>
   10b7c:	fd641783          	lh	a5,-42(s0)
   10b80:	00078863          	beqz	a5,10b90 <bf16_div+0x1cc>
   10b84:	fee45783          	lhu	a5,-18(s0)
   10b88:	0807e793          	ori	a5,a5,128
   10b8c:	fef41723          	sh	a5,-18(s0)
   10b90:	fd441783          	lh	a5,-44(s0)
   10b94:	00078863          	beqz	a5,10ba4 <bf16_div+0x1e0>
   10b98:	fec45783          	lhu	a5,-20(s0)
   10b9c:	0807e793          	ori	a5,a5,128
   10ba0:	fef41623          	sh	a5,-20(s0)
   10ba4:	fee45783          	lhu	a5,-18(s0)
   10ba8:	00f79793          	slli	a5,a5,0xf
   10bac:	fef42423          	sw	a5,-24(s0)
   10bb0:	fec45783          	lhu	a5,-20(s0)
   10bb4:	fcf42623          	sw	a5,-52(s0)
   10bb8:	fe042223          	sw	zero,-28(s0)
   10bbc:	fe042023          	sw	zero,-32(s0)
   10bc0:	0640006f          	j	10c24 <bf16_div+0x260>
   10bc4:	fe442783          	lw	a5,-28(s0)
   10bc8:	00179793          	slli	a5,a5,0x1
   10bcc:	fef42223          	sw	a5,-28(s0)
   10bd0:	00f00713          	li	a4,15
   10bd4:	fe042783          	lw	a5,-32(s0)
   10bd8:	40f707b3          	sub	a5,a4,a5
   10bdc:	fcc42703          	lw	a4,-52(s0)
   10be0:	00f717b3          	sll	a5,a4,a5
   10be4:	fe842703          	lw	a4,-24(s0)
   10be8:	02f76863          	bltu	a4,a5,10c18 <bf16_div+0x254>
   10bec:	00f00713          	li	a4,15
   10bf0:	fe042783          	lw	a5,-32(s0)
   10bf4:	40f707b3          	sub	a5,a4,a5
   10bf8:	fcc42703          	lw	a4,-52(s0)
   10bfc:	00f717b3          	sll	a5,a4,a5
   10c00:	fe842703          	lw	a4,-24(s0)
   10c04:	40f707b3          	sub	a5,a4,a5
   10c08:	fef42423          	sw	a5,-24(s0)
   10c0c:	fe442783          	lw	a5,-28(s0)
   10c10:	0017e793          	ori	a5,a5,1
   10c14:	fef42223          	sw	a5,-28(s0)
   10c18:	fe042783          	lw	a5,-32(s0)
   10c1c:	00178793          	addi	a5,a5,1
   10c20:	fef42023          	sw	a5,-32(s0)
   10c24:	fe042703          	lw	a4,-32(s0)
   10c28:	00f00793          	li	a5,15
   10c2c:	f8e7dce3          	bge	a5,a4,10bc4 <bf16_div+0x200>
   10c30:	fd641703          	lh	a4,-42(s0)
   10c34:	fd441783          	lh	a5,-44(s0)
   10c38:	40f707b3          	sub	a5,a4,a5
   10c3c:	07f78793          	addi	a5,a5,127
   10c40:	fcf42e23          	sw	a5,-36(s0)
   10c44:	fd641783          	lh	a5,-42(s0)
   10c48:	00079863          	bnez	a5,10c58 <bf16_div+0x294>
   10c4c:	fdc42783          	lw	a5,-36(s0)
   10c50:	fff78793          	addi	a5,a5,-1
   10c54:	fcf42e23          	sw	a5,-36(s0)
   10c58:	fd441783          	lh	a5,-44(s0)
   10c5c:	00079863          	bnez	a5,10c6c <bf16_div+0x2a8>
   10c60:	fdc42783          	lw	a5,-36(s0)
   10c64:	00178793          	addi	a5,a5,1
   10c68:	fcf42e23          	sw	a5,-36(s0)
   10c6c:	fe442703          	lw	a4,-28(s0)
   10c70:	000087b7          	lui	a5,0x8
   10c74:	00f777b3          	and	a5,a4,a5
   10c78:	02078663          	beqz	a5,10ca4 <bf16_div+0x2e0>
   10c7c:	fe442783          	lw	a5,-28(s0)
   10c80:	0087d793          	srli	a5,a5,0x8
   10c84:	fef42223          	sw	a5,-28(s0)
   10c88:	0440006f          	j	10ccc <bf16_div+0x308>
   10c8c:	fe442783          	lw	a5,-28(s0)
   10c90:	00179793          	slli	a5,a5,0x1
   10c94:	fef42223          	sw	a5,-28(s0)
   10c98:	fdc42783          	lw	a5,-36(s0)
   10c9c:	fff78793          	addi	a5,a5,-1 # 7fff <_start-0x8001>
   10ca0:	fcf42e23          	sw	a5,-36(s0)
   10ca4:	fe442703          	lw	a4,-28(s0)
   10ca8:	000087b7          	lui	a5,0x8
   10cac:	00f777b3          	and	a5,a4,a5
   10cb0:	00079863          	bnez	a5,10cc0 <bf16_div+0x2fc>
   10cb4:	fdc42703          	lw	a4,-36(s0)
   10cb8:	00100793          	li	a5,1
   10cbc:	fce7c8e3          	blt	a5,a4,10c8c <bf16_div+0x2c8>
   10cc0:	fe442783          	lw	a5,-28(s0)
   10cc4:	0087d793          	srli	a5,a5,0x8
   10cc8:	fef42223          	sw	a5,-28(s0)
   10ccc:	fe442783          	lw	a5,-28(s0)
   10cd0:	07f7f793          	andi	a5,a5,127
   10cd4:	fef42223          	sw	a5,-28(s0)
   10cd8:	fdc42703          	lw	a4,-36(s0)
   10cdc:	0fe00793          	li	a5,254
   10ce0:	02e7da63          	bge	a5,a4,10d14 <bf16_div+0x350>
   10ce4:	fd241783          	lh	a5,-46(s0)
   10ce8:	00f79793          	slli	a5,a5,0xf
   10cec:	01079713          	slli	a4,a5,0x10
   10cf0:	41075713          	srai	a4,a4,0x10
   10cf4:	000087b7          	lui	a5,0x8
   10cf8:	f8078793          	addi	a5,a5,-128 # 7f80 <_start-0x8080>
   10cfc:	00f767b3          	or	a5,a4,a5
   10d00:	01079793          	slli	a5,a5,0x10
   10d04:	4107d793          	srai	a5,a5,0x10
   10d08:	01079793          	slli	a5,a5,0x10
   10d0c:	0107d793          	srli	a5,a5,0x10
   10d10:	0940006f          	j	10da4 <bf16_div+0x3e0>
   10d14:	fdc42783          	lw	a5,-36(s0)
   10d18:	00f04c63          	bgtz	a5,10d30 <bf16_div+0x36c>
   10d1c:	fd245783          	lhu	a5,-46(s0)
   10d20:	00f79793          	slli	a5,a5,0xf
   10d24:	01079793          	slli	a5,a5,0x10
   10d28:	0107d793          	srli	a5,a5,0x10
   10d2c:	0780006f          	j	10da4 <bf16_div+0x3e0>
   10d30:	fd241783          	lh	a5,-46(s0)
   10d34:	00f79793          	slli	a5,a5,0xf
   10d38:	01079713          	slli	a4,a5,0x10
   10d3c:	41075713          	srai	a4,a4,0x10
   10d40:	fdc42783          	lw	a5,-36(s0)
   10d44:	01079793          	slli	a5,a5,0x10
   10d48:	4107d793          	srai	a5,a5,0x10
   10d4c:	00779793          	slli	a5,a5,0x7
   10d50:	01079693          	slli	a3,a5,0x10
   10d54:	4106d693          	srai	a3,a3,0x10
   10d58:	000087b7          	lui	a5,0x8
   10d5c:	f8078793          	addi	a5,a5,-128 # 7f80 <_start-0x8080>
   10d60:	00f6f7b3          	and	a5,a3,a5
   10d64:	01079793          	slli	a5,a5,0x10
   10d68:	4107d793          	srai	a5,a5,0x10
   10d6c:	00f767b3          	or	a5,a4,a5
   10d70:	01079793          	slli	a5,a5,0x10
   10d74:	4107d793          	srai	a5,a5,0x10
   10d78:	01079713          	slli	a4,a5,0x10
   10d7c:	01075713          	srli	a4,a4,0x10
   10d80:	fe442783          	lw	a5,-28(s0)
   10d84:	01079793          	slli	a5,a5,0x10
   10d88:	0107d793          	srli	a5,a5,0x10
   10d8c:	07f7f793          	andi	a5,a5,127
   10d90:	01079793          	slli	a5,a5,0x10
   10d94:	0107d793          	srli	a5,a5,0x10
   10d98:	00f767b3          	or	a5,a4,a5
   10d9c:	01079793          	slli	a5,a5,0x10
   10da0:	0107d793          	srli	a5,a5,0x10
   10da4:	00078513          	mv	a0,a5
   10da8:	04c12083          	lw	ra,76(sp)
   10dac:	04812403          	lw	s0,72(sp)
   10db0:	05010113          	addi	sp,sp,80
   10db4:	00008067          	ret

00010db8 <bf16_sqrt>:
   10db8:	fb010113          	addi	sp,sp,-80
   10dbc:	04112623          	sw	ra,76(sp)
   10dc0:	04812423          	sw	s0,72(sp)
   10dc4:	05010413          	addi	s0,sp,80
   10dc8:	faa41e23          	sh	a0,-68(s0)
   10dcc:	fbc45783          	lhu	a5,-68(s0)
   10dd0:	00f7d793          	srli	a5,a5,0xf
   10dd4:	fcf41d23          	sh	a5,-38(s0)
   10dd8:	fbc45783          	lhu	a5,-68(s0)
   10ddc:	0077d793          	srli	a5,a5,0x7
   10de0:	01079793          	slli	a5,a5,0x10
   10de4:	0107d793          	srli	a5,a5,0x10
   10de8:	01079793          	slli	a5,a5,0x10
   10dec:	4107d793          	srai	a5,a5,0x10
   10df0:	0ff7f793          	zext.b	a5,a5
   10df4:	fcf41c23          	sh	a5,-40(s0)
   10df8:	fbc45783          	lhu	a5,-68(s0)
   10dfc:	07f7f793          	andi	a5,a5,127
   10e00:	fcf41b23          	sh	a5,-42(s0)
   10e04:	fd841703          	lh	a4,-40(s0)
   10e08:	0ff00793          	li	a5,255
   10e0c:	02f71863          	bne	a4,a5,10e3c <bf16_sqrt+0x84>
   10e10:	fd645783          	lhu	a5,-42(s0)
   10e14:	00078663          	beqz	a5,10e20 <bf16_sqrt+0x68>
   10e18:	fbc45783          	lhu	a5,-68(s0)
   10e1c:	2280006f          	j	11044 <bf16_sqrt+0x28c>
   10e20:	fda45783          	lhu	a5,-38(s0)
   10e24:	00078863          	beqz	a5,10e34 <bf16_sqrt+0x7c>
   10e28:	ffff87b7          	lui	a5,0xffff8
   10e2c:	fc07c793          	xori	a5,a5,-64
   10e30:	2140006f          	j	11044 <bf16_sqrt+0x28c>
   10e34:	fbc45783          	lhu	a5,-68(s0)
   10e38:	20c0006f          	j	11044 <bf16_sqrt+0x28c>
   10e3c:	fd841783          	lh	a5,-40(s0)
   10e40:	00079a63          	bnez	a5,10e54 <bf16_sqrt+0x9c>
   10e44:	fd645783          	lhu	a5,-42(s0)
   10e48:	00079663          	bnez	a5,10e54 <bf16_sqrt+0x9c>
   10e4c:	00000793          	li	a5,0
   10e50:	1f40006f          	j	11044 <bf16_sqrt+0x28c>
   10e54:	fda45783          	lhu	a5,-38(s0)
   10e58:	00078863          	beqz	a5,10e68 <bf16_sqrt+0xb0>
   10e5c:	ffff87b7          	lui	a5,0xffff8
   10e60:	fc07c793          	xori	a5,a5,-64
   10e64:	1e00006f          	j	11044 <bf16_sqrt+0x28c>
   10e68:	fd841783          	lh	a5,-40(s0)
   10e6c:	00079663          	bnez	a5,10e78 <bf16_sqrt+0xc0>
   10e70:	00000793          	li	a5,0
   10e74:	1d00006f          	j	11044 <bf16_sqrt+0x28c>
   10e78:	fd841783          	lh	a5,-40(s0)
   10e7c:	f8178793          	addi	a5,a5,-127 # ffff7f81 <__stack_top+0xfffe5ee1>
   10e80:	fcf42823          	sw	a5,-48(s0)
   10e84:	fd645783          	lhu	a5,-42(s0)
   10e88:	0807e793          	ori	a5,a5,128
   10e8c:	01079793          	slli	a5,a5,0x10
   10e90:	0107d793          	srli	a5,a5,0x10
   10e94:	fef42423          	sw	a5,-24(s0)
   10e98:	fd042783          	lw	a5,-48(s0)
   10e9c:	0017f793          	andi	a5,a5,1
   10ea0:	02078463          	beqz	a5,10ec8 <bf16_sqrt+0x110>
   10ea4:	fe842783          	lw	a5,-24(s0)
   10ea8:	00179793          	slli	a5,a5,0x1
   10eac:	fef42423          	sw	a5,-24(s0)
   10eb0:	fd042783          	lw	a5,-48(s0)
   10eb4:	fff78793          	addi	a5,a5,-1
   10eb8:	4017d793          	srai	a5,a5,0x1
   10ebc:	07f78793          	addi	a5,a5,127
   10ec0:	fef42623          	sw	a5,-20(s0)
   10ec4:	0140006f          	j	10ed8 <bf16_sqrt+0x120>
   10ec8:	fd042783          	lw	a5,-48(s0)
   10ecc:	4017d793          	srai	a5,a5,0x1
   10ed0:	07f78793          	addi	a5,a5,127
   10ed4:	fef42623          	sw	a5,-20(s0)
   10ed8:	05a00793          	li	a5,90
   10edc:	fef42223          	sw	a5,-28(s0)
   10ee0:	10000793          	li	a5,256
   10ee4:	fef42023          	sw	a5,-32(s0)
   10ee8:	08000793          	li	a5,128
   10eec:	fcf42e23          	sw	a5,-36(s0)
   10ef0:	0600006f          	j	10f50 <bf16_sqrt+0x198>
   10ef4:	fe442703          	lw	a4,-28(s0)
   10ef8:	fe042783          	lw	a5,-32(s0)
   10efc:	00f707b3          	add	a5,a4,a5
   10f00:	0017d793          	srli	a5,a5,0x1
   10f04:	fcf42423          	sw	a5,-56(s0)
   10f08:	fc842583          	lw	a1,-56(s0)
   10f0c:	fc842503          	lw	a0,-56(s0)
   10f10:	170000ef          	jal	11080 <__mulsi3>
   10f14:	00050793          	mv	a5,a0
   10f18:	0077d793          	srli	a5,a5,0x7
   10f1c:	fcf42223          	sw	a5,-60(s0)
   10f20:	fc442703          	lw	a4,-60(s0)
   10f24:	fe842783          	lw	a5,-24(s0)
   10f28:	00e7ee63          	bltu	a5,a4,10f44 <bf16_sqrt+0x18c>
   10f2c:	fc842783          	lw	a5,-56(s0)
   10f30:	fcf42e23          	sw	a5,-36(s0)
   10f34:	fc842783          	lw	a5,-56(s0)
   10f38:	00178793          	addi	a5,a5,1
   10f3c:	fef42223          	sw	a5,-28(s0)
   10f40:	0100006f          	j	10f50 <bf16_sqrt+0x198>
   10f44:	fc842783          	lw	a5,-56(s0)
   10f48:	fff78793          	addi	a5,a5,-1
   10f4c:	fef42023          	sw	a5,-32(s0)
   10f50:	fe442703          	lw	a4,-28(s0)
   10f54:	fe042783          	lw	a5,-32(s0)
   10f58:	f8e7fee3          	bgeu	a5,a4,10ef4 <bf16_sqrt+0x13c>
   10f5c:	fdc42703          	lw	a4,-36(s0)
   10f60:	0ff00793          	li	a5,255
   10f64:	02e7f063          	bgeu	a5,a4,10f84 <bf16_sqrt+0x1cc>
   10f68:	fdc42783          	lw	a5,-36(s0)
   10f6c:	0017d793          	srli	a5,a5,0x1
   10f70:	fcf42e23          	sw	a5,-36(s0)
   10f74:	fec42783          	lw	a5,-20(s0)
   10f78:	00178793          	addi	a5,a5,1
   10f7c:	fef42623          	sw	a5,-20(s0)
   10f80:	0440006f          	j	10fc4 <bf16_sqrt+0x20c>
   10f84:	fdc42703          	lw	a4,-36(s0)
   10f88:	07f00793          	li	a5,127
   10f8c:	02e7ec63          	bltu	a5,a4,10fc4 <bf16_sqrt+0x20c>
   10f90:	01c0006f          	j	10fac <bf16_sqrt+0x1f4>
   10f94:	fdc42783          	lw	a5,-36(s0)
   10f98:	00179793          	slli	a5,a5,0x1
   10f9c:	fcf42e23          	sw	a5,-36(s0)
   10fa0:	fec42783          	lw	a5,-20(s0)
   10fa4:	fff78793          	addi	a5,a5,-1
   10fa8:	fef42623          	sw	a5,-20(s0)
   10fac:	fdc42703          	lw	a4,-36(s0)
   10fb0:	07f00793          	li	a5,127
   10fb4:	00e7e863          	bltu	a5,a4,10fc4 <bf16_sqrt+0x20c>
   10fb8:	fec42703          	lw	a4,-20(s0)
   10fbc:	00100793          	li	a5,1
   10fc0:	fce7cae3          	blt	a5,a4,10f94 <bf16_sqrt+0x1dc>
   10fc4:	fdc42783          	lw	a5,-36(s0)
   10fc8:	01079793          	slli	a5,a5,0x10
   10fcc:	0107d793          	srli	a5,a5,0x10
   10fd0:	07f7f793          	andi	a5,a5,127
   10fd4:	fcf41723          	sh	a5,-50(s0)
   10fd8:	fec42703          	lw	a4,-20(s0)
   10fdc:	0fe00793          	li	a5,254
   10fe0:	00e7d863          	bge	a5,a4,10ff0 <bf16_sqrt+0x238>
   10fe4:	ffff87b7          	lui	a5,0xffff8
   10fe8:	f807c793          	xori	a5,a5,-128
   10fec:	0580006f          	j	11044 <bf16_sqrt+0x28c>
   10ff0:	fec42783          	lw	a5,-20(s0)
   10ff4:	00f04663          	bgtz	a5,11000 <bf16_sqrt+0x248>
   10ff8:	00000793          	li	a5,0
   10ffc:	0480006f          	j	11044 <bf16_sqrt+0x28c>
   11000:	fec42783          	lw	a5,-20(s0)
   11004:	01079793          	slli	a5,a5,0x10
   11008:	4107d793          	srai	a5,a5,0x10
   1100c:	00779793          	slli	a5,a5,0x7
   11010:	01079713          	slli	a4,a5,0x10
   11014:	41075713          	srai	a4,a4,0x10
   11018:	000087b7          	lui	a5,0x8
   1101c:	f8078793          	addi	a5,a5,-128 # 7f80 <_start-0x8080>
   11020:	00f777b3          	and	a5,a4,a5
   11024:	01079713          	slli	a4,a5,0x10
   11028:	41075713          	srai	a4,a4,0x10
   1102c:	fce41783          	lh	a5,-50(s0)
   11030:	00f767b3          	or	a5,a4,a5
   11034:	01079793          	slli	a5,a5,0x10
   11038:	4107d793          	srai	a5,a5,0x10
   1103c:	01079793          	slli	a5,a5,0x10
   11040:	0107d793          	srli	a5,a5,0x10
   11044:	00078513          	mv	a0,a5
   11048:	04c12083          	lw	ra,76(sp)
   1104c:	04812403          	lw	s0,72(sp)
   11050:	05010113          	addi	sp,sp,80
   11054:	00008067          	ret

00011058 <main>:
   11058:	ff010113          	addi	sp,sp,-16
   1105c:	00112623          	sw	ra,12(sp)
   11060:	00812423          	sw	s0,8(sp)
   11064:	01010413          	addi	s0,sp,16
   11068:	00000793          	li	a5,0
   1106c:	00078513          	mv	a0,a5
   11070:	00c12083          	lw	ra,12(sp)
   11074:	00812403          	lw	s0,8(sp)
   11078:	01010113          	addi	sp,sp,16
   1107c:	00008067          	ret

00011080 <__mulsi3>:
   11080:	862a                	mv	a2,a0
   11082:	4501                	li	a0,0
   11084:	0015f693          	andi	a3,a1,1
   11088:	c291                	beqz	a3,1108c <__mulsi3+0xc>
   1108a:	9532                	add	a0,a0,a2
   1108c:	8185                	srli	a1,a1,0x1
   1108e:	0606                	slli	a2,a2,0x1
   11090:	f9f5                	bnez	a1,11084 <__mulsi3+0x4>
   11092:	8082                	ret
	...

Disassembly of section .riscv.attributes:

00000000 <.riscv.attributes>:
   0:	4f41                	li	t5,16
   2:	0000                	unimp
   4:	7200                	.insn	2, 0x7200
   6:	7369                	lui	t1,0xffffa
   8:	01007663          	bgeu	zero,a6,14 <_start-0xffec>
   c:	0045                	c.nop	17
   e:	0000                	unimp
  10:	1004                	addi	s1,sp,32
  12:	7205                	lui	tp,0xfffe1
  14:	3376                	.insn	2, 0x3376
  16:	6932                	.insn	2, 0x6932
  18:	7032                	.insn	2, 0x7032
  1a:	5f31                	li	t5,-20
  1c:	326d                	jal	fffff9c6 <__stack_top+0xfffed926>
  1e:	3070                	.insn	2, 0x3070
  20:	615f 7032 5f31      	.insn	6, 0x5f317032615f
  26:	30703263          	.insn	4, 0x30703263
  2a:	7a5f 6369 7273      	.insn	6, 0x727363697a5f
  30:	7032                	.insn	2, 0x7032
  32:	5f30                	lw	a2,120(a4)
  34:	6d7a                	.insn	2, 0x6d7a
  36:	756d                	lui	a0,0xffffb
  38:	316c                	.insn	2, 0x316c
  3a:	3070                	.insn	2, 0x3070
  3c:	7a5f 6161 6f6d      	.insn	6, 0x6f6d61617a5f
  42:	7031                	c.lui	zero,0xfffec
  44:	5f30                	lw	a2,120(a4)
  46:	617a                	.insn	2, 0x617a
  48:	726c                	.insn	2, 0x726c
  4a:	70316373          	.insn	4, 0x70316373
  4e:	0030                	addi	a2,sp,8

Disassembly of section .comment:

00000000 <.comment>:
   0:	3a434347          	.insn	4, 0x3a434347
   4:	2820                	.insn	2, 0x2820
   6:	5078                	lw	a4,100(s0)
   8:	6361                	lui	t1,0x18
   a:	4e47206b          	.insn	4, 0x4e47206b
   e:	2055                	jal	b2 <_start-0xff4e>
  10:	4952                	lw	s2,20(sp)
  12:	562d4353          	.insn	4, 0x562d4353
  16:	4520                	lw	s0,72(a0)
  18:	626d                	lui	tp,0x1b
  1a:	6465                	lui	s0,0x19
  1c:	6564                	.insn	2, 0x6564
  1e:	2064                	.insn	2, 0x2064
  20:	20434347          	.insn	4, 0x20434347
  24:	3878                	.insn	2, 0x3878
  26:	5f36                	lw	t5,108(sp)
  28:	3436                	.insn	2, 0x3436
  2a:	2029                	jal	34 <_start-0xffcc>
  2c:	3431                	jal	fffffa38 <__stack_top+0xfffed998>
  2e:	322e                	.insn	2, 0x322e
  30:	302e                	.insn	2, 0x302e
	...

Disassembly of section .debug_line:

00000000 <.debug_line>:
   0:	0071                	c.nop	28
   2:	0000                	unimp
   4:	0002                	c.slli64	zero
   6:	0000001b          	.insn	4, 0x001b
   a:	0101                	addi	sp,sp,0
   c:	000a0efb          	.insn	4, 0x000a0efb
  10:	0101                	addi	sp,sp,0
  12:	0101                	addi	sp,sp,0
  14:	0000                	unimp
  16:	0100                	addi	s0,sp,128
  18:	7300                	.insn	2, 0x7300
  1a:	6174                	.insn	2, 0x6174
  1c:	7472                	.insn	2, 0x7472
  1e:	532e                	lw	t1,232(sp)
  20:	0000                	unimp
  22:	0000                	unimp
  24:	0000                	unimp
  26:	0205                	addi	tp,tp,1 # 1b001 <__stack_top+0x8f61>
  28:	0000                	unimp
  2a:	0001                	nop
  2c:	0316                	slli	t1,t1,0x5
  2e:	00080903          	lb	s2,0(a6)
  32:	0301                	addi	t1,t1,0 # 18000 <__stack_top+0x5f60>
  34:	0901                	addi	s2,s2,0
  36:	0008                	.insn	2, 0x0008
  38:	0301                	addi	t1,t1,0
  3a:	0902                	c.slli64	s2
  3c:	0008                	.insn	2, 0x0008
  3e:	0301                	addi	t1,t1,0
  40:	0901                	addi	s2,s2,0
  42:	0004                	.insn	2, 0x0004
  44:	0301                	addi	t1,t1,0
  46:	0901                	addi	s2,s2,0
  48:	0004                	.insn	2, 0x0004
  4a:	0301                	addi	t1,t1,0
  4c:	0901                	addi	s2,s2,0
  4e:	0004                	.insn	2, 0x0004
  50:	0301                	addi	t1,t1,0
  52:	0904                	addi	s1,sp,144
  54:	0004                	.insn	2, 0x0004
  56:	0301                	addi	t1,t1,0
  58:	00040903          	lb	s2,0(s0) # 19000 <__stack_top+0x6f60>
  5c:	0301                	addi	t1,t1,0
  5e:	0901                	addi	s2,s2,0
  60:	0004                	.insn	2, 0x0004
  62:	0301                	addi	t1,t1,0
  64:	0901                	addi	s2,s2,0
  66:	0004                	.insn	2, 0x0004
  68:	0301                	addi	t1,t1,0
  6a:	0904                	addi	s1,sp,144
  6c:	0004                	.insn	2, 0x0004
  6e:	0901                	addi	s2,s2,0
  70:	0004                	.insn	2, 0x0004
  72:	0100                	addi	s0,sp,128
  74:	2a01                	jal	184 <_start-0xfe7c>
  76:	000c                	.insn	2, 0x000c
  78:	0500                	addi	s0,sp,640
  7a:	0400                	addi	s0,sp,512
  7c:	3c00                	.insn	2, 0x3c00
  7e:	0000                	unimp
  80:	0100                	addi	s0,sp,128
  82:	0101                	addi	sp,sp,0
  84:	000d0efb          	.insn	4, 0x000d0efb
  88:	0101                	addi	sp,sp,0
  8a:	0101                	addi	sp,sp,0
  8c:	0000                	unimp
  8e:	0100                	addi	s0,sp,128
  90:	0000                	unimp
  92:	0101                	addi	sp,sp,0
  94:	1f01                	addi	t5,t5,-32
  96:	00000003          	lb	zero,0(zero) # 0 <_start-0x10000>
  9a:	5700                	lw	s0,40(a4)
  9c:	0000                	unimp
  9e:	b700                	.insn	2, 0xb700
  a0:	0000                	unimp
  a2:	0200                	addi	s0,sp,256
  a4:	1f01                	addi	t5,t5,-32
  a6:	0f02                	c.slli64	t5
  a8:	5004                	lw	s1,32(s0)
  aa:	0000                	unimp
  ac:	0000                	unimp
  ae:	0050                	addi	a2,sp,4
  b0:	0000                	unimp
  b2:	1300                	addi	s0,sp,416
  b4:	0001                	nop
  b6:	0100                	addi	s0,sp,128
  b8:	0124                	addi	s1,sp,136
  ba:	0000                	unimp
  bc:	0502                	c.slli64	a0
  be:	0001                	nop
  c0:	0205                	addi	tp,tp,1 # 1 <_start-0xffff>
  c2:	003c                	addi	a5,sp,8
  c4:	0001                	nop
  c6:	05011103          	lh	sp,80(sp)
  ca:	0901030f          	.insn	4, 0x0901030f
  ce:	0014                	.insn	2, 0x0014
  d0:	0501                	addi	a0,a0,0 # ffffb000 <__stack_top+0xfffe8f60>
  d2:	0315                	addi	t1,t1,5
  d4:	0900                	addi	s0,sp,144
  d6:	0004                	.insn	2, 0x0004
  d8:	0501                	addi	a0,a0,0
  da:	0338                	addi	a4,sp,392
  dc:	0900                	addi	s0,sp,144
  de:	0010                	.insn	2, 0x0010
  e0:	0501                	addi	a0,a0,0
  e2:	030e                	slli	t1,t1,0x3
  e4:	0901                	addi	s2,s2,0
  e6:	000c                	.insn	2, 0x000c
  e8:	0501                	addi	a0,a0,0
  ea:	0314                	addi	a3,sp,384
  ec:	0900                	addi	s0,sp,144
  ee:	0004                	.insn	2, 0x0004
  f0:	0501                	addi	a0,a0,0
  f2:	0038                	addi	a4,sp,8
  f4:	0402                	c.slli64	s0
  f6:	0301                	addi	t1,t1,0
  f8:	097f 0004 0001 0402 	.insn	10, 0x0603040200010004097f
 100:	0603 
 102:	04090003          	lb	zero,64(s2)
 106:	0100                	addi	s0,sp,128
 108:	04090003          	lb	zero,64(s2)
 10c:	0100                	addi	s0,sp,128
 10e:	0200                	addi	s0,sp,256
 110:	0404                	addi	s1,sp,512
 112:	04090003          	lb	zero,64(s2)
 116:	0100                	addi	s0,sp,128
 118:	0200                	addi	s0,sp,256
 11a:	0604                	addi	s1,sp,768
 11c:	04090003          	lb	zero,64(s2)
 120:	0100                	addi	s0,sp,128
 122:	0105                	addi	sp,sp,1
 124:	0306                	slli	t1,t1,0x1
 126:	0902                	c.slli64	s2
 128:	0008                	.insn	2, 0x0008
 12a:	0301                	addi	t1,t1,0
 12c:	00140903          	lb	s2,1(s0)
 130:	0501                	addi	a0,a0,0
 132:	0901030f          	.insn	4, 0x0901030f
 136:	0014                	.insn	2, 0x0014
 138:	0501                	addi	a0,a0,0
 13a:	0315                	addi	t1,t1,5
 13c:	0900                	addi	s0,sp,144
 13e:	0004                	.insn	2, 0x0004
 140:	0501                	addi	a0,a0,0
 142:	0338                	addi	a4,sp,392
 144:	0900                	addi	s0,sp,144
 146:	0010                	.insn	2, 0x0010
 148:	0501                	addi	a0,a0,0
 14a:	0901030f          	.insn	4, 0x0901030f
 14e:	000c                	.insn	2, 0x000c
 150:	0501                	addi	a0,a0,0
 152:	0315                	addi	t1,t1,5
 154:	0900                	addi	s0,sp,144
 156:	0004                	.insn	2, 0x0004
 158:	0501                	addi	a0,a0,0
 15a:	0038                	addi	a4,sp,8
 15c:	0402                	c.slli64	s0
 15e:	0301                	addi	t1,t1,0
 160:	097f 0004 0001 0402 	.insn	10, 0x0603040200010004097f
 168:	0603 
 16a:	04090003          	lb	zero,64(s2)
 16e:	0100                	addi	s0,sp,128
 170:	04090003          	lb	zero,64(s2)
 174:	0100                	addi	s0,sp,128
 176:	0200                	addi	s0,sp,256
 178:	0404                	addi	s1,sp,512
 17a:	04090003          	lb	zero,64(s2)
 17e:	0100                	addi	s0,sp,128
 180:	0200                	addi	s0,sp,256
 182:	0604                	addi	s1,sp,768
 184:	04090003          	lb	zero,64(s2)
 188:	0100                	addi	s0,sp,128
 18a:	0105                	addi	sp,sp,1
 18c:	0306                	slli	t1,t1,0x1
 18e:	0902                	c.slli64	s2
 190:	0008                	.insn	2, 0x0008
 192:	0301                	addi	t1,t1,0
 194:	00140903          	lb	s2,1(s0)
 198:	0501                	addi	a0,a0,0
 19a:	0901030f          	.insn	4, 0x0901030f
 19e:	0014                	.insn	2, 0x0014
 1a0:	0501                	addi	a0,a0,0
 1a2:	0315                	addi	t1,t1,5
 1a4:	0900                	addi	s0,sp,144
 1a6:	0004                	.insn	2, 0x0004
 1a8:	0501                	addi	a0,a0,0
 1aa:	030c                	addi	a1,sp,384
 1ac:	0900                	addi	s0,sp,144
 1ae:	0010                	.insn	2, 0x0010
 1b0:	0501                	addi	a0,a0,0
 1b2:	0301                	addi	t1,t1,0
 1b4:	0901                	addi	s2,s2,0
 1b6:	0008                	.insn	2, 0x0008
 1b8:	0301                	addi	t1,t1,0
 1ba:	00140903          	lb	s2,1(s0)
 1be:	0501                	addi	a0,a0,0
 1c0:	0305                	addi	t1,t1,1
 1c2:	0902                	c.slli64	s2
 1c4:	0014                	.insn	2, 0x0014
 1c6:	0501                	addi	a0,a0,0
 1c8:	09010313          	addi	t1,sp,144
 1cc:	0008                	.insn	2, 0x0008
 1ce:	0501                	addi	a0,a0,0
 1d0:	031a                	slli	t1,t1,0x6
 1d2:	0900                	addi	s0,sp,144
 1d4:	0008                	.insn	2, 0x0008
 1d6:	0501                	addi	a0,a0,0
 1d8:	0308                	addi	a0,sp,384
 1da:	0900                	addi	s0,sp,144
 1dc:	0004                	.insn	2, 0x0004
 1de:	0501                	addi	a0,a0,0
 1e0:	0901032b          	.insn	4, 0x0901032b
 1e4:	0008                	.insn	2, 0x0008
 1e6:	0501                	addi	a0,a0,0
 1e8:	0310                	addi	a2,sp,384
 1ea:	0900                	addi	s0,sp,144
 1ec:	0008                	.insn	2, 0x0008
 1ee:	0501                	addi	a0,a0,0
 1f0:	031a                	slli	t1,t1,0x6
 1f2:	0901                	addi	s2,s2,0
 1f4:	000c                	.insn	2, 0x000c
 1f6:	0501                	addi	a0,a0,0
 1f8:	0321                	addi	t1,t1,8
 1fa:	0900                	addi	s0,sp,144
 1fc:	0008                	.insn	2, 0x0008
 1fe:	0501                	addi	a0,a0,0
 200:	030d                	addi	t1,t1,3
 202:	0900                	addi	s0,sp,144
 204:	0004                	.insn	2, 0x0004
 206:	0501                	addi	a0,a0,0
 208:	0326                	slli	t1,t1,0x9
 20a:	0901                	addi	s2,s2,0
 20c:	0018                	.insn	2, 0x0018
 20e:	0501                	addi	a0,a0,0
 210:	030c                	addi	a1,sp,384
 212:	0900                	addi	s0,sp,144
 214:	0008                	.insn	2, 0x0008
 216:	0501                	addi	a0,a0,0
 218:	0301                	addi	t1,t1,0
 21a:	0901                	addi	s2,s2,0
 21c:	0008                	.insn	2, 0x0008
 21e:	0301                	addi	t1,t1,0
 220:	00140903          	lb	s2,1(s0)
 224:	0501                	addi	a0,a0,0
 226:	09010327          	.insn	4, 0x09010327
 22a:	0014                	.insn	2, 0x0014
 22c:	0501                	addi	a0,a0,0
 22e:	032e                	slli	t1,t1,0xb
 230:	0900                	addi	s0,sp,144
 232:	0004                	.insn	2, 0x0004
 234:	0501                	addi	a0,a0,0
 236:	030e                	slli	t1,t1,0x3
 238:	0900                	addi	s0,sp,144
 23a:	0004                	.insn	2, 0x0004
 23c:	0501                	addi	a0,a0,0
 23e:	0305                	addi	t1,t1,1
 240:	0902                	c.slli64	s2
 242:	0004                	.insn	2, 0x0004
 244:	0501                	addi	a0,a0,0
 246:	030c                	addi	a1,sp,384
 248:	0901                	addi	s2,s2,0
 24a:	0008                	.insn	2, 0x0008
 24c:	0501                	addi	a0,a0,0
 24e:	0301                	addi	t1,t1,0
 250:	0901                	addi	s2,s2,0
 252:	0004                	.insn	2, 0x0004
 254:	0301                	addi	t1,t1,0
 256:	00140903          	lb	s2,1(s0)
 25a:	0501                	addi	a0,a0,0
 25c:	0319                	addi	t1,t1,6
 25e:	0901                	addi	s2,s2,0
 260:	0018                	.insn	2, 0x0018
 262:	0501                	addi	a0,a0,0
 264:	030e                	slli	t1,t1,0x3
 266:	0900                	addi	s0,sp,144
 268:	0004                	.insn	2, 0x0004
 26a:	0501                	addi	a0,a0,0
 26c:	0319                	addi	t1,t1,6
 26e:	0901                	addi	s2,s2,0
 270:	0008                	.insn	2, 0x0008
 272:	0501                	addi	a0,a0,0
 274:	030e                	slli	t1,t1,0x3
 276:	0900                	addi	s0,sp,144
 278:	0004                	.insn	2, 0x0004
 27a:	0501                	addi	a0,a0,0
 27c:	0318                	addi	a4,sp,384
 27e:	0901                	addi	s2,s2,0
 280:	0008                	.insn	2, 0x0008
 282:	0501                	addi	a0,a0,0
 284:	0324                	addi	s1,sp,392
 286:	0900                	addi	s0,sp,144
 288:	0004                	.insn	2, 0x0004
 28a:	0501                	addi	a0,a0,0
 28c:	030d                	addi	t1,t1,3
 28e:	0900                	addi	s0,sp,144
 290:	0014                	.insn	2, 0x0014
 292:	0501                	addi	a0,a0,0
 294:	0318                	addi	a4,sp,384
 296:	0901                	addi	s2,s2,0
 298:	0008                	.insn	2, 0x0008
 29a:	0501                	addi	a0,a0,0
 29c:	0324                	addi	s1,sp,392
 29e:	0900                	addi	s0,sp,144
 2a0:	0004                	.insn	2, 0x0004
 2a2:	0501                	addi	a0,a0,0
 2a4:	030d                	addi	t1,t1,3
 2a6:	0900                	addi	s0,sp,144
 2a8:	0014                	.insn	2, 0x0014
 2aa:	0501                	addi	a0,a0,0
 2ac:	0318                	addi	a4,sp,384
 2ae:	0901                	addi	s2,s2,0
 2b0:	0008                	.insn	2, 0x0008
 2b2:	0501                	addi	a0,a0,0
 2b4:	030e                	slli	t1,t1,0x3
 2b6:	0900                	addi	s0,sp,144
 2b8:	0004                	.insn	2, 0x0004
 2ba:	0501                	addi	a0,a0,0
 2bc:	0318                	addi	a4,sp,384
 2be:	0901                	addi	s2,s2,0
 2c0:	0008                	.insn	2, 0x0008
 2c2:	0501                	addi	a0,a0,0
 2c4:	030e                	slli	t1,t1,0x3
 2c6:	0900                	addi	s0,sp,144
 2c8:	0004                	.insn	2, 0x0004
 2ca:	0501                	addi	a0,a0,0
 2cc:	0308                	addi	a0,sp,384
 2ce:	0902                	c.slli64	s2
 2d0:	0008                	.insn	2, 0x0008
 2d2:	0501                	addi	a0,a0,0
 2d4:	030c                	addi	a1,sp,384
 2d6:	0901                	addi	s2,s2,0
 2d8:	000c                	.insn	2, 0x000c
 2da:	0501                	addi	a0,a0,0
 2dc:	0314                	addi	a3,sp,384
 2de:	0901                	addi	s2,s2,0
 2e0:	0008                	.insn	2, 0x0008
 2e2:	0501                	addi	a0,a0,0
 2e4:	030c                	addi	a1,sp,384
 2e6:	0901                	addi	s2,s2,0
 2e8:	0008                	.insn	2, 0x0008
 2ea:	0501                	addi	a0,a0,0
 2ec:	0335                	addi	t1,t1,13
 2ee:	0901                	addi	s2,s2,0
 2f0:	000c                	.insn	2, 0x000c
 2f2:	0501                	addi	a0,a0,0
 2f4:	001c                	.insn	2, 0x001c
 2f6:	0402                	c.slli64	s0
 2f8:	0301                	addi	t1,t1,0
 2fa:	0900                	addi	s0,sp,144
 2fc:	0008                	.insn	2, 0x0008
 2fe:	0501                	addi	a0,a0,0
 300:	0035                	c.nop	13
 302:	0402                	c.slli64	s0
 304:	09000303          	lb	t1,144(zero) # 90 <_start-0xff70>
 308:	000c                	.insn	2, 0x000c
 30a:	0601                	addi	a2,a2,0
 30c:	08090003          	lb	zero,128(s2)
 310:	0100                	addi	s0,sp,128
 312:	0200                	addi	s0,sp,256
 314:	0404                	addi	s1,sp,512
 316:	04090003          	lb	zero,64(s2)
 31a:	0100                	addi	s0,sp,128
 31c:	04090003          	lb	zero,64(s2)
 320:	0100                	addi	s0,sp,128
 322:	1005                	c.nop	-31
 324:	0306                	slli	t1,t1,0x1
 326:	0901                	addi	s2,s2,0
 328:	0004                	.insn	2, 0x0004
 32a:	0501                	addi	a0,a0,0
 32c:	0308                	addi	a0,sp,384
 32e:	0902                	c.slli64	s2
 330:	0008                	.insn	2, 0x0008
 332:	0501                	addi	a0,a0,0
 334:	0310                	addi	a2,sp,384
 336:	0901                	addi	s2,s2,0
 338:	000c                	.insn	2, 0x000c
 33a:	0501                	addi	a0,a0,0
 33c:	0308                	addi	a0,sp,384
 33e:	0901                	addi	s2,s2,0
 340:	0008                	.insn	2, 0x0008
 342:	0501                	addi	a0,a0,0
 344:	0010                	.insn	2, 0x0010
 346:	0402                	c.slli64	s0
 348:	0301                	addi	t1,t1,0
 34a:	0900                	addi	s0,sp,144
 34c:	0008                	.insn	2, 0x0008
 34e:	0301                	addi	t1,t1,0
 350:	0901                	addi	s2,s2,0
 352:	0008                	.insn	2, 0x0008
 354:	0501                	addi	a0,a0,0
 356:	0308                	addi	a0,sp,384
 358:	0901                	addi	s2,s2,0
 35a:	0008                	.insn	2, 0x0008
 35c:	0501                	addi	a0,a0,0
 35e:	0010                	.insn	2, 0x0010
 360:	0402                	c.slli64	s0
 362:	0301                	addi	t1,t1,0
 364:	0900                	addi	s0,sp,144
 366:	0008                	.insn	2, 0x0008
 368:	0301                	addi	t1,t1,0
 36a:	0901                	addi	s2,s2,0
 36c:	0008                	.insn	2, 0x0008
 36e:	0501                	addi	a0,a0,0
 370:	0308                	addi	a0,sp,384
 372:	0901                	addi	s2,s2,0
 374:	0008                	.insn	2, 0x0008
 376:	0501                	addi	a0,a0,0
 378:	0310                	addi	a2,sp,384
 37a:	0901                	addi	s2,s2,0
 37c:	0008                	.insn	2, 0x0008
 37e:	0501                	addi	a0,a0,0
 380:	0308                	addi	a0,sp,384
 382:	0901                	addi	s2,s2,0
 384:	000c                	.insn	2, 0x000c
 386:	0501                	addi	a0,a0,0
 388:	0310                	addi	a2,sp,384
 38a:	0901                	addi	s2,s2,0
 38c:	0008                	.insn	2, 0x0008
 38e:	0501                	addi	a0,a0,0
 390:	031e                	slli	t1,t1,0x7
 392:	0902                	c.slli64	s2
 394:	000c                	.insn	2, 0x000c
 396:	0501                	addi	a0,a0,0
 398:	030d                	addi	t1,t1,3
 39a:	0900                	addi	s0,sp,144
 39c:	0014                	.insn	2, 0x0014
 39e:	0501                	addi	a0,a0,0
 3a0:	0308                	addi	a0,sp,384
 3a2:	0905                	addi	s2,s2,1
 3a4:	0004                	.insn	2, 0x0004
 3a6:	0501                	addi	a0,a0,0
 3a8:	0314                	addi	a3,sp,384
 3aa:	0901                	addi	s2,s2,0
 3ac:	0008                	.insn	2, 0x0008
 3ae:	0501                	addi	a0,a0,0
 3b0:	030c                	addi	a1,sp,384
 3b2:	0901                	addi	s2,s2,0
 3b4:	0008                	.insn	2, 0x0008
 3b6:	0501                	addi	a0,a0,0
 3b8:	0314                	addi	a3,sp,384
 3ba:	0901                	addi	s2,s2,0
 3bc:	000c                	.insn	2, 0x000c
 3be:	0501                	addi	a0,a0,0
 3c0:	0310                	addi	a2,sp,384
 3c2:	0901                	addi	s2,s2,0
 3c4:	0008                	.insn	2, 0x0008
 3c6:	0501                	addi	a0,a0,0
 3c8:	0901030f          	.insn	4, 0x0901030f
 3cc:	0014                	.insn	2, 0x0014
 3ce:	0501                	addi	a0,a0,0
 3d0:	0314                	addi	a3,sp,384
 3d2:	0901                	addi	s2,s2,0
 3d4:	0008                	.insn	2, 0x0008
 3d6:	0501                	addi	a0,a0,0
 3d8:	030c                	addi	a1,sp,384
 3da:	0901                	addi	s2,s2,0
 3dc:	0008                	.insn	2, 0x0008
 3de:	0501                	addi	a0,a0,0
 3e0:	0314                	addi	a3,sp,384
 3e2:	0901                	addi	s2,s2,0
 3e4:	000c                	.insn	2, 0x000c
 3e6:	0501                	addi	a0,a0,0
 3e8:	0310                	addi	a2,sp,384
 3ea:	0901                	addi	s2,s2,0
 3ec:	0008                	.insn	2, 0x0008
 3ee:	0501                	addi	a0,a0,0
 3f0:	0314                	addi	a3,sp,384
 3f2:	0900                	addi	s0,sp,144
 3f4:	0004                	.insn	2, 0x0004
 3f6:	0501                	addi	a0,a0,0
 3f8:	0310                	addi	a2,sp,384
 3fa:	0900                	addi	s0,sp,144
 3fc:	0008                	.insn	2, 0x0008
 3fe:	0501                	addi	a0,a0,0
 400:	0314                	addi	a3,sp,384
 402:	0902                	c.slli64	s2
 404:	000c                	.insn	2, 0x000c
 406:	0501                	addi	a0,a0,0
 408:	0308                	addi	a0,sp,384
 40a:	00080903          	lb	s2,0(a6)
 40e:	0501                	addi	a0,a0,0
 410:	0315                	addi	t1,t1,5
 412:	0901                	addi	s2,s2,0
 414:	000c                	.insn	2, 0x000c
 416:	0501                	addi	a0,a0,0
 418:	09010317          	auipc	t1,0x9010
 41c:	0008                	.insn	2, 0x0008
 41e:	0501                	addi	a0,a0,0
 420:	0329                	addi	t1,t1,10 # 9010422 <__stack_top+0x8ffe382>
 422:	0900                	addi	s0,sp,144
 424:	0004                	.insn	2, 0x0004
 426:	0501                	addi	a0,a0,0
 428:	0315                	addi	t1,t1,5
 42a:	0900                	addi	s0,sp,144
 42c:	0004                	.insn	2, 0x0004
 42e:	0501                	addi	a0,a0,0
 430:	0319                	addi	t1,t1,6
 432:	0902                	c.slli64	s2
 434:	0008                	.insn	2, 0x0008
 436:	0501                	addi	a0,a0,0
 438:	030c                	addi	a1,sp,384
 43a:	0900                	addi	s0,sp,144
 43c:	0008                	.insn	2, 0x0008
 43e:	0501                	addi	a0,a0,0
 440:	0319                	addi	t1,t1,6
 442:	0901                	addi	s2,s2,0
 444:	0004                	.insn	2, 0x0004
 446:	0501                	addi	a0,a0,0
 448:	0311                	addi	t1,t1,4
 44a:	0901                	addi	s2,s2,0
 44c:	000c                	.insn	2, 0x000c
 44e:	0501                	addi	a0,a0,0
 450:	0310                	addi	a2,sp,384
 452:	0900                	addi	s0,sp,144
 454:	0010                	.insn	2, 0x0010
 456:	0501                	addi	a0,a0,0
 458:	033e                	slli	t1,t1,0xf
 45a:	0901                	addi	s2,s2,0
 45c:	0010                	.insn	2, 0x0010
 45e:	0501                	addi	a0,a0,0
 460:	030c                	addi	a1,sp,384
 462:	00300903          	lb	s2,3(zero) # 3 <_start-0xfffd>
 466:	0501                	addi	a0,a0,0
 468:	0319                	addi	t1,t1,6
 46a:	0901                	addi	s2,s2,0
 46c:	000c                	.insn	2, 0x000c
 46e:	0501                	addi	a0,a0,0
 470:	0322                	slli	t1,t1,0x8
 472:	0901                	addi	s2,s2,0
 474:	0008                	.insn	2, 0x0008
 476:	0501                	addi	a0,a0,0
 478:	0319                	addi	t1,t1,6
 47a:	0900                	addi	s0,sp,144
 47c:	000c                	.insn	2, 0x000c
 47e:	0301                	addi	t1,t1,0
 480:	0902                	c.slli64	s2
 482:	0008                	.insn	2, 0x0008
 484:	0501                	addi	a0,a0,0
 486:	0322                	slli	t1,t1,0x8
 488:	0901                	addi	s2,s2,0
 48a:	0008                	.insn	2, 0x0008
 48c:	0501                	addi	a0,a0,0
 48e:	0319                	addi	t1,t1,6
 490:	0900                	addi	s0,sp,144
 492:	000c                	.insn	2, 0x000c
 494:	0501                	addi	a0,a0,0
 496:	030c                	addi	a1,sp,384
 498:	00040903          	lb	s2,0(s0)
 49c:	0501                	addi	a0,a0,0
 49e:	0314                	addi	a3,sp,384
 4a0:	0901                	addi	s2,s2,0
 4a2:	0008                	.insn	2, 0x0008
 4a4:	0501                	addi	a0,a0,0
 4a6:	0319                	addi	t1,t1,6
 4a8:	0902                	c.slli64	s2
 4aa:	0008                	.insn	2, 0x0008
 4ac:	0501                	addi	a0,a0,0
 4ae:	0311                	addi	t1,t1,4
 4b0:	0901                	addi	s2,s2,0
 4b2:	000c                	.insn	2, 0x000c
 4b4:	0501                	addi	a0,a0,0
 4b6:	0310                	addi	a2,sp,384
 4b8:	0900                	addi	s0,sp,144
 4ba:	0010                	.insn	2, 0x0010
 4bc:	0501                	addi	a0,a0,0
 4be:	0318                	addi	a4,sp,384
 4c0:	0901                	addi	s2,s2,0
 4c2:	000c                	.insn	2, 0x000c
 4c4:	0501                	addi	a0,a0,0
 4c6:	031e                	slli	t1,t1,0x7
 4c8:	097d                	addi	s2,s2,31
 4ca:	0008                	.insn	2, 0x0008
 4cc:	0501                	addi	a0,a0,0
 4ce:	0310                	addi	a2,sp,384
 4d0:	0900                	addi	s0,sp,144
 4d2:	0008                	.insn	2, 0x0008
 4d4:	0501                	addi	a0,a0,0
 4d6:	0325                	addi	t1,t1,9
 4d8:	0908                	addi	a0,sp,144
 4da:	0004                	.insn	2, 0x0004
 4dc:	0501                	addi	a0,a0,0
 4de:	033c                	addi	a5,sp,392
 4e0:	0900                	addi	s0,sp,144
 4e2:	0010                	.insn	2, 0x0010
 4e4:	0501                	addi	a0,a0,0
 4e6:	0325                	addi	t1,t1,9
 4e8:	0900                	addi	s0,sp,144
 4ea:	0024                	addi	s1,sp,8
 4ec:	0501                	addi	a0,a0,0
 4ee:	031e                	slli	t1,t1,0x7
 4f0:	0901                	addi	s2,s2,0
 4f2:	0014                	.insn	2, 0x0014
 4f4:	0501                	addi	a0,a0,0
 4f6:	0342                	slli	t1,t1,0x10
 4f8:	097f 0018 0501 0301 	.insn	10, 0x0903030105010018097f
 500:	0903 
 502:	000c                	.insn	2, 0x000c
 504:	0301                	addi	t1,t1,0
 506:	00140903          	lb	s2,1(s0)
 50a:	0501                	addi	a0,a0,0
 50c:	0306                	slli	t1,t1,0x1
 50e:	0901                	addi	s2,s2,0
 510:	0018                	.insn	2, 0x0018
 512:	0501                	addi	a0,a0,0
 514:	030c                	addi	a1,sp,384
 516:	0900                	addi	s0,sp,144
 518:	0004                	.insn	2, 0x0004
 51a:	0301                	addi	t1,t1,0
 51c:	0901                	addi	s2,s2,0
 51e:	0014                	.insn	2, 0x0014
 520:	0501                	addi	a0,a0,0
 522:	0301                	addi	t1,t1,0
 524:	0901                	addi	s2,s2,0
 526:	0018                	.insn	2, 0x0018
 528:	0301                	addi	t1,t1,0
 52a:	00140903          	lb	s2,1(s0)
 52e:	0501                	addi	a0,a0,0
 530:	0319                	addi	t1,t1,6
 532:	0901                	addi	s2,s2,0
 534:	0018                	.insn	2, 0x0018
 536:	0501                	addi	a0,a0,0
 538:	030e                	slli	t1,t1,0x3
 53a:	0900                	addi	s0,sp,144
 53c:	0004                	.insn	2, 0x0004
 53e:	0501                	addi	a0,a0,0
 540:	0319                	addi	t1,t1,6
 542:	0901                	addi	s2,s2,0
 544:	0008                	.insn	2, 0x0008
 546:	0501                	addi	a0,a0,0
 548:	030e                	slli	t1,t1,0x3
 54a:	0900                	addi	s0,sp,144
 54c:	0004                	.insn	2, 0x0004
 54e:	0501                	addi	a0,a0,0
 550:	0318                	addi	a4,sp,384
 552:	0901                	addi	s2,s2,0
 554:	0008                	.insn	2, 0x0008
 556:	0501                	addi	a0,a0,0
 558:	0324                	addi	s1,sp,392
 55a:	0900                	addi	s0,sp,144
 55c:	0004                	.insn	2, 0x0004
 55e:	0501                	addi	a0,a0,0
 560:	030d                	addi	t1,t1,3
 562:	0900                	addi	s0,sp,144
 564:	0014                	.insn	2, 0x0014
 566:	0501                	addi	a0,a0,0
 568:	0318                	addi	a4,sp,384
 56a:	0901                	addi	s2,s2,0
 56c:	0008                	.insn	2, 0x0008
 56e:	0501                	addi	a0,a0,0
 570:	0324                	addi	s1,sp,392
 572:	0900                	addi	s0,sp,144
 574:	0004                	.insn	2, 0x0004
 576:	0501                	addi	a0,a0,0
 578:	030d                	addi	t1,t1,3
 57a:	0900                	addi	s0,sp,144
 57c:	0014                	.insn	2, 0x0014
 57e:	0501                	addi	a0,a0,0
 580:	0318                	addi	a4,sp,384
 582:	0901                	addi	s2,s2,0
 584:	0008                	.insn	2, 0x0008
 586:	0501                	addi	a0,a0,0
 588:	030e                	slli	t1,t1,0x3
 58a:	0900                	addi	s0,sp,144
 58c:	0004                	.insn	2, 0x0004
 58e:	0501                	addi	a0,a0,0
 590:	0318                	addi	a4,sp,384
 592:	0901                	addi	s2,s2,0
 594:	0008                	.insn	2, 0x0008
 596:	0501                	addi	a0,a0,0
 598:	030e                	slli	t1,t1,0x3
 59a:	0900                	addi	s0,sp,144
 59c:	0004                	.insn	2, 0x0004
 59e:	0301                	addi	t1,t1,0
 5a0:	0902                	c.slli64	s2
 5a2:	0008                	.insn	2, 0x0008
 5a4:	0501                	addi	a0,a0,0
 5a6:	0308                	addi	a0,sp,384
 5a8:	0902                	c.slli64	s2
 5aa:	0014                	.insn	2, 0x0014
 5ac:	0501                	addi	a0,a0,0
 5ae:	030c                	addi	a1,sp,384
 5b0:	0901                	addi	s2,s2,0
 5b2:	000c                	.insn	2, 0x000c
 5b4:	0501                	addi	a0,a0,0
 5b6:	0314                	addi	a3,sp,384
 5b8:	0901                	addi	s2,s2,0
 5ba:	0008                	.insn	2, 0x0008
 5bc:	0501                	addi	a0,a0,0
 5be:	030c                	addi	a1,sp,384
 5c0:	0901                	addi	s2,s2,0
 5c2:	0008                	.insn	2, 0x0008
 5c4:	0501                	addi	a0,a0,0
 5c6:	0014                	.insn	2, 0x0014
 5c8:	0402                	c.slli64	s0
 5ca:	0301                	addi	t1,t1,0
 5cc:	0900                	addi	s0,sp,144
 5ce:	0008                	.insn	2, 0x0008
 5d0:	0301                	addi	t1,t1,0
 5d2:	0901                	addi	s2,s2,0
 5d4:	0008                	.insn	2, 0x0008
 5d6:	0501                	addi	a0,a0,0
 5d8:	0336                	slli	t1,t1,0xd
 5da:	0901                	addi	s2,s2,0
 5dc:	000c                	.insn	2, 0x000c
 5de:	0501                	addi	a0,a0,0
 5e0:	0310                	addi	a2,sp,384
 5e2:	0900                	addi	s0,sp,144
 5e4:	002c                	addi	a1,sp,8
 5e6:	0501                	addi	a0,a0,0
 5e8:	0308                	addi	a0,sp,384
 5ea:	0902                	c.slli64	s2
 5ec:	0004                	.insn	2, 0x0004
 5ee:	0501                	addi	a0,a0,0
 5f0:	030c                	addi	a1,sp,384
 5f2:	0901                	addi	s2,s2,0
 5f4:	000c                	.insn	2, 0x000c
 5f6:	0501                	addi	a0,a0,0
 5f8:	0314                	addi	a3,sp,384
 5fa:	0901                	addi	s2,s2,0
 5fc:	0008                	.insn	2, 0x0008
 5fe:	0501                	addi	a0,a0,0
 600:	030c                	addi	a1,sp,384
 602:	0901                	addi	s2,s2,0
 604:	0008                	.insn	2, 0x0008
 606:	0501                	addi	a0,a0,0
 608:	0014                	.insn	2, 0x0014
 60a:	0402                	c.slli64	s0
 60c:	0301                	addi	t1,t1,0
 60e:	0900                	addi	s0,sp,144
 610:	0008                	.insn	2, 0x0008
 612:	0301                	addi	t1,t1,0
 614:	0901                	addi	s2,s2,0
 616:	0008                	.insn	2, 0x0008
 618:	0501                	addi	a0,a0,0
 61a:	0336                	slli	t1,t1,0xd
 61c:	0901                	addi	s2,s2,0
 61e:	000c                	.insn	2, 0x000c
 620:	0501                	addi	a0,a0,0
 622:	0310                	addi	a2,sp,384
 624:	0900                	addi	s0,sp,144
 626:	002c                	addi	a1,sp,8
 628:	0501                	addi	a0,a0,0
 62a:	0308                	addi	a0,sp,384
 62c:	0902                	c.slli64	s2
 62e:	0004                	.insn	2, 0x0004
 630:	0501                	addi	a0,a0,0
 632:	0011                	c.nop	4
 634:	0402                	c.slli64	s0
 636:	0301                	addi	t1,t1,0
 638:	0900                	addi	s0,sp,144
 63a:	0008                	.insn	2, 0x0008
 63c:	0501                	addi	a0,a0,0
 63e:	001d                	c.nop	7
 640:	0402                	c.slli64	s0
 642:	09000303          	lb	t1,144(zero) # 90 <_start-0xff70>
 646:	0008                	.insn	2, 0x0008
 648:	0501                	addi	a0,a0,0
 64a:	0028                	addi	a0,sp,8
 64c:	0402                	c.slli64	s0
 64e:	0304                	addi	s1,sp,384
 650:	0900                	addi	s0,sp,144
 652:	0008                	.insn	2, 0x0008
 654:	0501                	addi	a0,a0,0
 656:	032e                	slli	t1,t1,0xb
 658:	0901                	addi	s2,s2,0
 65a:	0008                	.insn	2, 0x0008
 65c:	0501                	addi	a0,a0,0
 65e:	030d                	addi	t1,t1,3
 660:	0902                	c.slli64	s2
 662:	0014                	.insn	2, 0x0014
 664:	0501                	addi	a0,a0,0
 666:	0308                	addi	a0,sp,384
 668:	0901                	addi	s2,s2,0
 66a:	0004                	.insn	2, 0x0004
 66c:	0501                	addi	a0,a0,0
 66e:	0901030f          	.insn	4, 0x0901030f
 672:	0008                	.insn	2, 0x0008
 674:	0501                	addi	a0,a0,0
 676:	0314                	addi	a3,sp,384
 678:	0901                	addi	s2,s2,0
 67a:	0004                	.insn	2, 0x0004
 67c:	0501                	addi	a0,a0,0
 67e:	09010317          	auipc	t1,0x9010
 682:	000c                	.insn	2, 0x000c
 684:	0501                	addi	a0,a0,0
 686:	0319                	addi	t1,t1,6 # 9010684 <__stack_top+0x8ffe5e4>
 688:	097e                	slli	s2,s2,0x1f
 68a:	001c                	.insn	2, 0x001c
 68c:	0501                	addi	a0,a0,0
 68e:	0310                	addi	a2,sp,384
 690:	0900                	addi	s0,sp,144
 692:	0008                	.insn	2, 0x0008
 694:	0501                	addi	a0,a0,0
 696:	0904030f          	.insn	4, 0x0904030f
 69a:	0004                	.insn	2, 0x0004
 69c:	0501                	addi	a0,a0,0
 69e:	0310                	addi	a2,sp,384
 6a0:	0902                	c.slli64	s2
 6a2:	000c                	.insn	2, 0x000c
 6a4:	0501                	addi	a0,a0,0
 6a6:	0308                	addi	a0,sp,384
 6a8:	0901                	addi	s2,s2,0
 6aa:	000c                	.insn	2, 0x000c
 6ac:	0501                	addi	a0,a0,0
 6ae:	0901030f          	.insn	4, 0x0901030f
 6b2:	0008                	.insn	2, 0x0008
 6b4:	0501                	addi	a0,a0,0
 6b6:	0314                	addi	a3,sp,384
 6b8:	0901                	addi	s2,s2,0
 6ba:	0004                	.insn	2, 0x0004
 6bc:	0501                	addi	a0,a0,0
 6be:	09010317          	auipc	t1,0x9010
 6c2:	000c                	.insn	2, 0x000c
 6c4:	0501                	addi	a0,a0,0
 6c6:	0319                	addi	t1,t1,6 # 90106c4 <__stack_top+0x8ffe624>
 6c8:	097e                	slli	s2,s2,0x1f
 6ca:	001c                	.insn	2, 0x001c
 6cc:	0501                	addi	a0,a0,0
 6ce:	0310                	addi	a2,sp,384
 6d0:	0900                	addi	s0,sp,144
 6d2:	0008                	.insn	2, 0x0008
 6d4:	0501                	addi	a0,a0,0
 6d6:	0904030f          	.insn	4, 0x0904030f
 6da:	0004                	.insn	2, 0x0004
 6dc:	0501                	addi	a0,a0,0
 6de:	0310                	addi	a2,sp,384
 6e0:	0902                	c.slli64	s2
 6e2:	000c                	.insn	2, 0x000c
 6e4:	0501                	addi	a0,a0,0
 6e6:	031c                	addi	a5,sp,384
 6e8:	0902                	c.slli64	s2
 6ea:	000c                	.insn	2, 0x000c
 6ec:	0501                	addi	a0,a0,0
 6ee:	032e                	slli	t1,t1,0xb
 6f0:	0900                	addi	s0,sp,144
 6f2:	0004                	.insn	2, 0x0004
 6f4:	0501                	addi	a0,a0,0
 6f6:	030e                	slli	t1,t1,0x3
 6f8:	0900                	addi	s0,sp,144
 6fa:	0004                	.insn	2, 0x0004
 6fc:	0501                	addi	a0,a0,0
 6fe:	031a                	slli	t1,t1,0x6
 700:	0902                	c.slli64	s2
 702:	0014                	.insn	2, 0x0014
 704:	0501                	addi	a0,a0,0
 706:	032a                	slli	t1,t1,0xa
 708:	0900                	addi	s0,sp,144
 70a:	0004                	.insn	2, 0x0004
 70c:	0501                	addi	a0,a0,0
 70e:	0332                	slli	t1,t1,0xc
 710:	0900                	addi	s0,sp,144
 712:	0008                	.insn	2, 0x0008
 714:	0501                	addi	a0,a0,0
 716:	0342                	slli	t1,t1,0x10
 718:	0900                	addi	s0,sp,144
 71a:	0004                	.insn	2, 0x0004
 71c:	0501                	addi	a0,a0,0
 71e:	030d                	addi	t1,t1,3
 720:	0900                	addi	s0,sp,144
 722:	0004                	.insn	2, 0x0004
 724:	0501                	addi	a0,a0,0
 726:	0315                	addi	t1,t1,5
 728:	0902                	c.slli64	s2
 72a:	0008                	.insn	2, 0x0008
 72c:	0501                	addi	a0,a0,0
 72e:	0308                	addi	a0,sp,384
 730:	0900                	addi	s0,sp,144
 732:	000c                	.insn	2, 0x000c
 734:	0501                	addi	a0,a0,0
 736:	0324                	addi	s1,sp,392
 738:	0901                	addi	s2,s2,0
 73a:	0004                	.insn	2, 0x0004
 73c:	0501                	addi	a0,a0,0
 73e:	0315                	addi	t1,t1,5
 740:	0900                	addi	s0,sp,144
 742:	0008                	.insn	2, 0x0008
 744:	0501                	addi	a0,a0,0
 746:	09010313          	addi	t1,sp,144
 74a:	0008                	.insn	2, 0x0008
 74c:	0501                	addi	a0,a0,0
 74e:	0324                	addi	s1,sp,392
 750:	0902                	c.slli64	s2
 752:	0010                	.insn	2, 0x0010
 754:	0501                	addi	a0,a0,0
 756:	0315                	addi	t1,t1,5
 758:	0900                	addi	s0,sp,144
 75a:	0008                	.insn	2, 0x0008
 75c:	0501                	addi	a0,a0,0
 75e:	0308                	addi	a0,sp,384
 760:	0902                	c.slli64	s2
 762:	0008                	.insn	2, 0x0008
 764:	0501                	addi	a0,a0,0
 766:	0336                	slli	t1,t1,0xd
 768:	0901                	addi	s2,s2,0
 76a:	000c                	.insn	2, 0x000c
 76c:	0501                	addi	a0,a0,0
 76e:	0308                	addi	a0,sp,384
 770:	0901                	addi	s2,s2,0
 772:	0030                	addi	a2,sp,8
 774:	0501                	addi	a0,a0,0
 776:	030c                	addi	a1,sp,384
 778:	0901                	addi	s2,s2,0
 77a:	0008                	.insn	2, 0x0008
 77c:	0501                	addi	a0,a0,0
 77e:	0332                	slli	t1,t1,0xc
 780:	0901                	addi	s2,s2,0
 782:	000c                	.insn	2, 0x000c
 784:	0501                	addi	a0,a0,0
 786:	031c                	addi	a5,sp,384
 788:	0901                	addi	s2,s2,0
 78a:	0014                	.insn	2, 0x0014
 78c:	0501                	addi	a0,a0,0
 78e:	0315                	addi	t1,t1,5
 790:	0900                	addi	s0,sp,144
 792:	000c                	.insn	2, 0x000c
 794:	0501                	addi	a0,a0,0
 796:	0314                	addi	a3,sp,384
 798:	0901                	addi	s2,s2,0
 79a:	000c                	.insn	2, 0x000c
 79c:	0501                	addi	a0,a0,0
 79e:	0332                	slli	t1,t1,0xc
 7a0:	00040903          	lb	s2,0(s0)
 7a4:	0501                	addi	a0,a0,0
 7a6:	0349                	addi	t1,t1,18
 7a8:	0900                	addi	s0,sp,144
 7aa:	0010                	.insn	2, 0x0010
 7ac:	0501                	addi	a0,a0,0
 7ae:	0332                	slli	t1,t1,0xc
 7b0:	0900                	addi	s0,sp,144
 7b2:	002c                	addi	a1,sp,8
 7b4:	0501                	addi	a0,a0,0
 7b6:	0901032b          	.insn	4, 0x0901032b
 7ba:	0014                	.insn	2, 0x0014
 7bc:	0501                	addi	a0,a0,0
 7be:	097f034f          	.insn	4, 0x097f034f
 7c2:	0018                	.insn	2, 0x0018
 7c4:	0501                	addi	a0,a0,0
 7c6:	0301                	addi	t1,t1,0
 7c8:	0902                	c.slli64	s2
 7ca:	000c                	.insn	2, 0x000c
 7cc:	0301                	addi	t1,t1,0
 7ce:	00140903          	lb	s2,1(s0)
 7d2:	0501                	addi	a0,a0,0
 7d4:	0319                	addi	t1,t1,6
 7d6:	0901                	addi	s2,s2,0
 7d8:	0018                	.insn	2, 0x0018
 7da:	0501                	addi	a0,a0,0
 7dc:	030e                	slli	t1,t1,0x3
 7de:	0900                	addi	s0,sp,144
 7e0:	0004                	.insn	2, 0x0004
 7e2:	0501                	addi	a0,a0,0
 7e4:	0319                	addi	t1,t1,6
 7e6:	0901                	addi	s2,s2,0
 7e8:	0008                	.insn	2, 0x0008
 7ea:	0501                	addi	a0,a0,0
 7ec:	030e                	slli	t1,t1,0x3
 7ee:	0900                	addi	s0,sp,144
 7f0:	0004                	.insn	2, 0x0004
 7f2:	0501                	addi	a0,a0,0
 7f4:	0318                	addi	a4,sp,384
 7f6:	0901                	addi	s2,s2,0
 7f8:	0008                	.insn	2, 0x0008
 7fa:	0501                	addi	a0,a0,0
 7fc:	0324                	addi	s1,sp,392
 7fe:	0900                	addi	s0,sp,144
 800:	0004                	.insn	2, 0x0004
 802:	0501                	addi	a0,a0,0
 804:	030d                	addi	t1,t1,3
 806:	0900                	addi	s0,sp,144
 808:	0014                	.insn	2, 0x0014
 80a:	0501                	addi	a0,a0,0
 80c:	0318                	addi	a4,sp,384
 80e:	0901                	addi	s2,s2,0
 810:	0008                	.insn	2, 0x0008
 812:	0501                	addi	a0,a0,0
 814:	0324                	addi	s1,sp,392
 816:	0900                	addi	s0,sp,144
 818:	0004                	.insn	2, 0x0004
 81a:	0501                	addi	a0,a0,0
 81c:	030d                	addi	t1,t1,3
 81e:	0900                	addi	s0,sp,144
 820:	0014                	.insn	2, 0x0014
 822:	0501                	addi	a0,a0,0
 824:	0318                	addi	a4,sp,384
 826:	0901                	addi	s2,s2,0
 828:	0008                	.insn	2, 0x0008
 82a:	0501                	addi	a0,a0,0
 82c:	030e                	slli	t1,t1,0x3
 82e:	0900                	addi	s0,sp,144
 830:	0004                	.insn	2, 0x0004
 832:	0501                	addi	a0,a0,0
 834:	0318                	addi	a4,sp,384
 836:	0901                	addi	s2,s2,0
 838:	0008                	.insn	2, 0x0008
 83a:	0501                	addi	a0,a0,0
 83c:	030e                	slli	t1,t1,0x3
 83e:	0900                	addi	s0,sp,144
 840:	0004                	.insn	2, 0x0004
 842:	0301                	addi	t1,t1,0
 844:	0902                	c.slli64	s2
 846:	0008                	.insn	2, 0x0008
 848:	0501                	addi	a0,a0,0
 84a:	0308                	addi	a0,sp,384
 84c:	0902                	c.slli64	s2
 84e:	0014                	.insn	2, 0x0014
 850:	0501                	addi	a0,a0,0
 852:	030c                	addi	a1,sp,384
 854:	0901                	addi	s2,s2,0
 856:	000c                	.insn	2, 0x000c
 858:	0501                	addi	a0,a0,0
 85a:	0314                	addi	a3,sp,384
 85c:	0901                	addi	s2,s2,0
 85e:	0008                	.insn	2, 0x0008
 860:	0501                	addi	a0,a0,0
 862:	030c                	addi	a1,sp,384
 864:	0902                	c.slli64	s2
 866:	0008                	.insn	2, 0x0008
 868:	0501                	addi	a0,a0,0
 86a:	0402001b          	.insn	4, 0x0402001b
 86e:	0301                	addi	t1,t1,0
 870:	0900                	addi	s0,sp,144
 872:	000c                	.insn	2, 0x000c
 874:	0501                	addi	a0,a0,0
 876:	0314                	addi	a3,sp,384
 878:	0901                	addi	s2,s2,0
 87a:	0008                	.insn	2, 0x0008
 87c:	0501                	addi	a0,a0,0
 87e:	032e                	slli	t1,t1,0xb
 880:	0901                	addi	s2,s2,0
 882:	000c                	.insn	2, 0x000c
 884:	0501                	addi	a0,a0,0
 886:	0310                	addi	a2,sp,384
 888:	0900                	addi	s0,sp,144
 88a:	0010                	.insn	2, 0x0010
 88c:	0501                	addi	a0,a0,0
 88e:	0308                	addi	a0,sp,384
 890:	0902                	c.slli64	s2
 892:	0004                	.insn	2, 0x0004
 894:	0501                	addi	a0,a0,0
 896:	0010                	.insn	2, 0x0010
 898:	0402                	c.slli64	s0
 89a:	0301                	addi	t1,t1,0
 89c:	0900                	addi	s0,sp,144
 89e:	0008                	.insn	2, 0x0008
 8a0:	0501                	addi	a0,a0,0
 8a2:	030c                	addi	a1,sp,384
 8a4:	0901                	addi	s2,s2,0
 8a6:	0008                	.insn	2, 0x0008
 8a8:	0501                	addi	a0,a0,0
 8aa:	0014                	.insn	2, 0x0014
 8ac:	0402                	c.slli64	s0
 8ae:	0301                	addi	t1,t1,0
 8b0:	0900                	addi	s0,sp,144
 8b2:	0008                	.insn	2, 0x0008
 8b4:	0301                	addi	t1,t1,0
 8b6:	0901                	addi	s2,s2,0
 8b8:	0008                	.insn	2, 0x0008
 8ba:	0501                	addi	a0,a0,0
 8bc:	0336                	slli	t1,t1,0xd
 8be:	0901                	addi	s2,s2,0
 8c0:	000c                	.insn	2, 0x000c
 8c2:	0501                	addi	a0,a0,0
 8c4:	0310                	addi	a2,sp,384
 8c6:	0900                	addi	s0,sp,144
 8c8:	002c                	addi	a1,sp,8
 8ca:	0501                	addi	a0,a0,0
 8cc:	0308                	addi	a0,sp,384
 8ce:	0902                	c.slli64	s2
 8d0:	0004                	.insn	2, 0x0004
 8d2:	0501                	addi	a0,a0,0
 8d4:	030c                	addi	a1,sp,384
 8d6:	0901                	addi	s2,s2,0
 8d8:	000c                	.insn	2, 0x000c
 8da:	0501                	addi	a0,a0,0
 8dc:	0314                	addi	a3,sp,384
 8de:	0901                	addi	s2,s2,0
 8e0:	0008                	.insn	2, 0x0008
 8e2:	0501                	addi	a0,a0,0
 8e4:	0336                	slli	t1,t1,0xd
 8e6:	0901                	addi	s2,s2,0
 8e8:	0008                	.insn	2, 0x0008
 8ea:	0501                	addi	a0,a0,0
 8ec:	0310                	addi	a2,sp,384
 8ee:	0900                	addi	s0,sp,144
 8f0:	002c                	addi	a1,sp,8
 8f2:	0501                	addi	a0,a0,0
 8f4:	0308                	addi	a0,sp,384
 8f6:	0902                	c.slli64	s2
 8f8:	0004                	.insn	2, 0x0004
 8fa:	0501                	addi	a0,a0,0
 8fc:	0010                	.insn	2, 0x0010
 8fe:	0402                	c.slli64	s0
 900:	0301                	addi	t1,t1,0
 902:	0900                	addi	s0,sp,144
 904:	0008                	.insn	2, 0x0008
 906:	0501                	addi	a0,a0,0
 908:	032e                	slli	t1,t1,0xb
 90a:	0901                	addi	s2,s2,0
 90c:	0008                	.insn	2, 0x0008
 90e:	0501                	addi	a0,a0,0
 910:	0308                	addi	a0,sp,384
 912:	0902                	c.slli64	s2
 914:	0014                	.insn	2, 0x0014
 916:	0501                	addi	a0,a0,0
 918:	0310                	addi	a2,sp,384
 91a:	0901                	addi	s2,s2,0
 91c:	0008                	.insn	2, 0x0008
 91e:	0501                	addi	a0,a0,0
 920:	0308                	addi	a0,sp,384
 922:	0901                	addi	s2,s2,0
 924:	000c                	.insn	2, 0x000c
 926:	0501                	addi	a0,a0,0
 928:	0310                	addi	a2,sp,384
 92a:	0901                	addi	s2,s2,0
 92c:	0008                	.insn	2, 0x0008
 92e:	0501                	addi	a0,a0,0
 930:	0319                	addi	t1,t1,6
 932:	0902                	c.slli64	s2
 934:	000c                	.insn	2, 0x000c
 936:	0501                	addi	a0,a0,0
 938:	030e                	slli	t1,t1,0x3
 93a:	0900                	addi	s0,sp,144
 93c:	0004                	.insn	2, 0x0004
 93e:	0301                	addi	t1,t1,0
 940:	0901                	addi	s2,s2,0
 942:	0008                	.insn	2, 0x0008
 944:	0301                	addi	t1,t1,0
 946:	0901                	addi	s2,s2,0
 948:	0008                	.insn	2, 0x0008
 94a:	0301                	addi	t1,t1,0
 94c:	0902                	c.slli64	s2
 94e:	0004                	.insn	2, 0x0004
 950:	0501                	addi	a0,a0,0
 952:	0305                	addi	t1,t1,1
 954:	0900                	addi	s0,sp,144
 956:	0004                	.insn	2, 0x0004
 958:	0501                	addi	a0,a0,0
 95a:	0312                	slli	t1,t1,0x4
 95c:	0901                	addi	s2,s2,0
 95e:	0004                	.insn	2, 0x0004
 960:	0501                	addi	a0,a0,0
 962:	0329                	addi	t1,t1,10
 964:	0901                	addi	s2,s2,0
 966:	000c                	.insn	2, 0x000c
 968:	0501                	addi	a0,a0,0
 96a:	0322                	slli	t1,t1,0x8
 96c:	0900                	addi	s0,sp,144
 96e:	000c                	.insn	2, 0x000c
 970:	0501                	addi	a0,a0,0
 972:	030c                	addi	a1,sp,384
 974:	0900                	addi	s0,sp,144
 976:	0008                	.insn	2, 0x0008
 978:	0501                	addi	a0,a0,0
 97a:	0329                	addi	t1,t1,10
 97c:	0901                	addi	s2,s2,0
 97e:	0008                	.insn	2, 0x0008
 980:	0501                	addi	a0,a0,0
 982:	0322                	slli	t1,t1,0x8
 984:	0900                	addi	s0,sp,144
 986:	000c                	.insn	2, 0x000c
 988:	0501                	addi	a0,a0,0
 98a:	0316                	slli	t1,t1,0x5
 98c:	0900                	addi	s0,sp,144
 98e:	0008                	.insn	2, 0x0008
 990:	0301                	addi	t1,t1,0
 992:	0901                	addi	s2,s2,0
 994:	000c                	.insn	2, 0x000c
 996:	0501                	addi	a0,a0,0
 998:	001e                	c.slli	zero,0x7
 99a:	0402                	c.slli64	s0
 99c:	0302                	c.slli64	t1
 99e:	097c                	addi	a5,sp,156
 9a0:	000c                	.insn	2, 0x000c
 9a2:	0501                	addi	a0,a0,0
 9a4:	04020017          	auipc	zero,0x4020
 9a8:	0301                	addi	t1,t1,0
 9aa:	0900                	addi	s0,sp,144
 9ac:	000c                	.insn	2, 0x000c
 9ae:	0501                	addi	a0,a0,0
 9b0:	031a                	slli	t1,t1,0x6
 9b2:	0908                	addi	a0,sp,144
 9b4:	000c                	.insn	2, 0x000c
 9b6:	0501                	addi	a0,a0,0
 9b8:	032a                	slli	t1,t1,0xa
 9ba:	0900                	addi	s0,sp,144
 9bc:	0004                	.insn	2, 0x0004
 9be:	0501                	addi	a0,a0,0
 9c0:	030d                	addi	t1,t1,3
 9c2:	0900                	addi	s0,sp,144
 9c4:	0008                	.insn	2, 0x0008
 9c6:	0501                	addi	a0,a0,0
 9c8:	0308                	addi	a0,sp,384
 9ca:	0902                	c.slli64	s2
 9cc:	0008                	.insn	2, 0x0008
 9ce:	0501                	addi	a0,a0,0
 9d0:	09010313          	addi	t1,sp,144
 9d4:	0008                	.insn	2, 0x0008
 9d6:	0501                	addi	a0,a0,0
 9d8:	0308                	addi	a0,sp,384
 9da:	0901                	addi	s2,s2,0
 9dc:	000c                	.insn	2, 0x000c
 9de:	0501                	addi	a0,a0,0
 9e0:	09010313          	addi	t1,sp,144
 9e4:	0008                	.insn	2, 0x0008
 9e6:	0501                	addi	a0,a0,0
 9e8:	0312                	slli	t1,t1,0x4
 9ea:	0902                	c.slli64	s2
 9ec:	000c                	.insn	2, 0x000c
 9ee:	0501                	addi	a0,a0,0
 9f0:	0308                	addi	a0,sp,384
 9f2:	0900                	addi	s0,sp,144
 9f4:	000c                	.insn	2, 0x000c
 9f6:	0501                	addi	a0,a0,0
 9f8:	0312                	slli	t1,t1,0x4
 9fa:	0901                	addi	s2,s2,0
 9fc:	0004                	.insn	2, 0x0004
 9fe:	0501                	addi	a0,a0,0
 a00:	0316                	slli	t1,t1,0x5
 a02:	00100903          	lb	s2,1(zero) # 1 <_start-0xffff>
 a06:	0501                	addi	a0,a0,0
 a08:	09010317          	auipc	t1,0x9010
 a0c:	000c                	.insn	2, 0x000c
 a0e:	0501                	addi	a0,a0,0
 a10:	097e031b          	.insn	4, 0x097e031b
 a14:	000c                	.insn	2, 0x000c
 a16:	0501                	addi	a0,a0,0
 a18:	0325                	addi	t1,t1,9 # 9010a11 <__stack_top+0x8ffe971>
 a1a:	0900                	addi	s0,sp,144
 a1c:	000c                	.insn	2, 0x000c
 a1e:	0001                	nop
 a20:	0402                	c.slli64	s0
 a22:	0601                	addi	a2,a2,0
 a24:	04090003          	lb	zero,64(s2)
 a28:	0100                	addi	s0,sp,128
 a2a:	1205                	addi	tp,tp,-31 # ffffffe1 <__stack_top+0xfffedf41>
 a2c:	0306                	slli	t1,t1,0x1
 a2e:	0904                	addi	s1,sp,144
 a30:	000c                	.insn	2, 0x000c
 a32:	0501                	addi	a0,a0,0
 a34:	030e                	slli	t1,t1,0x3
 a36:	0902                	c.slli64	s2
 a38:	000c                	.insn	2, 0x000c
 a3a:	0501                	addi	a0,a0,0
 a3c:	0308                	addi	a0,sp,384
 a3e:	0902                	c.slli64	s2
 a40:	000c                	.insn	2, 0x000c
 a42:	0501                	addi	a0,a0,0
 a44:	0336                	slli	t1,t1,0xd
 a46:	0901                	addi	s2,s2,0
 a48:	000c                	.insn	2, 0x000c
 a4a:	0501                	addi	a0,a0,0
 a4c:	0308                	addi	a0,sp,384
 a4e:	0901                	addi	s2,s2,0
 a50:	0030                	addi	a2,sp,8
 a52:	0501                	addi	a0,a0,0
 a54:	032e                	slli	t1,t1,0xb
 a56:	0901                	addi	s2,s2,0
 a58:	0008                	.insn	2, 0x0008
 a5a:	0501                	addi	a0,a0,0
 a5c:	0332                	slli	t1,t1,0xc
 a5e:	0901                	addi	s2,s2,0
 a60:	0014                	.insn	2, 0x0014
 a62:	0501                	addi	a0,a0,0
 a64:	0349                	addi	t1,t1,18
 a66:	0900                	addi	s0,sp,144
 a68:	0010                	.insn	2, 0x0010
 a6a:	0501                	addi	a0,a0,0
 a6c:	0332                	slli	t1,t1,0xc
 a6e:	0900                	addi	s0,sp,144
 a70:	002c                	addi	a1,sp,8
 a72:	0501                	addi	a0,a0,0
 a74:	0328                	addi	a0,sp,392
 a76:	0901                	addi	s2,s2,0
 a78:	0014                	.insn	2, 0x0014
 a7a:	0501                	addi	a0,a0,0
 a7c:	097f034f          	.insn	4, 0x097f034f
 a80:	0018                	.insn	2, 0x0018
 a82:	0501                	addi	a0,a0,0
 a84:	0301                	addi	t1,t1,0
 a86:	0902                	c.slli64	s2
 a88:	000c                	.insn	2, 0x000c
 a8a:	0301                	addi	t1,t1,0
 a8c:	00140903          	lb	s2,1(s0)
 a90:	0501                	addi	a0,a0,0
 a92:	09010317          	auipc	t1,0x9010
 a96:	0014                	.insn	2, 0x0014
 a98:	0501                	addi	a0,a0,0
 a9a:	030e                	slli	t1,t1,0x3
 a9c:	0900                	addi	s0,sp,144
 a9e:	0004                	.insn	2, 0x0004
 aa0:	0501                	addi	a0,a0,0
 aa2:	0316                	slli	t1,t1,0x5
 aa4:	0901                	addi	s2,s2,0
 aa6:	0008                	.insn	2, 0x0008
 aa8:	0501                	addi	a0,a0,0
 aaa:	0322                	slli	t1,t1,0x8
 aac:	0900                	addi	s0,sp,144
 aae:	0004                	.insn	2, 0x0004
 ab0:	0501                	addi	a0,a0,0
 ab2:	030d                	addi	t1,t1,3 # 9010a95 <__stack_top+0x8ffe9f5>
 ab4:	0900                	addi	s0,sp,144
 ab6:	0014                	.insn	2, 0x0014
 ab8:	0501                	addi	a0,a0,0
 aba:	0316                	slli	t1,t1,0x5
 abc:	0901                	addi	s2,s2,0
 abe:	0008                	.insn	2, 0x0008
 ac0:	0501                	addi	a0,a0,0
 ac2:	030e                	slli	t1,t1,0x3
 ac4:	0900                	addi	s0,sp,144
 ac6:	0004                	.insn	2, 0x0004
 ac8:	0501                	addi	a0,a0,0
 aca:	0308                	addi	a0,sp,384
 acc:	00080903          	lb	s2,0(a6)
 ad0:	0501                	addi	a0,a0,0
 ad2:	030c                	addi	a1,sp,384
 ad4:	0901                	addi	s2,s2,0
 ad6:	000c                	.insn	2, 0x000c
 ad8:	0501                	addi	a0,a0,0
 ada:	0314                	addi	a3,sp,384
 adc:	0901                	addi	s2,s2,0
 ade:	0008                	.insn	2, 0x0008
 ae0:	0501                	addi	a0,a0,0
 ae2:	030c                	addi	a1,sp,384
 ae4:	0901                	addi	s2,s2,0
 ae6:	0008                	.insn	2, 0x0008
 ae8:	0501                	addi	a0,a0,0
 aea:	0314                	addi	a3,sp,384
 aec:	0901                	addi	s2,s2,0
 aee:	0008                	.insn	2, 0x0008
 af0:	0501                	addi	a0,a0,0
 af2:	0310                	addi	a2,sp,384
 af4:	0901                	addi	s2,s2,0
 af6:	000c                	.insn	2, 0x000c
 af8:	0501                	addi	a0,a0,0
 afa:	0308                	addi	a0,sp,384
 afc:	0904                	addi	s1,sp,144
 afe:	0008                	.insn	2, 0x0008
 b00:	0501                	addi	a0,a0,0
 b02:	000e                	c.slli	zero,0x3
 b04:	0402                	c.slli64	s0
 b06:	0301                	addi	t1,t1,0
 b08:	0900                	addi	s0,sp,144
 b0a:	0008                	.insn	2, 0x0008
 b0c:	0501                	addi	a0,a0,0
 b0e:	0310                	addi	a2,sp,384
 b10:	0901                	addi	s2,s2,0
 b12:	0008                	.insn	2, 0x0008
 b14:	0501                	addi	a0,a0,0
 b16:	0308                	addi	a0,sp,384
 b18:	00080903          	lb	s2,0(a6)
 b1c:	0501                	addi	a0,a0,0
 b1e:	0310                	addi	a2,sp,384
 b20:	0901                	addi	s2,s2,0
 b22:	0008                	.insn	2, 0x0008
 b24:	0501                	addi	a0,a0,0
 b26:	0308                	addi	a0,sp,384
 b28:	000c0903          	lb	s2,0(s8)
 b2c:	0501                	addi	a0,a0,0
 b2e:	0310                	addi	a2,sp,384
 b30:	0901                	addi	s2,s2,0
 b32:	0008                	.insn	2, 0x0008
 b34:	0501                	addi	a0,a0,0
 b36:	0315                	addi	t1,t1,5
 b38:	0904                	addi	s1,sp,144
 b3a:	0008                	.insn	2, 0x0008
 b3c:	0501                	addi	a0,a0,0
 b3e:	030d                	addi	t1,t1,3
 b40:	0900                	addi	s0,sp,144
 b42:	0004                	.insn	2, 0x0004
 b44:	0501                	addi	a0,a0,0
 b46:	09040317          	auipc	t1,0x9040
 b4a:	0008                	.insn	2, 0x0008
 b4c:	0501                	addi	a0,a0,0
 b4e:	030e                	slli	t1,t1,0x3
 b50:	0900                	addi	s0,sp,144
 b52:	0010                	.insn	2, 0x0010
 b54:	0501                	addi	a0,a0,0
 b56:	0903030b          	.insn	4, 0x0903030b
 b5a:	0004                	.insn	2, 0x0004
 b5c:	0501                	addi	a0,a0,0
 b5e:	0308                	addi	a0,sp,384
 b60:	0900                	addi	s0,sp,144
 b62:	0008                	.insn	2, 0x0008
 b64:	0501                	addi	a0,a0,0
 b66:	0901030b          	.insn	4, 0x0901030b
 b6a:	0004                	.insn	2, 0x0004
 b6c:	0501                	addi	a0,a0,0
 b6e:	09010317          	auipc	t1,0x9010
 b72:	000c                	.insn	2, 0x000c
 b74:	0501                	addi	a0,a0,0
 b76:	031c                	addi	a5,sp,384
 b78:	0900                	addi	s0,sp,144
 b7a:	0008                	.insn	2, 0x0008
 b7c:	0501                	addi	a0,a0,0
 b7e:	0311                	addi	t1,t1,4 # 9010b72 <__stack_top+0x8ffead2>
 b80:	0900                	addi	s0,sp,144
 b82:	0004                	.insn	2, 0x0004
 b84:	0501                	addi	a0,a0,0
 b86:	0316                	slli	t1,t1,0x5
 b88:	0902                	c.slli64	s2
 b8a:	000c                	.insn	2, 0x000c
 b8c:	0501                	addi	a0,a0,0
 b8e:	0311                	addi	t1,t1,4
 b90:	0900                	addi	s0,sp,144
 b92:	0008                	.insn	2, 0x0008
 b94:	0501                	addi	a0,a0,0
 b96:	030e                	slli	t1,t1,0x3
 b98:	00080907          	.insn	4, 0x00080907
 b9c:	0301                	addi	t1,t1,0
 b9e:	0901                	addi	s2,s2,0
 ba0:	0008                	.insn	2, 0x0008
 ba2:	0301                	addi	t1,t1,0
 ba4:	0901                	addi	s2,s2,0
 ba6:	0008                	.insn	2, 0x0008
 ba8:	0501                	addi	a0,a0,0
 baa:	0903030b          	.insn	4, 0x0903030b
 bae:	0008                	.insn	2, 0x0008
 bb0:	0501                	addi	a0,a0,0
 bb2:	031d                	addi	t1,t1,7
 bb4:	0901                	addi	s2,s2,0
 bb6:	0004                	.insn	2, 0x0004
 bb8:	0501                	addi	a0,a0,0
 bba:	0312                	slli	t1,t1,0x4
 bbc:	0900                	addi	s0,sp,144
 bbe:	000c                	.insn	2, 0x000c
 bc0:	0501                	addi	a0,a0,0
 bc2:	031c                	addi	a5,sp,384
 bc4:	0901                	addi	s2,s2,0
 bc6:	0008                	.insn	2, 0x0008
 bc8:	0501                	addi	a0,a0,0
 bca:	0312                	slli	t1,t1,0x4
 bcc:	0900                	addi	s0,sp,144
 bce:	0010                	.insn	2, 0x0010
 bd0:	0501                	addi	a0,a0,0
 bd2:	030c                	addi	a1,sp,384
 bd4:	0902                	c.slli64	s2
 bd6:	0008                	.insn	2, 0x0008
 bd8:	0501                	addi	a0,a0,0
 bda:	0314                	addi	a3,sp,384
 bdc:	0901                	addi	s2,s2,0
 bde:	000c                	.insn	2, 0x000c
 be0:	0501                	addi	a0,a0,0
 be2:	0311                	addi	t1,t1,4
 be4:	0901                	addi	s2,s2,0
 be6:	0008                	.insn	2, 0x0008
 be8:	0501                	addi	a0,a0,0
 bea:	0312                	slli	t1,t1,0x4
 bec:	0902                	c.slli64	s2
 bee:	0010                	.insn	2, 0x0010
 bf0:	0501                	addi	a0,a0,0
 bf2:	0310                	addi	a2,sp,384
 bf4:	0978                	addi	a4,sp,156
 bf6:	000c                	.insn	2, 0x000c
 bf8:	0501                	addi	a0,a0,0
 bfa:	0308                	addi	a0,sp,384
 bfc:	0911                	addi	s2,s2,4
 bfe:	000c                	.insn	2, 0x000c
 c00:	0501                	addi	a0,a0,0
 c02:	0310                	addi	a2,sp,384
 c04:	0901                	addi	s2,s2,0
 c06:	000c                	.insn	2, 0x000c
 c08:	0301                	addi	t1,t1,0
 c0a:	0901                	addi	s2,s2,0
 c0c:	000c                	.insn	2, 0x000c
 c0e:	0501                	addi	a0,a0,0
 c10:	0901030f          	.insn	4, 0x0901030f
 c14:	0010                	.insn	2, 0x0010
 c16:	0301                	addi	t1,t1,0
 c18:	0901                	addi	s2,s2,0
 c1a:	000c                	.insn	2, 0x000c
 c1c:	0501                	addi	a0,a0,0
 c1e:	0314                	addi	a3,sp,384
 c20:	0901                	addi	s2,s2,0
 c22:	0004                	.insn	2, 0x0004
 c24:	0301                	addi	t1,t1,0
 c26:	0901                	addi	s2,s2,0
 c28:	000c                	.insn	2, 0x000c
 c2a:	0501                	addi	a0,a0,0
 c2c:	031d                	addi	t1,t1,7
 c2e:	097e                	slli	s2,s2,0x1f
 c30:	000c                	.insn	2, 0x000c
 c32:	0001                	nop
 c34:	0402                	c.slli64	s0
 c36:	0601                	addi	a2,a2,0
 c38:	0c090003          	lb	zero,192(s2)
 c3c:	0100                	addi	s0,sp,128
 c3e:	2005                	jal	c5e <_start-0xf3a2>
 c40:	0306                	slli	t1,t1,0x1
 c42:	000c0907          	.insn	4, 0x000c0907
 c46:	0501                	addi	a0,a0,0
 c48:	030e                	slli	t1,t1,0x3
 c4a:	0900                	addi	s0,sp,144
 c4c:	000c                	.insn	2, 0x000c
 c4e:	0501                	addi	a0,a0,0
 c50:	0308                	addi	a0,sp,384
 c52:	00080903          	lb	s2,0(a6)
 c56:	0501                	addi	a0,a0,0
 c58:	0310                	addi	a2,sp,384
 c5a:	0901                	addi	s2,s2,0
 c5c:	000c                	.insn	2, 0x000c
 c5e:	0501                	addi	a0,a0,0
 c60:	0308                	addi	a0,sp,384
 c62:	0901                	addi	s2,s2,0
 c64:	000c                	.insn	2, 0x000c
 c66:	0501                	addi	a0,a0,0
 c68:	0310                	addi	a2,sp,384
 c6a:	0901                	addi	s2,s2,0
 c6c:	0008                	.insn	2, 0x0008
 c6e:	0501                	addi	a0,a0,0
 c70:	0330                	addi	a2,sp,392
 c72:	0902                	c.slli64	s2
 c74:	0008                	.insn	2, 0x0008
 c76:	0501                	addi	a0,a0,0
 c78:	0336                	slli	t1,t1,0xd
 c7a:	0900                	addi	s0,sp,144
 c7c:	002c                	addi	a1,sp,8
 c7e:	0501                	addi	a0,a0,0
 c80:	0301                	addi	t1,t1,0
 c82:	0901                	addi	s2,s2,0
 c84:	0018                	.insn	2, 0x0018
 c86:	0301                	addi	t1,t1,0
 c88:	00140903          	lb	s2,1(s0)
 c8c:	0501                	addi	a0,a0,0
 c8e:	030c                	addi	a1,sp,384
 c90:	0901                	addi	s2,s2,0
 c92:	0010                	.insn	2, 0x0010
 c94:	0501                	addi	a0,a0,0
 c96:	0301                	addi	t1,t1,0
 c98:	0901                	addi	s2,s2,0
 c9a:	0004                	.insn	2, 0x0004
 c9c:	0901                	addi	s2,s2,0
 c9e:	0014                	.insn	2, 0x0014
 ca0:	0100                	addi	s0,sp,128
 ca2:	Address 0xca2 is out of bounds.


Disassembly of section .debug_info:

00000000 <.debug_info>:
   0:	0031                	c.nop	12
   2:	0000                	unimp
   4:	0002                	c.slli64	zero
   6:	0000                	unimp
   8:	0000                	unimp
   a:	0104                	addi	s1,sp,128
   c:	0000                	unimp
   e:	0000                	unimp
  10:	0000                	unimp
  12:	0001                	nop
  14:	003c                	addi	a5,sp,8
  16:	0001                	nop
  18:	0000                	unimp
  1a:	0000                	unimp
  1c:	0008                	.insn	2, 0x0008
  1e:	0000                	unimp
  20:	0058                	addi	a4,sp,4
  22:	0000                	unimp
  24:	8001                	c.srli64	s0
  26:	6602                	.insn	2, 0x6602
  28:	0000                	unimp
  2a:	0100                	addi	s0,sp,128
  2c:	0000                	unimp
  2e:	0001                	nop
  30:	0040                	addi	s0,sp,4
  32:	0001                	nop
  34:	7d00                	.insn	2, 0x7d00
  36:	0005                	c.nop	1
  38:	0500                	addi	s0,sp,640
  3a:	0100                	addi	s0,sp,128
  3c:	2104                	.insn	2, 0x2104
  3e:	0000                	unimp
  40:	0a00                	addi	s0,sp,272
  42:	0205                	addi	tp,tp,1 # 1 <_start-0xffff>
  44:	0000                	unimp
  46:	501d                	c.li	zero,-25
  48:	0000                	unimp
  4a:	0000                	unimp
  4c:	0000                	unimp
  4e:	3c00                	.insn	2, 0x3c00
  50:	0100                	addi	s0,sp,128
  52:	4400                	lw	s0,8(s0)
  54:	0010                	.insn	2, 0x0010
  56:	7500                	.insn	2, 0x7500
  58:	0000                	unimp
  5a:	0200                	addi	s0,sp,256
  5c:	0601                	addi	a2,a2,0
  5e:	000001b7          	lui	gp,0x0
  62:	0102                	c.slli64	sp
  64:	b508                	.insn	2, 0xb508
  66:	0001                	nop
  68:	0400                	addi	s0,sp,512
  6a:	0102                	c.slli64	sp
  6c:	0000                	unimp
  6e:	3702                	.insn	2, 0x3702
  70:	4018                	lw	a4,0(s0)
  72:	0000                	unimp
  74:	0200                	addi	s0,sp,256
  76:	0502                	c.slli64	a0
  78:	000001cf          	.insn	4, 0x01cf
  7c:	eb04                	.insn	2, 0xeb04
  7e:	0001                	nop
  80:	0200                	addi	s0,sp,256
  82:	1939                	addi	s2,s2,-18
  84:	00000053          	.insn	4, 0x0053
  88:	0202                	c.slli64	tp
  8a:	00013307          	.insn	4, 0x00013307
  8e:	0400                	addi	s0,sp,512
  90:	01f6                	slli	gp,gp,0x1d
  92:	0000                	unimp
  94:	4d02                	lw	s10,0(sp)
  96:	6618                	.insn	2, 0x6618
  98:	0000                	unimp
  9a:	0200                	addi	s0,sp,256
  9c:	0504                	addi	s1,sp,640
  9e:	00c2                	slli	ra,ra,0x10
  a0:	0000                	unimp
  a2:	f704                	.insn	2, 0xf704
  a4:	0000                	unimp
  a6:	0200                	addi	s0,sp,256
  a8:	0079194f          	.insn	4, 0x0079194f
  ac:	0000                	unimp
  ae:	0402                	c.slli64	s0
  b0:	0000ab07          	.insn	4, 0xab07
  b4:	0200                	addi	s0,sp,256
  b6:	0508                	addi	a0,sp,640
  b8:	00bd                	addi	ra,ra,15
  ba:	0000                	unimp
  bc:	0802                	c.slli64	a6
  be:	0000a607          	.insn	4, 0xa607
  c2:	0b00                	addi	s0,sp,400
  c4:	0504                	addi	s1,sp,640
  c6:	6e69                	lui	t3,0x1a
  c8:	0074                	addi	a3,sp,12
  ca:	0402                	c.slli64	s0
  cc:	0000b007          	.insn	4, 0xb007
  d0:	0400                	addi	s0,sp,512
  d2:	0104                	addi	s1,sp,128
  d4:	0000                	unimp
  d6:	34132003          	lw	zero,833(t1)
  da:	0000                	unimp
  dc:	0400                	addi	s0,sp,512
  de:	01ed                	addi	gp,gp,27 # 1b <_start-0xffe5>
  e0:	0000                	unimp
  e2:	47142403          	lw	s0,1137(s0)
  e6:	0000                	unimp
  e8:	0400                	addi	s0,sp,512
  ea:	01f8                	addi	a4,sp,204
  ec:	0000                	unimp
  ee:	5a132c03          	lw	s8,1441(t1)
  f2:	0000                	unimp
  f4:	0400                	addi	s0,sp,512
  f6:	00f9                	addi	ra,ra,30
  f8:	0000                	unimp
  fa:	6d143003          	.insn	4, 0x6d143003
  fe:	0000                	unimp
 100:	0200                	addi	s0,sp,256
 102:	0410                	addi	a2,sp,512
 104:	018a                	slli	gp,gp,0x2
 106:	0000                	unimp
 108:	0102                	c.slli64	sp
 10a:	be08                	.insn	2, 0xbe08
 10c:	0001                	nop
 10e:	0c00                	addi	s0,sp,528
 110:	0102                	c.slli64	sp
 112:	0905                	addi	s2,s2,1
 114:	00f1                	addi	ra,ra,28
 116:	0000                	unimp
 118:	2e0d                	jal	44a <_start-0xfbb6>
 11a:	0001                	nop
 11c:	0100                	addi	s0,sp,128
 11e:	0e06                	slli	t3,t3,0x1
 120:	00a8                	addi	a0,sp,72
 122:	0000                	unimp
 124:	0000                	unimp
 126:	9604                	.insn	2, 0x9604
 128:	0000                	unimp
 12a:	0100                	addi	s0,sp,128
 12c:	00da0307          	.insn	4, 0x00da0307
 130:	0000                	unimp
 132:	4a0e                	lw	s4,192(sp)
 134:	0002                	c.slli64	zero
 136:	0100                	addi	s0,sp,128
 138:	0174                	addi	a3,sp,140
 13a:	8e05                	sub	a2,a2,s1
 13c:	0000                	unimp
 13e:	5800                	lw	s0,48(s0)
 140:	0110                	addi	a2,sp,128
 142:	2800                	.insn	2, 0x2800
 144:	0000                	unimp
 146:	0100                	addi	s0,sp,128
 148:	0f9c                	addi	a5,sp,976
 14a:	010c                	addi	a1,sp,128
 14c:	0000                	unimp
 14e:	1901                	addi	s2,s2,-32
 150:	0801                	addi	a6,a6,0
 152:	00f1                	addi	ra,ra,28
 154:	0000                	unimp
 156:	0db8                	addi	a4,sp,728
 158:	0001                	nop
 15a:	02a0                	addi	s0,sp,328
 15c:	0000                	unimp
 15e:	9c01                	.insn	2, 0x9c01
 160:	01f8                	addi	a4,sp,204
 162:	0000                	unimp
 164:	6110                	.insn	2, 0x6110
 166:	0100                	addi	s0,sp,128
 168:	0119                	addi	sp,sp,6
 16a:	f119                	bnez	a0,70 <_start-0xff90>
 16c:	0000                	unimp
 16e:	0300                	addi	s0,sp,384
 170:	bc91                	j	fffffbc4 <__stack_top+0xfffedb24>
 172:	057f 0185 0000 011b 	.insn	10, 0xa80e011b00000185057f
 17a:	a80e 
 17c:	0000                	unimp
 17e:	0200                	addi	s0,sp,256
 180:	5a91                	li	s5,-28
 182:	6506                	.insn	2, 0x6506
 184:	7078                	.insn	2, 0x7078
 186:	1c00                	addi	s0,sp,560
 188:	0d01                	addi	s10,s10,0
 18a:	009c                	addi	a5,sp,64
 18c:	0000                	unimp
 18e:	9102                	jalr	sp
 190:	0558                	addi	a4,sp,644
 192:	0091                	addi	ra,ra,4
 194:	0000                	unimp
 196:	011d                	addi	sp,sp,7
 198:	a80e                	.insn	2, 0xa80e
 19a:	0000                	unimp
 19c:	0200                	addi	s0,sp,256
 19e:	5691                	li	a3,-28
 1a0:	6506                	.insn	2, 0x6506
 1a2:	3600                	.insn	2, 0x3600
 1a4:	0d01                	addi	s10,s10,0
 1a6:	00b4                	addi	a3,sp,72
 1a8:	0000                	unimp
 1aa:	9102                	jalr	sp
 1ac:	0550                	addi	a2,sp,644
 1ae:	01ad                	addi	gp,gp,11
 1b0:	0000                	unimp
 1b2:	b40d0137          	lui	sp,0xb40d0
 1b6:	0000                	unimp
 1b8:	0200                	addi	s0,sp,256
 1ba:	6c91                	lui	s9,0x4
 1bc:	6d06                	.insn	2, 0x6d06
 1be:	3a00                	.insn	2, 0x3a00
 1c0:	0e01                	addi	t3,t3,0 # 1a000 <__stack_top+0x7f60>
 1c2:	00c0                	addi	s0,sp,68
 1c4:	0000                	unimp
 1c6:	9102                	jalr	sp
 1c8:	0668                	addi	a0,sp,780
 1ca:	6f6c                	.insn	2, 0x6f6c
 1cc:	01480077          	.insn	4, 0x01480077
 1d0:	c00e                	sw	gp,0(sp)
 1d2:	0000                	unimp
 1d4:	0200                	addi	s0,sp,256
 1d6:	6491                	lui	s1,0x4
 1d8:	0005                	c.nop	1
 1da:	0002                	c.slli64	zero
 1dc:	4900                	lw	s0,16(a0)
 1de:	0e01                	addi	t3,t3,0
 1e0:	00c0                	addi	s0,sp,68
 1e2:	0000                	unimp
 1e4:	9102                	jalr	sp
 1e6:	0560                	addi	s0,sp,652
 1e8:	0000024f          	.insn	4, 0x024f
 1ec:	014a                	slli	sp,sp,0x12
 1ee:	c00e                	sw	gp,0(sp)
 1f0:	0000                	unimp
 1f2:	0200                	addi	s0,sp,256
 1f4:	5c91                	li	s9,-28
 1f6:	9d05                	.insn	2, 0x9d05
 1f8:	0000                	unimp
 1fa:	6900                	.insn	2, 0x6900
 1fc:	0e01                	addi	t3,t3,0
 1fe:	00a8                	addi	a0,sp,72
 200:	0000                	unimp
 202:	9102                	jalr	sp
 204:	084e                	slli	a6,a6,0x13
 206:	0ef4                	addi	a3,sp,860
 208:	0001                	nop
 20a:	005c                	addi	a5,sp,4
 20c:	0000                	unimp
 20e:	6d06                	.insn	2, 0x6d06
 210:	6469                	lui	s0,0x1a
 212:	4e00                	lw	s0,24(a2)
 214:	1201                	addi	tp,tp,-32 # ffffffe0 <__stack_top+0xfffedf40>
 216:	00c0                	addi	s0,sp,68
 218:	0000                	unimp
 21a:	9102                	jalr	sp
 21c:	0648                	addi	a0,sp,772
 21e:	4f007173          	.insn	4, 0x4f007173
 222:	1201                	addi	tp,tp,-32 # ffffffe0 <__stack_top+0xfffedf40>
 224:	00c0                	addi	s0,sp,68
 226:	0000                	unimp
 228:	9102                	jalr	sp
 22a:	0044                	addi	s1,sp,4
 22c:	0700                	addi	s0,sp,896
 22e:	0116                	slli	sp,sp,0x5
 230:	0000                	unimp
 232:	08ce                	slli	a7,a7,0x13
 234:	00f1                	addi	ra,ra,28
 236:	0000                	unimp
 238:	09c4                	addi	s1,sp,212
 23a:	0001                	nop
 23c:	03f4                	addi	a3,sp,460
 23e:	0000                	unimp
 240:	9c01                	.insn	2, 0x9c01
 242:	02dd                	addi	t0,t0,23
 244:	0000                	unimp
 246:	ce006103          	.insn	4, 0xce006103
 24a:	f118                	.insn	2, 0xf118
 24c:	0000                	unimp
 24e:	0300                	addi	s0,sp,384
 250:	bc91                	j	fffffca4 <__stack_top+0xfffedc04>
 252:	037f 0062 22ce 00f1 	.insn	10, 0x00f122ce0062037f
 25a:	0000 
 25c:	7fb89103          	lh	sp,2043(a7)
 260:	6701                	.insn	2, 0x6701
 262:	0001                	nop
 264:	d000                	sw	s0,32(s0)
 266:	a80e                	.insn	2, 0xa80e
 268:	0000                	unimp
 26a:	0200                	addi	s0,sp,256
 26c:	5a91                	li	s5,-28
 26e:	6e01                	.insn	2, 0x6e01
 270:	0001                	nop
 272:	d100                	sw	s0,32(a0)
 274:	a80e                	.insn	2, 0xa80e
 276:	0000                	unimp
 278:	0200                	addi	s0,sp,256
 27a:	5891                	li	a7,-28
 27c:	cb01                	beqz	a4,28c <_start-0xfd74>
 27e:	0000                	unimp
 280:	d200                	sw	s0,32(a2)
 282:	9c0d                	.insn	2, 0x9c0d
 284:	0000                	unimp
 286:	0200                	addi	s0,sp,256
 288:	5691                	li	a3,-28
 28a:	d101                	beqz	a0,18a <_start-0xfe76>
 28c:	0000                	unimp
 28e:	d300                	sw	s0,32(a4)
 290:	9c0d                	.insn	2, 0x9c0d
 292:	0000                	unimp
 294:	0200                	addi	s0,sp,256
 296:	5491                	li	s1,-28
 298:	d701                	beqz	a4,1a0 <_start-0xfe60>
 29a:	0000                	unimp
 29c:	d400                	sw	s0,40(s0)
 29e:	a80e                	.insn	2, 0xa80e
 2a0:	0000                	unimp
 2a2:	0200                	addi	s0,sp,256
 2a4:	6e91                	lui	t4,0x4
 2a6:	de01                	beqz	a2,1be <_start-0xfe42>
 2a8:	0000                	unimp
 2aa:	d500                	sw	s0,40(a0)
 2ac:	a80e                	.insn	2, 0xa80e
 2ae:	0000                	unimp
 2b0:	0200                	addi	s0,sp,256
 2b2:	6c91                	lui	s9,0x4
 2b4:	7e01                	lui	t3,0xfffe0
 2b6:	0001                	nop
 2b8:	d700                	sw	s0,40(a4)
 2ba:	a80e                	.insn	2, 0xa80e
 2bc:	0000                	unimp
 2be:	0200                	addi	s0,sp,256
 2c0:	5291                	li	t0,-28
 2c2:	ee01                	bnez	a2,2da <_start-0xfd26>
 2c4:	0000                	unimp
 2c6:	f300                	.insn	2, 0xf300
 2c8:	c00e                	sw	gp,0(sp)
 2ca:	0000                	unimp
 2cc:	0200                	addi	s0,sp,256
 2ce:	6891                	lui	a7,0x4
 2d0:	9601                	srai	a2,a2,0x20
 2d2:	0001                	nop
 2d4:	f400                	.insn	2, 0xf400
 2d6:	c00e                	sw	gp,0(sp)
 2d8:	0000                	unimp
 2da:	0200                	addi	s0,sp,256
 2dc:	4c91                	li	s9,4
 2de:	8101                	c.srli64	a0
 2e0:	0000                	unimp
 2e2:	f500                	.insn	2, 0xf500
 2e4:	c00e                	sw	gp,0(sp)
 2e6:	0000                	unimp
 2e8:	0200                	addi	s0,sp,256
 2ea:	6491                	lui	s1,0x4
 2ec:	4601                	li	a2,0
 2ee:	0001                	nop
 2f0:	ff00                	.insn	2, 0xff00
 2f2:	b40d                	j	fffffd14 <__stack_top+0xfffedc74>
 2f4:	0000                	unimp
 2f6:	0200                	addi	s0,sp,256
 2f8:	5c91                	li	s9,-28
 2fa:	bc08                	.insn	2, 0xbc08
 2fc:	7400010b          	.insn	4, 0x7400010b
 300:	0000                	unimp
 302:	1100                	addi	s0,sp,160
 304:	0069                	c.nop	26
 306:	f701                	bnez	a4,20e <_start-0xfdf2>
 308:	8e0e                	mv	t3,gp
 30a:	0000                	unimp
 30c:	0200                	addi	s0,sp,256
 30e:	6091                	lui	ra,0x4
 310:	0000                	unimp
 312:	e509                	bnez	a0,31c <_start-0xfce4>
 314:	0000                	unimp
 316:	8900                	.insn	2, 0x8900
 318:	00f1                	addi	ra,ra,28 # 401c <_start-0xbfe4>
 31a:	0000                	unimp
 31c:	05f0                	addi	a2,sp,716
 31e:	0001                	nop
 320:	03d4                	addi	a3,sp,452
 322:	0000                	unimp
 324:	9c01                	.insn	2, 0x9c01
 326:	039a                	slli	t2,t2,0x6
 328:	0000                	unimp
 32a:	89006103          	.insn	4, 0x89006103
 32e:	f118                	.insn	2, 0xf118
 330:	0000                	unimp
 332:	0200                	addi	s0,sp,256
 334:	4c91                	li	s9,4
 336:	89006203          	.insn	4, 0x89006203
 33a:	f122                	.insn	2, 0xf122
 33c:	0000                	unimp
 33e:	0200                	addi	s0,sp,256
 340:	4891                	li	a7,4
 342:	6701                	.insn	2, 0x6701
 344:	0001                	nop
 346:	8b00                	.insn	2, 0x8b00
 348:	a80e                	.insn	2, 0xa80e
 34a:	0000                	unimp
 34c:	0200                	addi	s0,sp,256
 34e:	5a91                	li	s5,-28
 350:	6e01                	.insn	2, 0x6e01
 352:	0001                	nop
 354:	8c00                	.insn	2, 0x8c00
 356:	a80e                	.insn	2, 0xa80e
 358:	0000                	unimp
 35a:	0200                	addi	s0,sp,256
 35c:	5891                	li	a7,-28
 35e:	cb01                	beqz	a4,36e <_start-0xfc92>
 360:	0000                	unimp
 362:	8d00                	.insn	2, 0x8d00
 364:	9c0d                	.insn	2, 0x9c0d
 366:	0000                	unimp
 368:	0200                	addi	s0,sp,256
 36a:	6e91                	lui	t4,0x4
 36c:	d101                	beqz	a0,26c <_start-0xfd94>
 36e:	0000                	unimp
 370:	8e00                	.insn	2, 0x8e00
 372:	9c0d                	.insn	2, 0x9c0d
 374:	0000                	unimp
 376:	0200                	addi	s0,sp,256
 378:	6c91                	lui	s9,0x4
 37a:	d701                	beqz	a4,282 <_start-0xfd7e>
 37c:	0000                	unimp
 37e:	8f00                	.insn	2, 0x8f00
 380:	a80e                	.insn	2, 0xa80e
 382:	0000                	unimp
 384:	0200                	addi	s0,sp,256
 386:	6a91                	lui	s5,0x4
 388:	de01                	beqz	a2,2a0 <_start-0xfd60>
 38a:	0000                	unimp
 38c:	9000                	.insn	2, 0x9000
 38e:	a80e                	.insn	2, 0xa80e
 390:	0000                	unimp
 392:	0200                	addi	s0,sp,256
 394:	6891                	lui	a7,0x4
 396:	7e01                	lui	t3,0xfffe0
 398:	0001                	nop
 39a:	9200                	.insn	2, 0x9200
 39c:	a80e                	.insn	2, 0xa80e
 39e:	0000                	unimp
 3a0:	0200                	addi	s0,sp,256
 3a2:	5691                	li	a3,-28
 3a4:	5101                	li	sp,-32
 3a6:	0001                	nop
 3a8:	a500                	.insn	2, 0xa500
 3aa:	9c0d                	.insn	2, 0x9c0d
 3ac:	0000                	unimp
 3ae:	0200                	addi	s0,sp,256
 3b0:	6691                	lui	a3,0x4
 3b2:	8a01                	andi	a2,a2,0
 3b4:	0000                	unimp
 3b6:	b700                	.insn	2, 0xb700
 3b8:	c00e                	sw	gp,0(sp)
 3ba:	0000                	unimp
 3bc:	0200                	addi	s0,sp,256
 3be:	6091                	lui	ra,0x4
 3c0:	4601                	li	a2,0
 3c2:	0001                	nop
 3c4:	b900                	.insn	2, 0xb900
 3c6:	b40d                	j	fffffde8 <__stack_top+0xfffedd48>
 3c8:	0000                	unimp
 3ca:	0200                	addi	s0,sp,256
 3cc:	5c91                	li	s9,-28
 3ce:	0900                	addi	s0,sp,144
 3d0:	0078                	addi	a4,sp,12
 3d2:	0000                	unimp
 3d4:	0000f183          	.insn	4, 0xf183
 3d8:	9400                	.insn	2, 0x9400
 3da:	0105                	addi	sp,sp,1 # b40d0001 <__stack_top+0xb40bdf61>
 3dc:	5c00                	lw	s0,56(s0)
 3de:	0000                	unimp
 3e0:	0100                	addi	s0,sp,128
 3e2:	cb9c                	sw	a5,16(a5)
 3e4:	03000003          	lb	zero,48(zero) # 30 <_start-0xffd0>
 3e8:	0061                	c.nop	24
 3ea:	00f11883          	lh	a7,15(sp)
 3ee:	0000                	unimp
 3f0:	9102                	jalr	sp
 3f2:	036c                	addi	a1,sp,396
 3f4:	0062                	c.slli	zero,0x18
 3f6:	00f12283          	lw	t0,15(sp)
 3fa:	0000                	unimp
 3fc:	9102                	jalr	sp
 3fe:	0068                	addi	a0,sp,12
 400:	00017507          	.insn	4, 0x00017507
 404:	3400                	.insn	2, 0x3400
 406:	f108                	.insn	2, 0xf108
 408:	0000                	unimp
 40a:	1c00                	addi	s0,sp,560
 40c:	0102                	c.slli64	sp
 40e:	7800                	.insn	2, 0x7800
 410:	01000003          	lb	zero,16(zero) # 10 <_start-0xfff0>
 414:	899c                	.insn	2, 0x899c
 416:	0004                	.insn	2, 0x0004
 418:	0300                	addi	s0,sp,384
 41a:	0061                	c.nop	24
 41c:	1834                	addi	a3,sp,56
 41e:	00f1                	addi	ra,ra,28 # 401c <_start-0xbfe4>
 420:	0000                	unimp
 422:	9102                	jalr	sp
 424:	034c                	addi	a1,sp,388
 426:	0062                	c.slli	zero,0x18
 428:	2234                	.insn	2, 0x2234
 42a:	00f1                	addi	ra,ra,28
 42c:	0000                	unimp
 42e:	9102                	jalr	sp
 430:	0148                	addi	a0,sp,132
 432:	00000167          	jalr	sp,zero # 0 <_start-0x10000>
 436:	0e36                	slli	t3,t3,0xd
 438:	00a8                	addi	a0,sp,72
 43a:	0000                	unimp
 43c:	9102                	jalr	sp
 43e:	0162                	slli	sp,sp,0x18
 440:	016e                	slli	sp,sp,0x1b
 442:	0000                	unimp
 444:	00a80e37          	lui	t3,0xa80
 448:	0000                	unimp
 44a:	9102                	jalr	sp
 44c:	0160                	addi	s0,sp,140
 44e:	000000cb          	.insn	4, 0x00cb
 452:	0d38                	addi	a4,sp,664
 454:	009c                	addi	a5,sp,64
 456:	0000                	unimp
 458:	9102                	jalr	sp
 45a:	015e                	slli	sp,sp,0x17
 45c:	00d1                	addi	ra,ra,20
 45e:	0000                	unimp
 460:	0d39                	addi	s10,s10,14
 462:	009c                	addi	a5,sp,64
 464:	0000                	unimp
 466:	9102                	jalr	sp
 468:	015c                	addi	a5,sp,132
 46a:	000000d7          	.insn	4, 0x00d7
 46e:	0e3a                	slli	t3,t3,0xe
 470:	00a8                	addi	a0,sp,72
 472:	0000                	unimp
 474:	9102                	jalr	sp
 476:	016e                	slli	sp,sp,0x1b
 478:	00de                	slli	ra,ra,0x17
 47a:	0000                	unimp
 47c:	00a80e3b          	.insn	4, 0x00a80e3b
 480:	0000                	unimp
 482:	9102                	jalr	sp
 484:	016c                	addi	a1,sp,140
 486:	01a4                	addi	s1,sp,200
 488:	0000                	unimp
 48a:	009c0d4f          	.insn	4, 0x009c0d4f
 48e:	0000                	unimp
 490:	9102                	jalr	sp
 492:	015a                	slli	sp,sp,0x16
 494:	017e                	slli	sp,sp,0x1f
 496:	0000                	unimp
 498:	0e50                	addi	a2,sp,788
 49a:	00a8                	addi	a0,sp,72
 49c:	0000                	unimp
 49e:	9102                	jalr	sp
 4a0:	016a                	slli	sp,sp,0x1a
 4a2:	0146                	slli	sp,sp,0x11
 4a4:	0000                	unimp
 4a6:	0d51                	addi	s10,s10,20
 4a8:	009c                	addi	a5,sp,64
 4aa:	0000                	unimp
 4ac:	9102                	jalr	sp
 4ae:	0168                	addi	a0,sp,140
 4b0:	008a                	slli	ra,ra,0x2
 4b2:	0000                	unimp
 4b4:	0e52                	slli	t3,t3,0x14
 4b6:	00c0                	addi	s0,sp,68
 4b8:	0000                	unimp
 4ba:	9102                	jalr	sp
 4bc:	0064                	addi	s1,sp,12
 4be:	0001d907          	.insn	4, 0x0001d907
 4c2:	2c00                	.insn	2, 0x2c00
 4c4:	0004cd07          	.insn	4, 0x0004cd07
 4c8:	dc00                	sw	s0,56(s0)
 4ca:	0101                	addi	sp,sp,0
 4cc:	4000                	lw	s0,0(s0)
 4ce:	0000                	unimp
 4d0:	0100                	addi	s0,sp,128
 4d2:	cd9c                	sw	a5,24(a1)
 4d4:	0004                	.insn	2, 0x0004
 4d6:	0300                	addi	s0,sp,384
 4d8:	6176                	.insn	2, 0x6176
 4da:	006c                	addi	a1,sp,12
 4dc:	1a2c                	addi	a1,sp,312
 4de:	00f1                	addi	ra,ra,28
 4e0:	0000                	unimp
 4e2:	9102                	jalr	sp
 4e4:	015c                	addi	a5,sp,132
 4e6:	0000012b          	.insn	4, 0x012b
 4ea:	0e2e                	slli	t3,t3,0xb
 4ec:	00c0                	addi	s0,sp,68
 4ee:	0000                	unimp
 4f0:	9102                	jalr	sp
 4f2:	016c                	addi	a1,sp,140
 4f4:	0000024f          	.insn	4, 0x024f
 4f8:	04cd0b2f          	.insn	4, 0x04cd0b2f
 4fc:	0000                	unimp
 4fe:	9102                	jalr	sp
 500:	0068                	addi	a0,sp,12
 502:	0402                	c.slli64	s0
 504:	9e04                	.insn	2, 0x9e04
 506:	0001                	nop
 508:	0700                	addi	s0,sp,896
 50a:	000001c3          	.insn	4, 0x01c3
 50e:	0822                	slli	a6,a6,0x8
 510:	00f1                	addi	ra,ra,28
 512:	0000                	unimp
 514:	0150                	addi	a2,sp,132
 516:	0001                	nop
 518:	008c                	addi	a1,sp,64
 51a:	0000                	unimp
 51c:	9c01                	.insn	2, 0x9c01
 51e:	050a                	slli	a0,a0,0x2
 520:	0000                	unimp
 522:	6c617603          	.insn	4, 0x6c617603
 526:	2200                	.insn	2, 0x2200
 528:	cd1a                	sw	t1,152(sp)
 52a:	0004                	.insn	2, 0x0004
 52c:	0200                	addi	s0,sp,256
 52e:	5c91                	li	s9,-28
 530:	2b01                	jal	a40 <_start-0xf5c0>
 532:	0001                	nop
 534:	2400                	.insn	2, 0x2400
 536:	c00e                	sw	gp,0(sp)
 538:	0000                	unimp
 53a:	0200                	addi	s0,sp,256
 53c:	6c91                	lui	s9,0x4
 53e:	0700                	addi	s0,sp,896
 540:	011f 0000 061d      	.insn	6, 0x061d0000011f
 546:	0530                	addi	a2,sp,648
 548:	0000                	unimp
 54a:	010c                	addi	a1,sp,128
 54c:	0001                	nop
 54e:	0044                	addi	s1,sp,4
 550:	0000                	unimp
 552:	9c01                	.insn	2, 0x9c01
 554:	0530                	addi	a2,sp,648
 556:	0000                	unimp
 558:	1d006103          	.insn	4, 0x1d006103
 55c:	f119                	bnez	a0,462 <_start-0xfb9e>
 55e:	0000                	unimp
 560:	0200                	addi	s0,sp,256
 562:	6c91                	lui	s9,0x4
 564:	0200                	addi	s0,sp,256
 566:	0201                	addi	tp,tp,0 # 0 <_start-0x10000>
 568:	01e5                	addi	gp,gp,25
 56a:	0000                	unimp
 56c:	00006d07          	.insn	4, 0x6d07
 570:	1700                	addi	s0,sp,928
 572:	3006                	.insn	2, 0x3006
 574:	0005                	c.nop	1
 576:	a400                	.insn	2, 0xa400
 578:	0100                	addi	s0,sp,128
 57a:	6800                	.insn	2, 0x6800
 57c:	0000                	unimp
 57e:	0100                	addi	s0,sp,128
 580:	5d9c                	lw	a5,56(a1)
 582:	0005                	c.nop	1
 584:	0300                	addi	s0,sp,384
 586:	0061                	c.nop	24
 588:	00f11817          	auipc	a6,0xf11
 58c:	0000                	unimp
 58e:	9102                	jalr	sp
 590:	006c                	addi	a1,sp,12
 592:	5c12                	lw	s8,36(sp)
 594:	0001                	nop
 596:	0100                	addi	s0,sp,128
 598:	0611                	addi	a2,a2,4
 59a:	0530                	addi	a2,sp,648
 59c:	0000                	unimp
 59e:	003c                	addi	a5,sp,8
 5a0:	0001                	nop
 5a2:	0068                	addi	a0,sp,12
 5a4:	0000                	unimp
 5a6:	9c01                	.insn	2, 0x9c01
 5a8:	11006103          	.insn	4, 0x11006103
 5ac:	f118                	.insn	2, 0xf118
 5ae:	0000                	unimp
 5b0:	0200                	addi	s0,sp,256
 5b2:	6c91                	lui	s9,0x4
	...

Disassembly of section .debug_abbrev:

00000000 <.debug_abbrev>:
   0:	1101                	addi	sp,sp,-32
   2:	1001                	c.nop	-32
   4:	1106                	slli	sp,sp,0x21
   6:	1201                	addi	tp,tp,-32 # ffffffe0 <__stack_top+0xfffedf40>
   8:	0301                	addi	t1,t1,0
   a:	1b0e                	slli	s6,s6,0x23
   c:	250e                	.insn	2, 0x250e
   e:	130e                	slli	t1,t1,0x23
  10:	0005                	c.nop	1
  12:	0200                	addi	s0,sp,256
  14:	002e                	c.slli	zero,0xb
  16:	0c3f0e03          	lb	t3,195(t5)
  1a:	0111                	addi	sp,sp,4
  1c:	0112                	slli	sp,sp,0x4
  1e:	0000                	unimp
  20:	0100                	addi	s0,sp,128
  22:	0034                	addi	a3,sp,8
  24:	213a0e03          	lb	t3,531(s4)
  28:	3b01                	jal	fffffd38 <__stack_top+0xfffedc98>
  2a:	490b390b          	.insn	4, 0x490b390b
  2e:	00180213          	addi	tp,a6,1 # f11589 <__stack_top+0xeff4e9>
  32:	0200                	addi	s0,sp,256
  34:	0024                	addi	s1,sp,8
  36:	0b3e0b0b          	.insn	4, 0x0b3e0b0b
  3a:	00000e03          	lb	t3,0(zero) # 0 <_start-0x10000>
  3e:	03000503          	lb	a0,48(zero) # 30 <_start-0xffd0>
  42:	3a08                	.insn	2, 0x3a08
  44:	0121                	addi	sp,sp,8
  46:	0b390b3b          	.insn	4, 0x0b390b3b
  4a:	1349                	addi	t1,t1,-14
  4c:	1802                	slli	a6,a6,0x20
  4e:	0000                	unimp
  50:	1604                	addi	s1,sp,800
  52:	0300                	addi	s0,sp,384
  54:	3a0e                	.insn	2, 0x3a0e
  56:	390b3b0b          	.insn	4, 0x390b3b0b
  5a:	0013490b          	.insn	4, 0x0013490b
  5e:	0500                	addi	s0,sp,640
  60:	0034                	addi	a3,sp,8
  62:	213a0e03          	lb	t3,531(s4)
  66:	3b01                	jal	fffffd76 <__stack_top+0xfffedcd6>
  68:	3905                	jal	fffffc98 <__stack_top+0xfffedbf8>
  6a:	0213490b          	.insn	4, 0x0213490b
  6e:	0018                	.insn	2, 0x0018
  70:	0600                	addi	s0,sp,768
  72:	0034                	addi	a3,sp,8
  74:	213a0803          	lb	a6,531(s4)
  78:	3b01                	jal	fffffd88 <__stack_top+0xfffedce8>
  7a:	3905                	jal	fffffcaa <__stack_top+0xfffedc0a>
  7c:	0213490b          	.insn	4, 0x0213490b
  80:	0018                	.insn	2, 0x0018
  82:	0700                	addi	s0,sp,896
  84:	012e                	slli	sp,sp,0xb
  86:	0e03193f 3b01213a 	.insn	8, 0x3b01213a0e03193f
  8e:	270b390b          	.insn	4, 0x270b390b
  92:	4919                	li	s2,6
  94:	12011113          	.insn	4, 0x12011113
  98:	4006                	.insn	2, 0x4006
  9a:	7a18                	.insn	2, 0x7a18
  9c:	0119                	addi	sp,sp,6
  9e:	08000013          	li	zero,128
  a2:	0111010b          	.insn	4, 0x0111010b
  a6:	0612                	slli	a2,a2,0x4
  a8:	0000                	unimp
  aa:	2e09                	jal	3bc <_start-0xfc44>
  ac:	3f01                	jal	ffffffbc <__stack_top+0xfffedf1c>
  ae:	0319                	addi	t1,t1,6
  b0:	3a0e                	.insn	2, 0x3a0e
  b2:	0121                	addi	sp,sp,8
  b4:	21390b3b          	.insn	4, 0x21390b3b
  b8:	2708                	.insn	2, 0x2708
  ba:	4919                	li	s2,6
  bc:	12011113          	.insn	4, 0x12011113
  c0:	4006                	.insn	2, 0x4006
  c2:	7c18                	.insn	2, 0x7c18
  c4:	0119                	addi	sp,sp,6
  c6:	0a000013          	li	zero,160
  ca:	0111                	addi	sp,sp,4
  cc:	0e25                	addi	t3,t3,9 # a80009 <__stack_top+0xa6df69>
  ce:	1f030b13          	addi	s6,t1,496
  d2:	01111f1b          	.insn	4, 0x01111f1b
  d6:	0612                	slli	a2,a2,0x4
  d8:	1710                	addi	a2,sp,928
  da:	0000                	unimp
  dc:	0b00240b          	.insn	4, 0x0b00240b
  e0:	030b3e0b          	.insn	4, 0x030b3e0b
  e4:	0008                	.insn	2, 0x0008
  e6:	0c00                	addi	s0,sp,528
  e8:	0b0b0113          	addi	sp,s6,176
  ec:	0b3a                	slli	s6,s6,0xe
  ee:	0b390b3b          	.insn	4, 0x0b390b3b
  f2:	1301                	addi	t1,t1,-32
  f4:	0000                	unimp
  f6:	0d0d                	addi	s10,s10,3
  f8:	0300                	addi	s0,sp,384
  fa:	3a0e                	.insn	2, 0x3a0e
  fc:	390b3b0b          	.insn	4, 0x390b3b0b
 100:	3813490b          	.insn	4, 0x3813490b
 104:	0e00000b          	.insn	4, 0x0e00000b
 108:	002e                	c.slli	zero,0xb
 10a:	0e03193f 053b0b3a 	.insn	8, 0x053b0b3a0e03193f
 112:	0b39                	addi	s6,s6,14
 114:	13491927          	.insn	4, 0x13491927
 118:	0111                	addi	sp,sp,4
 11a:	0612                	slli	a2,a2,0x4
 11c:	1840                	addi	s0,sp,52
 11e:	197a                	slli	s2,s2,0x3e
 120:	0000                	unimp
 122:	3f012e0f          	.insn	4, 0x3f012e0f
 126:	0319                	addi	t1,t1,6
 128:	3a0e                	.insn	2, 0x3a0e
 12a:	39053b0b          	.insn	4, 0x39053b0b
 12e:	4919270b          	.insn	4, 0x4919270b
 132:	12011113          	.insn	4, 0x12011113
 136:	4006                	.insn	2, 0x4006
 138:	7c18                	.insn	2, 0x7c18
 13a:	0119                	addi	sp,sp,6
 13c:	10000013          	li	zero,256
 140:	0005                	c.nop	1
 142:	0b3a0803          	lb	a6,179(s4)
 146:	0b39053b          	.insn	4, 0x0b39053b
 14a:	1349                	addi	t1,t1,-14
 14c:	1802                	slli	a6,a6,0x20
 14e:	0000                	unimp
 150:	3411                	jal	fffffb54 <__stack_top+0xfffedab4>
 152:	0300                	addi	s0,sp,384
 154:	3a08                	.insn	2, 0x3a08
 156:	390b3b0b          	.insn	4, 0x390b3b0b
 15a:	0213490b          	.insn	4, 0x0213490b
 15e:	0018                	.insn	2, 0x0018
 160:	1200                	addi	s0,sp,288
 162:	012e                	slli	sp,sp,0xb
 164:	0e03193f 0b3b0b3a 	.insn	8, 0x0b3b0b3a0e03193f
 16c:	0b39                	addi	s6,s6,14
 16e:	13491927          	.insn	4, 0x13491927
 172:	0111                	addi	sp,sp,4
 174:	0612                	slli	a2,a2,0x4
 176:	1840                	addi	s0,sp,52
 178:	197a                	slli	s2,s2,0x3e
 17a:	0000                	unimp
	...

Disassembly of section .debug_aranges:

00000000 <.debug_aranges>:
   0:	001c                	.insn	2, 0x001c
   2:	0000                	unimp
   4:	0002                	c.slli64	zero
   6:	0000                	unimp
   8:	0000                	unimp
   a:	0004                	.insn	2, 0x0004
   c:	0000                	unimp
   e:	0000                	unimp
  10:	0000                	unimp
  12:	0001                	nop
  14:	003c                	addi	a5,sp,8
	...
  1e:	0000                	unimp
  20:	001c                	.insn	2, 0x001c
  22:	0000                	unimp
  24:	0002                	c.slli64	zero
  26:	0035                	c.nop	13
  28:	0000                	unimp
  2a:	0004                	.insn	2, 0x0004
  2c:	0000                	unimp
  2e:	0000                	unimp
  30:	003c                	addi	a5,sp,8
  32:	0001                	nop
  34:	1044                	addi	s1,sp,36
	...

Disassembly of section .debug_str:

00000000 <.debug_str>:
   0:	72617473          	.insn	4, 0x72617473
   4:	2e74                	.insn	2, 0x2e74
   6:	682f0053          	.insn	4, 0x682f0053
   a:	2f656d6f          	jal	s10,56300 <__stack_top+0x44260>
   e:	67666667          	.insn	4, 0x67666667
  12:	69722f33          	.insn	4, 0x69722f33
  16:	2d766373          	.insn	4, 0x2d766373
  1a:	6f6e                	.insn	2, 0x6f6e
  1c:	656e                	.insn	2, 0x656e
  1e:	652d                	lui	a0,0xb
  20:	666c                	.insn	2, 0x666c
  22:	672d                	lui	a4,0xb
  24:	722f6363          	bltu	t5,sp,74a <_start-0xf8b6>
  28:	3376                	.insn	2, 0x3376
  2a:	6532                	.insn	2, 0x6532
  2c:	756d                	lui	a0,0xffffb
  2e:	3130                	.insn	2, 0x3130
  30:	3230                	.insn	2, 0x3230
  32:	3376722f          	.insn	4, 0x3376722f
  36:	6532                	.insn	2, 0x6532
  38:	756d                	lui	a0,0xffffb
  3a:	7365742f          	.insn	4, 0x7365742f
  3e:	7374                	.insn	2, 0x7374
  40:	7379732f          	.insn	4, 0x7379732f
  44:	6574                	.insn	2, 0x6574
  46:	2f6d                	jal	800 <_start-0xf800>
  48:	7571                	lui	a0,0xffffc
  4a:	7a69                	lui	s4,0xffffa
  4c:	5f31                	li	t5,-20
  4e:	7270                	.insn	2, 0x7270
  50:	656c626f          	jal	tp,c66a6 <__stack_top+0xb4606>
  54:	5f6d                	li	t5,-5
  56:	4e470063          	beq	a4,tp,536 <_start-0xfaca>
  5a:	2055                	jal	fe <_start-0xff02>
  5c:	5341                	li	t1,-16
  5e:	3220                	.insn	2, 0x3220
  60:	342e                	.insn	2, 0x342e
  62:	00312e33          	slt	t3,sp,gp
  66:	735f 6174 7472      	.insn	6, 0x74726174735f
  6c:	6200                	.insn	2, 0x6200
  6e:	3166                	.insn	2, 0x3166
  70:	5f36                	lw	t5,108(sp)
  72:	7369                	lui	t1,0xffffa
  74:	6e69                	lui	t3,0x1a
  76:	0066                	c.slli	zero,0x19
  78:	6662                	.insn	2, 0x6662
  7a:	3631                	jal	fffffb86 <__stack_top+0xfffedae6>
  7c:	735f 6275 7100      	.insn	6, 0x71006275735f
  82:	6f75                	lui	t5,0x1d
  84:	6974                	.insn	2, 0x6974
  86:	6e65                	lui	t3,0x19
  88:	0074                	addi	a3,sp,12
  8a:	6572                	.insn	2, 0x6572
  8c:	746c7573          	.insn	4, 0x746c7573
  90:	6d5f 6e61 0074      	.insn	6, 0x00746e616d5f
  96:	6662                	.insn	2, 0x6662
  98:	3631                	jal	fffffba4 <__stack_top+0xfffedb04>
  9a:	745f 6e00 7765      	.insn	6, 0x77656e00745f
  a0:	6d5f 6e61 0074      	.insn	6, 0x00746e616d5f
  a6:	6f6c                	.insn	2, 0x6f6c
  a8:	676e                	.insn	2, 0x676e
  aa:	6c20                	.insn	2, 0x6c20
  ac:	20676e6f          	jal	t3,762b2 <__stack_top+0x64212>
  b0:	6e75                	lui	t3,0x1d
  b2:	6e676973          	.insn	4, 0x6e676973
  b6:	6465                	lui	s0,0x19
  b8:	6920                	.insn	2, 0x6920
  ba:	746e                	.insn	2, 0x746e
  bc:	6c00                	.insn	2, 0x6c00
  be:	20676e6f          	jal	t3,762c4 <__stack_top+0x64224>
  c2:	6f6c                	.insn	2, 0x6f6c
  c4:	676e                	.insn	2, 0x676e
  c6:	6920                	.insn	2, 0x6920
  c8:	746e                	.insn	2, 0x746e
  ca:	6500                	.insn	2, 0x6500
  cc:	7078                	.insn	2, 0x7078
  ce:	615f 6500 7078      	.insn	6, 0x70786500615f
  d4:	625f 6d00 6e61      	.insn	6, 0x6e616d00625f
  da:	5f74                	lw	a3,124(a4)
  dc:	0061                	c.nop	24
  de:	616d                	addi	sp,sp,240
  e0:	746e                	.insn	2, 0x746e
  e2:	625f 6200 3166      	.insn	6, 0x31666200625f
  e8:	5f36                	lw	t5,108(sp)
  ea:	756d                	lui	a0,0xffffb
  ec:	006c                	addi	a1,sp,12
  ee:	6964                	.insn	2, 0x6964
  f0:	6976                	.insn	2, 0x6976
  f2:	6564                	.insn	2, 0x6564
  f4:	646e                	.insn	2, 0x646e
  f6:	5f00                	lw	s0,56(a4)
  f8:	755f 6e69 3374      	.insn	6, 0x33746e69755f
  fe:	5f32                	lw	t5,44(sp)
 100:	0074                	addi	a3,sp,12
 102:	5f5f 6e69 3174      	.insn	6, 0x31746e695f5f
 108:	5f36                	lw	t5,108(sp)
 10a:	0074                	addi	a3,sp,12
 10c:	6662                	.insn	2, 0x6662
 10e:	3631                	jal	fffffc1a <__stack_top+0xfffedb7a>
 110:	735f 7271 0074      	.insn	6, 0x00747271735f
 116:	6662                	.insn	2, 0x6662
 118:	3631                	jal	fffffc24 <__stack_top+0xfffedb84>
 11a:	645f 7669 6200      	.insn	6, 0x62007669645f
 120:	3166                	.insn	2, 0x3166
 122:	5f36                	lw	t5,108(sp)
 124:	7369                	lui	t1,0xffffa
 126:	657a                	.insn	2, 0x657a
 128:	6f72                	.insn	2, 0x6f72
 12a:	6600                	.insn	2, 0x6600
 12c:	69623233          	.insn	4, 0x69623233
 130:	7374                	.insn	2, 0x7374
 132:	7300                	.insn	2, 0x7300
 134:	6f68                	.insn	2, 0x6f68
 136:	7472                	.insn	2, 0x7472
 138:	7520                	.insn	2, 0x7520
 13a:	736e                	.insn	2, 0x736e
 13c:	6769                	lui	a4,0x1a
 13e:	656e                	.insn	2, 0x656e
 140:	2064                	.insn	2, 0x2064
 142:	6e69                	lui	t3,0x1a
 144:	0074                	addi	a3,sp,12
 146:	6572                	.insn	2, 0x6572
 148:	746c7573          	.insn	4, 0x746c7573
 14c:	655f 7078 6500      	.insn	6, 0x65007078655f
 152:	7078                	.insn	2, 0x7078
 154:	615f 6a64 7375      	.insn	6, 0x73756a64615f
 15a:	0074                	addi	a3,sp,12
 15c:	6662                	.insn	2, 0x6662
 15e:	3631                	jal	fffffc6a <__stack_top+0xfffedbca>
 160:	695f 6e73 6e61      	.insn	6, 0x6e616e73695f
 166:	7300                	.insn	2, 0x7300
 168:	6769                	lui	a4,0x1a
 16a:	5f6e                	lw	t5,248(sp)
 16c:	0061                	c.nop	24
 16e:	6e676973          	.insn	4, 0x6e676973
 172:	625f 6200 3166      	.insn	6, 0x31666200625f
 178:	5f36                	lw	t5,108(sp)
 17a:	6461                	lui	s0,0x18
 17c:	0064                	addi	s1,sp,12
 17e:	6572                	.insn	2, 0x6572
 180:	746c7573          	.insn	4, 0x746c7573
 184:	735f 6769 006e      	.insn	6, 0x006e6769735f
 18a:	6f6c                	.insn	2, 0x6f6c
 18c:	676e                	.insn	2, 0x676e
 18e:	6420                	.insn	2, 0x6420
 190:	6c62756f          	jal	a0,27856 <__stack_top+0x157b6>
 194:	0065                	c.nop	25
 196:	6964                	.insn	2, 0x6964
 198:	6976                	.insn	2, 0x6976
 19a:	00726f73          	.insn	4, 0x00726f73
 19e:	6c66                	.insn	2, 0x6c66
 1a0:	0074616f          	jal	sp,469a6 <__stack_top+0x34906>
 1a4:	7865                	lui	a6,0xffff9
 1a6:	5f70                	lw	a2,124(a4)
 1a8:	6964                	.insn	2, 0x6964
 1aa:	6666                	.insn	2, 0x6666
 1ac:	6e00                	.insn	2, 0x6e00
 1ae:	7765                	lui	a4,0xffff9
 1b0:	655f 7078 7500      	.insn	6, 0x75007078655f
 1b6:	736e                	.insn	2, 0x736e
 1b8:	6769                	lui	a4,0x1a
 1ba:	656e                	.insn	2, 0x656e
 1bc:	2064                	.insn	2, 0x2064
 1be:	72616863          	bltu	sp,t1,8ee <_start-0xf712>
 1c2:	6600                	.insn	2, 0x6600
 1c4:	745f3233          	.insn	4, 0x745f3233
 1c8:	66625f6f          	jal	t5,2582e <__stack_top+0x1378e>
 1cc:	3631                	jal	fffffcd8 <__stack_top+0xfffedc38>
 1ce:	7300                	.insn	2, 0x7300
 1d0:	6f68                	.insn	2, 0x6f68
 1d2:	7472                	.insn	2, 0x7472
 1d4:	6920                	.insn	2, 0x6920
 1d6:	746e                	.insn	2, 0x746e
 1d8:	6200                	.insn	2, 0x6200
 1da:	3166                	.insn	2, 0x3166
 1dc:	5f36                	lw	t5,108(sp)
 1de:	6f74                	.insn	2, 0x6f74
 1e0:	665f 3233 5f00      	.insn	6, 0x5f003233665f
 1e6:	6f42                	.insn	2, 0x6f42
 1e8:	5f006c6f          	jal	s8,67d8 <_start-0x9828>
 1ec:	755f 6e69 3174      	.insn	6, 0x31746e69755f
 1f2:	5f36                	lw	t5,108(sp)
 1f4:	0074                	addi	a3,sp,12
 1f6:	5f5f 6e69 3374      	.insn	6, 0x33746e695f5f
 1fc:	5f32                	lw	t5,44(sp)
 1fe:	0074                	addi	a3,sp,12
 200:	6968                	.insn	2, 0x6968
 202:	47006867          	.insn	4, 0x47006867
 206:	554e                	lw	a0,240(sp)
 208:	4320                	lw	s0,64(a4)
 20a:	3731                	jal	116 <_start-0xfeea>
 20c:	3120                	.insn	2, 0x3120
 20e:	2e34                	.insn	2, 0x2e34
 210:	2e32                	.insn	2, 0x2e32
 212:	2030                	.insn	2, 0x2030
 214:	6d2d                	lui	s10,0xb
 216:	6261                	lui	tp,0x18
 218:	3d69                	jal	b2 <_start-0xff4e>
 21a:	6c69                	lui	s8,0x1a
 21c:	3370                	.insn	2, 0x3370
 21e:	2032                	.insn	2, 0x2032
 220:	6d2d                	lui	s10,0xb
 222:	7369                	lui	t1,0xffffa
 224:	2d61                	jal	8bc <_start-0xf744>
 226:	63657073          	.insn	4, 0x63657073
 22a:	323d                	jal	fffffb58 <__stack_top+0xfffedab8>
 22c:	3130                	.insn	2, 0x3130
 22e:	3139                	jal	fffffe3c <__stack_top+0xfffedd9c>
 230:	3132                	.insn	2, 0x3132
 232:	6d2d2033          	.insn	4, 0x6d2d2033
 236:	7261                	lui	tp,0xffff8
 238:	723d6863          	bltu	s10,gp,968 <_start-0xf698>
 23c:	3376                	.insn	2, 0x3376
 23e:	6932                	.insn	2, 0x6932
 240:	7a5f 6369 7273      	.insn	6, 0x727363697a5f
 246:	2d20                	.insn	2, 0x2d20
 248:	616d0067          	jr	1558(s10) # b616 <_start-0x49ea>
 24c:	6e69                	lui	t3,0x1a
 24e:	7200                	.insn	2, 0x7200
 250:	7365                	lui	t1,0xffff9
 252:	6c75                	lui	s8,0x1d
 254:	0074                	addi	a3,sp,12

Disassembly of section .debug_line_str:

00000000 <.debug_line_str>:
   0:	6d6f682f          	.insn	4, 0x6d6f682f
   4:	2f65                	jal	7bc <_start-0xf844>
   6:	67666667          	.insn	4, 0x67666667
   a:	69722f33          	.insn	4, 0x69722f33
   e:	2d766373          	.insn	4, 0x2d766373
  12:	6f6e                	.insn	2, 0x6f6e
  14:	656e                	.insn	2, 0x656e
  16:	652d                	lui	a0,0xb
  18:	666c                	.insn	2, 0x666c
  1a:	672d                	lui	a4,0xb
  1c:	722f6363          	bltu	t5,sp,742 <_start-0xf8be>
  20:	3376                	.insn	2, 0x3376
  22:	6532                	.insn	2, 0x6532
  24:	756d                	lui	a0,0xffffb
  26:	3130                	.insn	2, 0x3130
  28:	3230                	.insn	2, 0x3230
  2a:	3376722f          	.insn	4, 0x3376722f
  2e:	6532                	.insn	2, 0x6532
  30:	756d                	lui	a0,0xffffb
  32:	7365742f          	.insn	4, 0x7365742f
  36:	7374                	.insn	2, 0x7374
  38:	7379732f          	.insn	4, 0x7379732f
  3c:	6574                	.insn	2, 0x6574
  3e:	2f6d                	jal	7f8 <_start-0xf808>
  40:	7571                	lui	a0,0xffffc
  42:	7a69                	lui	s4,0xffffa
  44:	5f31                	li	t5,-20
  46:	7270                	.insn	2, 0x7270
  48:	656c626f          	jal	tp,c669e <__stack_top+0xb45fe>
  4c:	5f6d                	li	t5,-5
  4e:	616d0063          	beq	s10,s6,64e <_start-0xf9b2>
  52:	6e69                	lui	t3,0x1a
  54:	632e                	.insn	2, 0x632e
  56:	2f00                	.insn	2, 0x2f00
  58:	6f68                	.insn	2, 0x6f68
  5a:	656d                	lui	a0,0x1b
  5c:	6666672f          	.insn	4, 0x6666672f
  60:	722f3367          	.insn	4, 0x722f3367
  64:	7369                	lui	t1,0xffffa
  66:	6e2d7663          	bgeu	s10,sp,752 <_start-0xf8ae>
  6a:	2d656e6f          	jal	t3,56340 <__stack_top+0x442a0>
  6e:	6c65                	lui	s8,0x19
  70:	2d66                	.insn	2, 0x2d66
  72:	2f636367          	.insn	4, 0x2f636367
  76:	7078                	.insn	2, 0x7078
  78:	6361                	lui	t1,0x18
  7a:	69722d6b          	.insn	4, 0x69722d6b
  7e:	2d766373          	.insn	4, 0x2d766373
  82:	6f6e                	.insn	2, 0x6f6e
  84:	656e                	.insn	2, 0x656e
  86:	652d                	lui	a0,0xb
  88:	666c                	.insn	2, 0x666c
  8a:	672d                	lui	a4,0xb
  8c:	312d6363          	bltu	s10,s2,392 <_start-0xfc6e>
  90:	2e34                	.insn	2, 0x2e34
  92:	2e32                	.insn	2, 0x2e32
  94:	2d30                	.insn	2, 0x2d30
  96:	69722f33          	.insn	4, 0x69722f33
  9a:	2d766373          	.insn	4, 0x2d766373
  9e:	6f6e                	.insn	2, 0x6f6e
  a0:	656e                	.insn	2, 0x656e
  a2:	652d                	lui	a0,0xb
  a4:	666c                	.insn	2, 0x666c
  a6:	636e692f          	.insn	4, 0x636e692f
  aa:	756c                	.insn	2, 0x756c
  ac:	6564                	.insn	2, 0x6564
  ae:	63616d2f          	.insn	4, 0x63616d2f
  b2:	6968                	.insn	2, 0x6968
  b4:	656e                	.insn	2, 0x656e
  b6:	2f00                	.insn	2, 0x2f00
  b8:	6f68                	.insn	2, 0x6f68
  ba:	656d                	lui	a0,0x1b
  bc:	6666672f          	.insn	4, 0x6666672f
  c0:	722f3367          	.insn	4, 0x722f3367
  c4:	7369                	lui	t1,0xffffa
  c6:	6e2d7663          	bgeu	s10,sp,7b2 <_start-0xf84e>
  ca:	2d656e6f          	jal	t3,563a0 <__stack_top+0x44300>
  ce:	6c65                	lui	s8,0x19
  d0:	2d66                	.insn	2, 0x2d66
  d2:	2f636367          	.insn	4, 0x2f636367
  d6:	7078                	.insn	2, 0x7078
  d8:	6361                	lui	t1,0x18
  da:	69722d6b          	.insn	4, 0x69722d6b
  de:	2d766373          	.insn	4, 0x2d766373
  e2:	6f6e                	.insn	2, 0x6f6e
  e4:	656e                	.insn	2, 0x656e
  e6:	652d                	lui	a0,0xb
  e8:	666c                	.insn	2, 0x666c
  ea:	672d                	lui	a4,0xb
  ec:	312d6363          	bltu	s10,s2,3f2 <_start-0xfc0e>
  f0:	2e34                	.insn	2, 0x2e34
  f2:	2e32                	.insn	2, 0x2e32
  f4:	2d30                	.insn	2, 0x2d30
  f6:	69722f33          	.insn	4, 0x69722f33
  fa:	2d766373          	.insn	4, 0x2d766373
  fe:	6f6e                	.insn	2, 0x6f6e
 100:	656e                	.insn	2, 0x656e
 102:	652d                	lui	a0,0xb
 104:	666c                	.insn	2, 0x666c
 106:	636e692f          	.insn	4, 0x636e692f
 10a:	756c                	.insn	2, 0x756c
 10c:	6564                	.insn	2, 0x6564
 10e:	7379732f          	.insn	4, 0x7379732f
 112:	5f00                	lw	s0,56(a4)
 114:	6564                	.insn	2, 0x6564
 116:	6166                	.insn	2, 0x6166
 118:	6c75                	lui	s8,0x1d
 11a:	5f74                	lw	a3,124(a4)
 11c:	7974                	.insn	2, 0x7974
 11e:	6570                	.insn	2, 0x6570
 120:	00682e73          	.insn	4, 0x00682e73
 124:	735f 6474 6e69      	.insn	6, 0x6e696474735f
 12a:	2e74                	.insn	2, 0x2e74
 12c:	0068                	addi	a0,sp,12

Disassembly of section .debug_frame:

00000000 <.debug_frame>:
   0:	000c                	.insn	2, 0x000c
   2:	0000                	unimp
   4:	ffff                	.insn	2, 0xffff
   6:	ffff                	.insn	2, 0xffff
   8:	7c010003          	lb	zero,1984(sp)
   c:	0c01                	addi	s8,s8,0 # 1d000 <__stack_top+0xaf60>
   e:	0002                	c.slli64	zero
  10:	0024                	addi	s1,sp,8
  12:	0000                	unimp
  14:	0000                	unimp
  16:	0000                	unimp
  18:	003c                	addi	a5,sp,8
  1a:	0001                	nop
  1c:	0068                	addi	a0,sp,12
  1e:	0000                	unimp
  20:	0e44                	addi	s1,sp,788
  22:	4820                	lw	s0,80(s0)
  24:	0181                	addi	gp,gp,0
  26:	0288                	addi	a0,sp,320
  28:	0c44                	addi	s1,sp,532
  2a:	0008                	.insn	2, 0x0008
  2c:	4c02                	lw	s8,0(sp)
  2e:	44c1                	li	s1,16
  30:	0cc8                	addi	a0,sp,596
  32:	2002                	.insn	2, 0x2002
  34:	0e44                	addi	s1,sp,788
  36:	0000                	unimp
  38:	0024                	addi	s1,sp,8
  3a:	0000                	unimp
  3c:	0000                	unimp
  3e:	0000                	unimp
  40:	00a4                	addi	s1,sp,72
  42:	0001                	nop
  44:	0068                	addi	a0,sp,12
  46:	0000                	unimp
  48:	0e44                	addi	s1,sp,788
  4a:	4820                	lw	s0,80(s0)
  4c:	0181                	addi	gp,gp,0
  4e:	0288                	addi	a0,sp,320
  50:	0c44                	addi	s1,sp,532
  52:	0008                	.insn	2, 0x0008
  54:	4c02                	lw	s8,0(sp)
  56:	44c1                	li	s1,16
  58:	0cc8                	addi	a0,sp,596
  5a:	2002                	.insn	2, 0x2002
  5c:	0e44                	addi	s1,sp,788
  5e:	0000                	unimp
  60:	0024                	addi	s1,sp,8
  62:	0000                	unimp
  64:	0000                	unimp
  66:	0000                	unimp
  68:	010c                	addi	a1,sp,128
  6a:	0001                	nop
  6c:	0044                	addi	s1,sp,4
  6e:	0000                	unimp
  70:	0e44                	addi	s1,sp,788
  72:	4820                	lw	s0,80(s0)
  74:	0181                	addi	gp,gp,0
  76:	0288                	addi	a0,sp,320
  78:	0c44                	addi	s1,sp,532
  7a:	0008                	.insn	2, 0x0008
  7c:	c168                	sw	a0,68(a0)
  7e:	c844                	sw	s1,20(s0)
  80:	020c                	addi	a1,sp,256
  82:	4420                	lw	s0,72(s0)
  84:	000e                	c.slli	zero,0x3
  86:	0000                	unimp
  88:	0024                	addi	s1,sp,8
  8a:	0000                	unimp
  8c:	0000                	unimp
  8e:	0000                	unimp
  90:	0150                	addi	a2,sp,132
  92:	0001                	nop
  94:	008c                	addi	a1,sp,64
  96:	0000                	unimp
  98:	0e44                	addi	s1,sp,788
  9a:	4830                	lw	a2,80(s0)
  9c:	0181                	addi	gp,gp,0
  9e:	0288                	addi	a0,sp,320
  a0:	0c44                	addi	s1,sp,532
  a2:	0008                	.insn	2, 0x0008
  a4:	7002                	.insn	2, 0x7002
  a6:	44c1                	li	s1,16
  a8:	0cc8                	addi	a0,sp,596
  aa:	3002                	.insn	2, 0x3002
  ac:	0e44                	addi	s1,sp,788
  ae:	0000                	unimp
  b0:	0024                	addi	s1,sp,8
  b2:	0000                	unimp
  b4:	0000                	unimp
  b6:	0000                	unimp
  b8:	01dc                	addi	a5,sp,196
  ba:	0001                	nop
  bc:	0040                	addi	s0,sp,4
  be:	0000                	unimp
  c0:	0e44                	addi	s1,sp,788
  c2:	4830                	lw	a2,80(s0)
  c4:	0181                	addi	gp,gp,0
  c6:	0288                	addi	a0,sp,320
  c8:	0c44                	addi	s1,sp,532
  ca:	0008                	.insn	2, 0x0008
  cc:	c164                	sw	s1,68(a0)
  ce:	c844                	sw	s1,20(s0)
  d0:	020c                	addi	a1,sp,256
  d2:	4430                	lw	a2,72(s0)
  d4:	000e                	c.slli	zero,0x3
  d6:	0000                	unimp
  d8:	0024                	addi	s1,sp,8
  da:	0000                	unimp
  dc:	0000                	unimp
  de:	0000                	unimp
  e0:	021c                	addi	a5,sp,256
  e2:	0001                	nop
  e4:	0378                	addi	a4,sp,396
  e6:	0000                	unimp
  e8:	0e44                	addi	s1,sp,788
  ea:	4840                	lw	s0,20(s0)
  ec:	0181                	addi	gp,gp,0
  ee:	0288                	addi	a0,sp,320
  f0:	0c44                	addi	s1,sp,532
  f2:	0008                	.insn	2, 0x0008
  f4:	c1035c03          	lhu	s8,-1008(t1) # 17c10 <__stack_top+0x5b70>
  f8:	c844                	sw	s1,20(s0)
  fa:	020c                	addi	a1,sp,256
  fc:	4440                	lw	s0,12(s0)
  fe:	000e                	c.slli	zero,0x3
 100:	0024                	addi	s1,sp,8
 102:	0000                	unimp
 104:	0000                	unimp
 106:	0000                	unimp
 108:	0594                	addi	a3,sp,704
 10a:	0001                	nop
 10c:	005c                	addi	a5,sp,4
 10e:	0000                	unimp
 110:	0e44                	addi	s1,sp,788
 112:	4820                	lw	s0,80(s0)
 114:	0181                	addi	gp,gp,0
 116:	0288                	addi	a0,sp,320
 118:	0c44                	addi	s1,sp,532
 11a:	0008                	.insn	2, 0x0008
 11c:	4002                	.insn	2, 0x4002
 11e:	44c1                	li	s1,16
 120:	0cc8                	addi	a0,sp,596
 122:	2002                	.insn	2, 0x2002
 124:	0e44                	addi	s1,sp,788
 126:	0000                	unimp
 128:	0024                	addi	s1,sp,8
 12a:	0000                	unimp
 12c:	0000                	unimp
 12e:	0000                	unimp
 130:	05f0                	addi	a2,sp,716
 132:	0001                	nop
 134:	03d4                	addi	a3,sp,452
 136:	0000                	unimp
 138:	0e44                	addi	s1,sp,788
 13a:	4840                	lw	s0,20(s0)
 13c:	0181                	addi	gp,gp,0
 13e:	0288                	addi	a0,sp,320
 140:	0c44                	addi	s1,sp,532
 142:	0008                	.insn	2, 0x0008
 144:	c103b803          	.insn	4, 0xc103b803
 148:	c844                	sw	s1,20(s0)
 14a:	020c                	addi	a1,sp,256
 14c:	4440                	lw	s0,12(s0)
 14e:	000e                	c.slli	zero,0x3
 150:	0024                	addi	s1,sp,8
 152:	0000                	unimp
 154:	0000                	unimp
 156:	0000                	unimp
 158:	09c4                	addi	s1,sp,212
 15a:	0001                	nop
 15c:	03f4                	addi	a3,sp,460
 15e:	0000                	unimp
 160:	0e44                	addi	s1,sp,788
 162:	4850                	lw	a2,20(s0)
 164:	0181                	addi	gp,gp,0
 166:	0288                	addi	a0,sp,320
 168:	0c44                	addi	s1,sp,532
 16a:	0008                	.insn	2, 0x0008
 16c:	c103d803          	lhu	a6,-1008(t2)
 170:	c844                	sw	s1,20(s0)
 172:	020c                	addi	a1,sp,256
 174:	4450                	lw	a2,12(s0)
 176:	000e                	c.slli	zero,0x3
 178:	0024                	addi	s1,sp,8
 17a:	0000                	unimp
 17c:	0000                	unimp
 17e:	0000                	unimp
 180:	0db8                	addi	a4,sp,728
 182:	0001                	nop
 184:	02a0                	addi	s0,sp,328
 186:	0000                	unimp
 188:	0e44                	addi	s1,sp,788
 18a:	4850                	lw	a2,20(s0)
 18c:	0181                	addi	gp,gp,0
 18e:	0288                	addi	a0,sp,320
 190:	0c44                	addi	s1,sp,532
 192:	0008                	.insn	2, 0x0008
 194:	c1028403          	lb	s0,-1008(t0)
 198:	c844                	sw	s1,20(s0)
 19a:	020c                	addi	a1,sp,256
 19c:	4450                	lw	a2,12(s0)
 19e:	000e                	c.slli	zero,0x3
 1a0:	0024                	addi	s1,sp,8
 1a2:	0000                	unimp
 1a4:	0000                	unimp
 1a6:	0000                	unimp
 1a8:	1058                	addi	a4,sp,36
 1aa:	0001                	nop
 1ac:	0028                	addi	a0,sp,8
 1ae:	0000                	unimp
 1b0:	0e44                	addi	s1,sp,788
 1b2:	4810                	lw	a2,16(s0)
 1b4:	0181                	addi	gp,gp,0
 1b6:	0288                	addi	a0,sp,320
 1b8:	0c44                	addi	s1,sp,532
 1ba:	0008                	.insn	2, 0x0008
 1bc:	c14c                	sw	a1,4(a0)
 1be:	c844                	sw	s1,20(s0)
 1c0:	020c                	addi	a1,sp,256
 1c2:	4410                	lw	a2,8(s0)
 1c4:	000e                	c.slli	zero,0x3
	...
